---
triple:          'x86_64-apple-darwin'
binary-path:     test_simple_debug
relocations:
  - { offsetInCU: 0xACE5, offset: 0xACE5, size: 0x8, addend: 0x0, symName: __ZNSt3__124__put_character_sequenceB7v160006IcNS_11char_traitsIcEEEERNS_13basic_ostreamIT_T0_EES7_PKS4_m, symObjAddr: 0x1930, symBinAddr: 0x100002C80, symSize: 0x1F0 }
  - { offsetInCU: 0xED31, offset: 0xED31, size: 0x8, addend: 0x0, symName: __ZNSt3__1lsB7v160006INS_11char_traitsIcEEEERNS_13basic_ostreamIcT_EES6_PKc, symObjAddr: 0x9D0, symBinAddr: 0x100001D20, symSize: 0x40 }
  - { offsetInCU: 0xED77, offset: 0xED77, size: 0x8, addend: 0x0, symName: __ZNSt3__14endlB7v160006IcNS_11char_traitsIcEEEERNS_13basic_ostreamIT_T0_EES7_, symObjAddr: 0xA30, symBinAddr: 0x100001D80, symSize: 0x50 }
  - { offsetInCU: 0x10367, offset: 0x10367, size: 0x8, addend: 0x0, symName: __ZNSt3__110to_addressB7v160006IhEEDaPT_, symObjAddr: 0xED0, symBinAddr: 0x100002220, symSize: 0x20 }
  - { offsetInCU: 0x1039C, offset: 0x1039C, size: 0x8, addend: 0x0, symName: __ZNSt3__112__to_addressB7v160006IhEEPT_S2_, symObjAddr: 0xEF0, symBinAddr: 0x100002240, symSize: 0x10 }
  - { offsetInCU: 0x103D1, offset: 0x103D1, size: 0x8, addend: 0x0, symName: __ZNSt3__19call_onceB7v160006IRFvvEJEEEvRNS_9once_flagEOT_DpOT0_, symObjAddr: 0x14E0, symBinAddr: 0x100002830, symSize: 0x60 }
  - { offsetInCU: 0x10450, offset: 0x10450, size: 0x8, addend: 0x0, symName: __ZNSt3__121__libcpp_acquire_loadB7v160006ImEET_PKS1_, symObjAddr: 0x1540, symBinAddr: 0x100002890, symSize: 0x20 }
  - { offsetInCU: 0x10485, offset: 0x10485, size: 0x8, addend: 0x0, symName: __ZNSt3__117__call_once_proxyB7v160006INS_5tupleIJRFvvEEEEEEvPv, symObjAddr: 0x15C0, symBinAddr: 0x100002910, symSize: 0x30 }
  - { offsetInCU: 0x104F6, offset: 0x104F6, size: 0x8, addend: 0x0, symName: __ZNSt3__18__invokeB7v160006IRFvvEJEEEDTclclsr3stdE7declvalIT_EEspclsr3stdE7declvalIT0_EEEEOS3_DpOS4_, symObjAddr: 0x1710, symBinAddr: 0x100002A60, symSize: 0x20 }
  - { offsetInCU: 0x1052E, offset: 0x1052E, size: 0x8, addend: 0x0, symName: __ZNSt3__13getB7v160006ILm0EJRFvvEEEEONS_13tuple_elementIXT_ENS_5tupleIJDpT0_EEEE4typeEOS7_, symObjAddr: 0x1730, symBinAddr: 0x100002A80, symSize: 0x20 }
  - { offsetInCU: 0x10571, offset: 0x10571, size: 0x8, addend: 0x0, symName: __ZNSt3__116__pad_and_outputB7v160006IcNS_11char_traitsIcEEEENS_19ostreambuf_iteratorIT_T0_EES6_PKS4_S8_S8_RNS_8ios_baseES4_, symObjAddr: 0x1B70, symBinAddr: 0x100002EC0, symSize: 0x220 }
  - { offsetInCU: 0x10641, offset: 0x10641, size: 0x8, addend: 0x0, symName: __ZNSt3__119__debug_db_insert_cB7v160006INS_12basic_stringIcNS_11char_traitsIcEENS_9allocatorIcEEEEEEvPT_, symObjAddr: 0x2000, symBinAddr: 0x100003350, symSize: 0x10 }
  - { offsetInCU: 0x10672, offset: 0x10672, size: 0x8, addend: 0x0, symName: __ZNSt3__112__to_addressB7v160006IcEEPT_S2_, symObjAddr: 0x20A0, symBinAddr: 0x1000033F0, symSize: 0x10 }
  - { offsetInCU: 0x106A7, offset: 0x106A7, size: 0x8, addend: 0x0, symName: __ZNSt3__19use_facetB7v160006INS_5ctypeIcEEEERKT_RKNS_6localeE, symObjAddr: 0x2330, symBinAddr: 0x100003680, symSize: 0x30 }
  - { offsetInCU: 0x10B76, offset: 0x10B76, size: 0x8, addend: 0x0, symName: __ZNSt3__118__constexpr_strlenB7v160006EPKc, symObjAddr: 0x23C0, symBinAddr: 0x100003710, symSize: 0x20 }
  - { offsetInCU: 0x11A81, offset: 0x11A81, size: 0x8, addend: 0x0, symName: __ZN17LockedPoolManager8InstanceEv, symObjAddr: 0x14B0, symBinAddr: 0x100002800, symSize: 0x30 }
  - { offsetInCU: 0x11AA0, offset: 0x11AA0, size: 0x8, addend: 0x0, symName: __ZZN17LockedPoolManager8InstanceEvE9init_flag, symObjAddr: 0x2B98, symBinAddr: 0x100214000, symSize: 0x0 }
  - { offsetInCU: 0x14BB5, offset: 0x14BB5, size: 0x8, addend: 0x0, symName: _main, symObjAddr: 0x0, symBinAddr: 0x100001350, symSize: 0x9D0 }
  - { offsetInCU: 0x14C54, offset: 0x14C54, size: 0x8, addend: 0x0, symName: __ZNSt3__113basic_ostreamIcNS_11char_traitsIcEEElsB7v160006EPFRS3_S4_E, symObjAddr: 0xA10, symBinAddr: 0x100001D60, symSize: 0x20 }
  - { offsetInCU: 0x15359, offset: 0x15359, size: 0x8, addend: 0x0, symName: __ZN4CKeyC1Ev, symObjAddr: 0xA80, symBinAddr: 0x100001DD0, symSize: 0x20 }
  - { offsetInCU: 0x15383, offset: 0x15383, size: 0x8, addend: 0x0, symName: __ZNK4CKey7IsValidEv, symObjAddr: 0xAA0, symBinAddr: 0x100001DF0, symSize: 0x30 }
  - { offsetInCU: 0x153A9, offset: 0x153A9, size: 0x8, addend: 0x0, symName: __ZNK8CQPubKey7IsValidEv, symObjAddr: 0xAD0, symBinAddr: 0x100001E20, symSize: 0x70 }
  - { offsetInCU: 0x153EC, offset: 0x153EC, size: 0x8, addend: 0x0, symName: __ZNSt3__14spanIhLm18446744073709551615EEC1B7v160006IPhEET_m, symObjAddr: 0xB40, symBinAddr: 0x100001E90, symSize: 0x30 }
  - { offsetInCU: 0x1543D, offset: 0x1543D, size: 0x8, addend: 0x0, symName: __ZN4CKey3SetIPhEEvT_S2_b, symObjAddr: 0xB70, symBinAddr: 0x100001EC0, symSize: 0xE0 }
  - { offsetInCU: 0x15AA1, offset: 0x15AA1, size: 0x8, addend: 0x0, symName: __ZN5CQKeyC1Ev, symObjAddr: 0xC50, symBinAddr: 0x100001FA0, symSize: 0x20 }
  - { offsetInCU: 0x15ACB, offset: 0x15ACB, size: 0x8, addend: 0x0, symName: __ZNK5CQKey7IsValidEv, symObjAddr: 0xC70, symBinAddr: 0x100001FC0, symSize: 0x60 }
  - { offsetInCU: 0x15AF1, offset: 0x15AF1, size: 0x8, addend: 0x0, symName: __ZN5CQKeyD1Ev, symObjAddr: 0xCD0, symBinAddr: 0x100002020, symSize: 0x20 }
  - { offsetInCU: 0x15B1D, offset: 0x15B1D, size: 0x8, addend: 0x0, symName: __ZN4CKeyD1Ev, symObjAddr: 0xCF0, symBinAddr: 0x100002040, symSize: 0x20 }
  - { offsetInCU: 0x15B49, offset: 0x15B49, size: 0x8, addend: 0x0, symName: __ZN4CKeyC2Ev, symObjAddr: 0xD20, symBinAddr: 0x100002070, symSize: 0x30 }
  - { offsetInCU: 0x15B73, offset: 0x15B73, size: 0x8, addend: 0x0, symName: __ZNSt3__110unique_ptrINS_5arrayIhLm32EEE19SecureUniqueDeleterIS2_EEC1B7v160006ILb1EvEEv, symObjAddr: 0xD50, symBinAddr: 0x1000020A0, symSize: 0x20 }
  - { offsetInCU: 0x15BA8, offset: 0x15BA8, size: 0x8, addend: 0x0, symName: __ZNSt3__110unique_ptrINS_5arrayIhLm32EEE19SecureUniqueDeleterIS2_EEC2B7v160006ILb1EvEEv, symObjAddr: 0xD70, symBinAddr: 0x1000020C0, symSize: 0x30 }
  - { offsetInCU: 0x15BE2, offset: 0x15BE2, size: 0x8, addend: 0x0, symName: __ZNSt3__117__compressed_pairIPNS_5arrayIhLm32EEE19SecureUniqueDeleterIS2_EEC1B7v160006INS_16__value_init_tagES8_EEOT_OT0_, symObjAddr: 0xDA0, symBinAddr: 0x1000020F0, symSize: 0x30 }
  - { offsetInCU: 0x15C3A, offset: 0x15C3A, size: 0x8, addend: 0x0, symName: __ZNSt3__117__compressed_pairIPNS_5arrayIhLm32EEE19SecureUniqueDeleterIS2_EEC2B7v160006INS_16__value_init_tagES8_EEOT_OT0_, symObjAddr: 0xDD0, symBinAddr: 0x100002120, symSize: 0x30 }
  - { offsetInCU: 0x15C92, offset: 0x15C92, size: 0x8, addend: 0x0, symName: __ZNSt3__122__compressed_pair_elemIPNS_5arrayIhLm32EEELi0ELb0EEC2B7v160006ENS_16__value_init_tagE, symObjAddr: 0xE00, symBinAddr: 0x100002150, symSize: 0x20 }
  - { offsetInCU: 0x15CC7, offset: 0x15CC7, size: 0x8, addend: 0x0, symName: __ZNSt3__122__compressed_pair_elemI19SecureUniqueDeleterINS_5arrayIhLm32EEEELi1ELb1EEC2B7v160006ENS_16__value_init_tagE, symObjAddr: 0xE20, symBinAddr: 0x100002170, symSize: 0x10 }
  - { offsetInCU: 0x15CFC, offset: 0x15CFC, size: 0x8, addend: 0x0, symName: __ZNKSt3__110unique_ptrINS_5arrayIhLm32EEE19SecureUniqueDeleterIS2_EEcvbB7v160006Ev, symObjAddr: 0xE30, symBinAddr: 0x100002180, symSize: 0x30 }
  - { offsetInCU: 0x15D22, offset: 0x15D22, size: 0x8, addend: 0x0, symName: __ZNKSt3__117__compressed_pairIPNS_5arrayIhLm32EEE19SecureUniqueDeleterIS2_EE5firstB7v160006Ev, symObjAddr: 0xE60, symBinAddr: 0x1000021B0, symSize: 0x20 }
  - { offsetInCU: 0x15D48, offset: 0x15D48, size: 0x8, addend: 0x0, symName: __ZNKSt3__122__compressed_pair_elemIPNS_5arrayIhLm32EEELi0ELb0EE5__getB7v160006Ev, symObjAddr: 0xE80, symBinAddr: 0x1000021D0, symSize: 0x10 }
  - { offsetInCU: 0x15D6E, offset: 0x15D6E, size: 0x8, addend: 0x0, symName: __ZNSt3__14spanIhLm18446744073709551615EEC2B7v160006IPhEET_m, symObjAddr: 0xE90, symBinAddr: 0x1000021E0, symSize: 0x40 }
  - { offsetInCU: 0x15DBF, offset: 0x15DBF, size: 0x8, addend: 0x0, symName: __ZN5CQKeyC2Ev, symObjAddr: 0xF00, symBinAddr: 0x100002250, symSize: 0x40 }
  - { offsetInCU: 0x15DE9, offset: 0x15DE9, size: 0x8, addend: 0x0, symName: __ZNSt3__110unique_ptrINS_5arrayIhLm4032EEE19SecureUniqueDeleterIS2_EEC1B7v160006ILb1EvEEv, symObjAddr: 0xF40, symBinAddr: 0x100002290, symSize: 0x20 }
  - { offsetInCU: 0x15E1E, offset: 0x15E1E, size: 0x8, addend: 0x0, symName: __ZNSt3__110unique_ptrI8CQPubKeyNS_14default_deleteIS1_EEEC1B7v160006ILb1EvEEv, symObjAddr: 0xF60, symBinAddr: 0x1000022B0, symSize: 0x20 }
  - { offsetInCU: 0x15E53, offset: 0x15E53, size: 0x8, addend: 0x0, symName: __ZNSt3__110unique_ptrINS_5arrayIhLm4032EEE19SecureUniqueDeleterIS2_EEC2B7v160006ILb1EvEEv, symObjAddr: 0xF80, symBinAddr: 0x1000022D0, symSize: 0x30 }
  - { offsetInCU: 0x15E88, offset: 0x15E88, size: 0x8, addend: 0x0, symName: __ZNSt3__117__compressed_pairIPNS_5arrayIhLm4032EEE19SecureUniqueDeleterIS2_EEC1B7v160006INS_16__value_init_tagES8_EEOT_OT0_, symObjAddr: 0xFB0, symBinAddr: 0x100002300, symSize: 0x30 }
  - { offsetInCU: 0x15EE0, offset: 0x15EE0, size: 0x8, addend: 0x0, symName: __ZNSt3__117__compressed_pairIPNS_5arrayIhLm4032EEE19SecureUniqueDeleterIS2_EEC2B7v160006INS_16__value_init_tagES8_EEOT_OT0_, symObjAddr: 0xFE0, symBinAddr: 0x100002330, symSize: 0x30 }
  - { offsetInCU: 0x15F38, offset: 0x15F38, size: 0x8, addend: 0x0, symName: __ZNSt3__122__compressed_pair_elemIPNS_5arrayIhLm4032EEELi0ELb0EEC2B7v160006ENS_16__value_init_tagE, symObjAddr: 0x1010, symBinAddr: 0x100002360, symSize: 0x20 }
  - { offsetInCU: 0x15F6D, offset: 0x15F6D, size: 0x8, addend: 0x0, symName: __ZNSt3__122__compressed_pair_elemI19SecureUniqueDeleterINS_5arrayIhLm4032EEEELi1ELb1EEC2B7v160006ENS_16__value_init_tagE, symObjAddr: 0x1030, symBinAddr: 0x100002380, symSize: 0x10 }
  - { offsetInCU: 0x15FA2, offset: 0x15FA2, size: 0x8, addend: 0x0, symName: __ZNSt3__110unique_ptrI8CQPubKeyNS_14default_deleteIS1_EEEC2B7v160006ILb1EvEEv, symObjAddr: 0x1040, symBinAddr: 0x100002390, symSize: 0x30 }
  - { offsetInCU: 0x15FD7, offset: 0x15FD7, size: 0x8, addend: 0x0, symName: __ZNSt3__117__compressed_pairIP8CQPubKeyNS_14default_deleteIS1_EEEC1B7v160006INS_16__value_init_tagES7_EEOT_OT0_, symObjAddr: 0x1070, symBinAddr: 0x1000023C0, symSize: 0x30 }
  - { offsetInCU: 0x1602F, offset: 0x1602F, size: 0x8, addend: 0x0, symName: __ZNSt3__117__compressed_pairIP8CQPubKeyNS_14default_deleteIS1_EEEC2B7v160006INS_16__value_init_tagES7_EEOT_OT0_, symObjAddr: 0x10A0, symBinAddr: 0x1000023F0, symSize: 0x30 }
  - { offsetInCU: 0x16087, offset: 0x16087, size: 0x8, addend: 0x0, symName: __ZNSt3__122__compressed_pair_elemIP8CQPubKeyLi0ELb0EEC2B7v160006ENS_16__value_init_tagE, symObjAddr: 0x10D0, symBinAddr: 0x100002420, symSize: 0x20 }
  - { offsetInCU: 0x160BC, offset: 0x160BC, size: 0x8, addend: 0x0, symName: __ZNSt3__122__compressed_pair_elemINS_14default_deleteI8CQPubKeyEELi1ELb1EEC2B7v160006ENS_16__value_init_tagE, symObjAddr: 0x10F0, symBinAddr: 0x100002440, symSize: 0x10 }
  - { offsetInCU: 0x160F1, offset: 0x160F1, size: 0x8, addend: 0x0, symName: __ZNKSt3__110unique_ptrINS_5arrayIhLm4032EEE19SecureUniqueDeleterIS2_EEcvbB7v160006Ev, symObjAddr: 0x1100, symBinAddr: 0x100002450, symSize: 0x30 }
  - { offsetInCU: 0x16117, offset: 0x16117, size: 0x8, addend: 0x0, symName: __ZNKSt3__110unique_ptrINS_5arrayIhLm4032EEE19SecureUniqueDeleterIS2_EEptB7v160006Ev, symObjAddr: 0x1130, symBinAddr: 0x100002480, symSize: 0x20 }
  - { offsetInCU: 0x1613D, offset: 0x1613D, size: 0x8, addend: 0x0, symName: __ZNKSt3__15arrayIhLm4032EE4sizeB7v160006Ev, symObjAddr: 0x1150, symBinAddr: 0x1000024A0, symSize: 0x10 }
  - { offsetInCU: 0x16163, offset: 0x16163, size: 0x8, addend: 0x0, symName: __ZNKSt3__117__compressed_pairIPNS_5arrayIhLm4032EEE19SecureUniqueDeleterIS2_EE5firstB7v160006Ev, symObjAddr: 0x1160, symBinAddr: 0x1000024B0, symSize: 0x20 }
  - { offsetInCU: 0x16189, offset: 0x16189, size: 0x8, addend: 0x0, symName: __ZNKSt3__122__compressed_pair_elemIPNS_5arrayIhLm4032EEELi0ELb0EE5__getB7v160006Ev, symObjAddr: 0x1180, symBinAddr: 0x1000024D0, symSize: 0x10 }
  - { offsetInCU: 0x161AF, offset: 0x161AF, size: 0x8, addend: 0x0, symName: __ZN5CQKeyD2Ev, symObjAddr: 0x1190, symBinAddr: 0x1000024E0, symSize: 0x30 }
  - { offsetInCU: 0x161DB, offset: 0x161DB, size: 0x8, addend: 0x0, symName: __ZNSt3__110unique_ptrI8CQPubKeyNS_14default_deleteIS1_EEED1B7v160006Ev, symObjAddr: 0x11C0, symBinAddr: 0x100002510, symSize: 0x20 }
  - { offsetInCU: 0x16205, offset: 0x16205, size: 0x8, addend: 0x0, symName: __ZNSt3__110unique_ptrINS_5arrayIhLm4032EEE19SecureUniqueDeleterIS2_EED1B7v160006Ev, symObjAddr: 0x11E0, symBinAddr: 0x100002530, symSize: 0x20 }
  - { offsetInCU: 0x1622F, offset: 0x1622F, size: 0x8, addend: 0x0, symName: __ZNSt3__110unique_ptrI8CQPubKeyNS_14default_deleteIS1_EEED2B7v160006Ev, symObjAddr: 0x1200, symBinAddr: 0x100002550, symSize: 0x20 }
  - { offsetInCU: 0x16259, offset: 0x16259, size: 0x8, addend: 0x0, symName: __ZNSt3__110unique_ptrI8CQPubKeyNS_14default_deleteIS1_EEE5resetB7v160006EPS1_, symObjAddr: 0x1220, symBinAddr: 0x100002570, symSize: 0x70 }
  - { offsetInCU: 0x1629D, offset: 0x1629D, size: 0x8, addend: 0x0, symName: __ZNSt3__117__compressed_pairIP8CQPubKeyNS_14default_deleteIS1_EEE5firstB7v160006Ev, symObjAddr: 0x1290, symBinAddr: 0x1000025E0, symSize: 0x20 }
  - { offsetInCU: 0x162C3, offset: 0x162C3, size: 0x8, addend: 0x0, symName: __ZNSt3__117__compressed_pairIP8CQPubKeyNS_14default_deleteIS1_EEE6secondB7v160006Ev, symObjAddr: 0x12B0, symBinAddr: 0x100002600, symSize: 0x20 }
  - { offsetInCU: 0x162E9, offset: 0x162E9, size: 0x8, addend: 0x0, symName: __ZNKSt3__114default_deleteI8CQPubKeyEclB7v160006EPS1_, symObjAddr: 0x12D0, symBinAddr: 0x100002620, symSize: 0x40 }
  - { offsetInCU: 0x1631D, offset: 0x1631D, size: 0x8, addend: 0x0, symName: __ZNSt3__122__compressed_pair_elemIP8CQPubKeyLi0ELb0EE5__getB7v160006Ev, symObjAddr: 0x1310, symBinAddr: 0x100002660, symSize: 0x10 }
  - { offsetInCU: 0x16343, offset: 0x16343, size: 0x8, addend: 0x0, symName: __ZNSt3__122__compressed_pair_elemINS_14default_deleteI8CQPubKeyEELi1ELb1EE5__getB7v160006Ev, symObjAddr: 0x1320, symBinAddr: 0x100002670, symSize: 0x10 }
  - { offsetInCU: 0x16369, offset: 0x16369, size: 0x8, addend: 0x0, symName: __ZNSt3__110unique_ptrINS_5arrayIhLm4032EEE19SecureUniqueDeleterIS2_EED2B7v160006Ev, symObjAddr: 0x1330, symBinAddr: 0x100002680, symSize: 0x20 }
  - { offsetInCU: 0x16393, offset: 0x16393, size: 0x8, addend: 0x0, symName: __ZNSt3__110unique_ptrINS_5arrayIhLm4032EEE19SecureUniqueDeleterIS2_EE5resetB7v160006EPS2_, symObjAddr: 0x1350, symBinAddr: 0x1000026A0, symSize: 0x70 }
  - { offsetInCU: 0x163D7, offset: 0x163D7, size: 0x8, addend: 0x0, symName: __ZNSt3__117__compressed_pairIPNS_5arrayIhLm4032EEE19SecureUniqueDeleterIS2_EE5firstB7v160006Ev, symObjAddr: 0x13C0, symBinAddr: 0x100002710, symSize: 0x20 }
  - { offsetInCU: 0x163FD, offset: 0x163FD, size: 0x8, addend: 0x0, symName: __ZNSt3__117__compressed_pairIPNS_5arrayIhLm4032EEE19SecureUniqueDeleterIS2_EE6secondB7v160006Ev, symObjAddr: 0x13E0, symBinAddr: 0x100002730, symSize: 0x20 }
  - { offsetInCU: 0x16423, offset: 0x16423, size: 0x8, addend: 0x0, symName: __ZN19SecureUniqueDeleterINSt3__15arrayIhLm4032EEEEclEPS2_, symObjAddr: 0x1400, symBinAddr: 0x100002750, symSize: 0x40 }
  - { offsetInCU: 0x16457, offset: 0x16457, size: 0x8, addend: 0x0, symName: __ZNSt3__122__compressed_pair_elemIPNS_5arrayIhLm4032EEELi0ELb0EE5__getB7v160006Ev, symObjAddr: 0x1440, symBinAddr: 0x100002790, symSize: 0x10 }
  - { offsetInCU: 0x1647D, offset: 0x1647D, size: 0x8, addend: 0x0, symName: __ZNSt3__122__compressed_pair_elemI19SecureUniqueDeleterINS_5arrayIhLm4032EEEELi1ELb1EE5__getB7v160006Ev, symObjAddr: 0x1450, symBinAddr: 0x1000027A0, symSize: 0x10 }
  - { offsetInCU: 0x164FD, offset: 0x164FD, size: 0x8, addend: 0x0, symName: __ZN16secure_allocatorINSt3__15arrayIhLm4032EEEE10deallocateEPS2_m, symObjAddr: 0x1460, symBinAddr: 0x1000027B0, symSize: 0x50 }
  - { offsetInCU: 0x1653F, offset: 0x1653F, size: 0x8, addend: 0x0, symName: __ZNSt3__15tupleIJRFvvEEEC1B7v160006INS_4_AndELi0EEES2_, symObjAddr: 0x1560, symBinAddr: 0x1000028B0, symSize: 0x30 }
  - { offsetInCU: 0x16587, offset: 0x16587, size: 0x8, addend: 0x0, symName: __ZNSt3__117__call_once_paramINS_5tupleIJRFvvEEEEEC1B7v160006ERS4_, symObjAddr: 0x1590, symBinAddr: 0x1000028E0, symSize: 0x30 }
  - { offsetInCU: 0x165C0, offset: 0x165C0, size: 0x8, addend: 0x0, symName: __ZNSt3__15tupleIJRFvvEEEC2B7v160006INS_4_AndELi0EEES2_, symObjAddr: 0x15F0, symBinAddr: 0x100002940, symSize: 0x30 }
  - { offsetInCU: 0x16608, offset: 0x16608, size: 0x8, addend: 0x0, symName: __ZNSt3__112__tuple_implINS_15__tuple_indicesIJLm0EEEEJRFvvEEEC1B7v160006IJLm0EEJS4_EJEJEJS4_EEENS1_IJXspT_EEEENS_13__tuple_typesIJDpT0_EEENS1_IJXspT1_EEEENS8_IJDpT2_EEEDpOT3_, symObjAddr: 0x1620, symBinAddr: 0x100002970, symSize: 0x30 }
  - { offsetInCU: 0x1669D, offset: 0x1669D, size: 0x8, addend: 0x0, symName: __ZNSt3__112__tuple_implINS_15__tuple_indicesIJLm0EEEEJRFvvEEEC2B7v160006IJLm0EEJS4_EJEJEJS4_EEENS1_IJXspT_EEEENS_13__tuple_typesIJDpT0_EEENS1_IJXspT1_EEEENS8_IJDpT2_EEEDpOT3_, symObjAddr: 0x1650, symBinAddr: 0x1000029A0, symSize: 0x30 }
  - { offsetInCU: 0x16732, offset: 0x16732, size: 0x8, addend: 0x0, symName: __ZNSt3__112__tuple_leafILm0ERFvvELb0EEC2B7v160006IS2_vEEOT_, symObjAddr: 0x1680, symBinAddr: 0x1000029D0, symSize: 0x20 }
  - { offsetInCU: 0x16775, offset: 0x16775, size: 0x8, addend: 0x0, symName: __ZNSt3__117__call_once_paramINS_5tupleIJRFvvEEEEEC2B7v160006ERS4_, symObjAddr: 0x16A0, symBinAddr: 0x1000029F0, symSize: 0x20 }
  - { offsetInCU: 0x167AE, offset: 0x167AE, size: 0x8, addend: 0x0, symName: __ZNSt3__117__call_once_paramINS_5tupleIJRFvvEEEEEclB7v160006Ev, symObjAddr: 0x16C0, symBinAddr: 0x100002A10, symSize: 0x20 }
  - { offsetInCU: 0x167D4, offset: 0x167D4, size: 0x8, addend: 0x0, symName: __ZNSt3__117__call_once_paramINS_5tupleIJRFvvEEEEE9__executeB7v160006IJEEEvNS_15__tuple_indicesIJXspT_EEEE, symObjAddr: 0x16E0, symBinAddr: 0x100002A30, symSize: 0x30 }
  - { offsetInCU: 0x1680B, offset: 0x1680B, size: 0x8, addend: 0x0, symName: __ZNSt3__112__tuple_leafILm0ERFvvELb0EE3getB7v160006Ev, symObjAddr: 0x1750, symBinAddr: 0x100002AA0, symSize: 0x20 }
  - { offsetInCU: 0x16831, offset: 0x16831, size: 0x8, addend: 0x0, symName: __ZN4CKeyD2Ev, symObjAddr: 0x1770, symBinAddr: 0x100002AC0, symSize: 0x20 }
  - { offsetInCU: 0x1685D, offset: 0x1685D, size: 0x8, addend: 0x0, symName: __ZNSt3__110unique_ptrINS_5arrayIhLm32EEE19SecureUniqueDeleterIS2_EED1B7v160006Ev, symObjAddr: 0x1790, symBinAddr: 0x100002AE0, symSize: 0x20 }
  - { offsetInCU: 0x16887, offset: 0x16887, size: 0x8, addend: 0x0, symName: __ZNSt3__110unique_ptrINS_5arrayIhLm32EEE19SecureUniqueDeleterIS2_EED2B7v160006Ev, symObjAddr: 0x17B0, symBinAddr: 0x100002B00, symSize: 0x20 }
  - { offsetInCU: 0x168B1, offset: 0x168B1, size: 0x8, addend: 0x0, symName: __ZNSt3__110unique_ptrINS_5arrayIhLm32EEE19SecureUniqueDeleterIS2_EE5resetB7v160006EPS2_, symObjAddr: 0x17D0, symBinAddr: 0x100002B20, symSize: 0x70 }
  - { offsetInCU: 0x168F5, offset: 0x168F5, size: 0x8, addend: 0x0, symName: __ZNSt3__117__compressed_pairIPNS_5arrayIhLm32EEE19SecureUniqueDeleterIS2_EE5firstB7v160006Ev, symObjAddr: 0x1840, symBinAddr: 0x100002B90, symSize: 0x20 }
  - { offsetInCU: 0x1691B, offset: 0x1691B, size: 0x8, addend: 0x0, symName: __ZNSt3__117__compressed_pairIPNS_5arrayIhLm32EEE19SecureUniqueDeleterIS2_EE6secondB7v160006Ev, symObjAddr: 0x1860, symBinAddr: 0x100002BB0, symSize: 0x20 }
  - { offsetInCU: 0x16941, offset: 0x16941, size: 0x8, addend: 0x0, symName: __ZN19SecureUniqueDeleterINSt3__15arrayIhLm32EEEEclEPS2_, symObjAddr: 0x1880, symBinAddr: 0x100002BD0, symSize: 0x40 }
  - { offsetInCU: 0x16975, offset: 0x16975, size: 0x8, addend: 0x0, symName: __ZNSt3__122__compressed_pair_elemIPNS_5arrayIhLm32EEELi0ELb0EE5__getB7v160006Ev, symObjAddr: 0x18C0, symBinAddr: 0x100002C10, symSize: 0x10 }
  - { offsetInCU: 0x1699B, offset: 0x1699B, size: 0x8, addend: 0x0, symName: __ZNSt3__122__compressed_pair_elemI19SecureUniqueDeleterINS_5arrayIhLm32EEEELi1ELb1EE5__getB7v160006Ev, symObjAddr: 0x18D0, symBinAddr: 0x100002C20, symSize: 0x10 }
  - { offsetInCU: 0x16A1B, offset: 0x16A1B, size: 0x8, addend: 0x0, symName: __ZN16secure_allocatorINSt3__15arrayIhLm32EEEE10deallocateEPS2_m, symObjAddr: 0x18E0, symBinAddr: 0x100002C30, symSize: 0x50 }
  - { offsetInCU: 0x16A5C, offset: 0x16A5C, size: 0x8, addend: 0x0, symName: __ZNSt3__111char_traitsIcE6lengthEPKc, symObjAddr: 0x1B20, symBinAddr: 0x100002E70, symSize: 0x30 }
  - { offsetInCU: 0x16A9D, offset: 0x16A9D, size: 0x8, addend: 0x0, symName: __ZNKSt3__113basic_ostreamIcNS_11char_traitsIcEEE6sentrycvbB7v160006Ev, symObjAddr: 0x1B50, symBinAddr: 0x100002EA0, symSize: 0x20 }
  - { offsetInCU: 0x16AC3, offset: 0x16AC3, size: 0x8, addend: 0x0, symName: __ZNSt3__119ostreambuf_iteratorIcNS_11char_traitsIcEEEC1B7v160006ERNS_13basic_ostreamIcS2_EE, symObjAddr: 0x1D90, symBinAddr: 0x1000030E0, symSize: 0x30 }
  - { offsetInCU: 0x16AFB, offset: 0x16AFB, size: 0x8, addend: 0x0, symName: __ZNKSt3__18ios_base5flagsB7v160006Ev, symObjAddr: 0x1DC0, symBinAddr: 0x100003110, symSize: 0x20 }
  - { offsetInCU: 0x16B23, offset: 0x16B23, size: 0x8, addend: 0x0, symName: __ZNKSt3__19basic_iosIcNS_11char_traitsIcEEE4fillB7v160006Ev, symObjAddr: 0x1DE0, symBinAddr: 0x100003130, symSize: 0x70 }
  - { offsetInCU: 0x16B4B, offset: 0x16B4B, size: 0x8, addend: 0x0, symName: __ZNKSt3__119ostreambuf_iteratorIcNS_11char_traitsIcEEE6failedB7v160006Ev, symObjAddr: 0x1E50, symBinAddr: 0x1000031A0, symSize: 0x20 }
  - { offsetInCU: 0x16B71, offset: 0x16B71, size: 0x8, addend: 0x0, symName: __ZNSt3__19basic_iosIcNS_11char_traitsIcEEE8setstateB7v160006Ej, symObjAddr: 0x1E70, symBinAddr: 0x1000031C0, symSize: 0x30 }
  - { offsetInCU: 0x16BA6, offset: 0x16BA6, size: 0x8, addend: 0x0, symName: __ZNKSt3__18ios_base5widthB7v160006Ev, symObjAddr: 0x1EA0, symBinAddr: 0x1000031F0, symSize: 0x20 }
  - { offsetInCU: 0x16BCE, offset: 0x16BCE, size: 0x8, addend: 0x0, symName: __ZNSt3__115basic_streambufIcNS_11char_traitsIcEEE5sputnB7v160006EPKcl, symObjAddr: 0x1EC0, symBinAddr: 0x100003210, symSize: 0x30 }
  - { offsetInCU: 0x16C10, offset: 0x16C10, size: 0x8, addend: 0x0, symName: __ZNSt3__112basic_stringIcNS_11char_traitsIcEENS_9allocatorIcEEEC1B7v160006Emc, symObjAddr: 0x1EF0, symBinAddr: 0x100003240, symSize: 0x30 }
  - { offsetInCU: 0x16C58, offset: 0x16C58, size: 0x8, addend: 0x0, symName: __ZNSt3__112basic_stringIcNS_11char_traitsIcEENS_9allocatorIcEEE4dataB7v160006Ev, symObjAddr: 0x1F20, symBinAddr: 0x100003270, symSize: 0x30 }
  - { offsetInCU: 0x16C7E, offset: 0x16C7E, size: 0x8, addend: 0x0, symName: __ZNSt3__18ios_base5widthB7v160006El, symObjAddr: 0x1F50, symBinAddr: 0x1000032A0, symSize: 0x30 }
  - { offsetInCU: 0x16CC4, offset: 0x16CC4, size: 0x8, addend: 0x0, symName: __ZNSt3__112basic_stringIcNS_11char_traitsIcEENS_9allocatorIcEEEC2B7v160006Emc, symObjAddr: 0x1F80, symBinAddr: 0x1000032D0, symSize: 0x50 }
  - { offsetInCU: 0x16D11, offset: 0x16D11, size: 0x8, addend: 0x0, symName: __ZNSt3__117__compressed_pairINS_12basic_stringIcNS_11char_traitsIcEENS_9allocatorIcEEE5__repES5_EC1B7v160006INS_18__default_init_tagESA_EEOT_OT0_, symObjAddr: 0x1FD0, symBinAddr: 0x100003320, symSize: 0x30 }
  - { offsetInCU: 0x16D69, offset: 0x16D69, size: 0x8, addend: 0x0, symName: __ZNSt3__117__compressed_pairINS_12basic_stringIcNS_11char_traitsIcEENS_9allocatorIcEEE5__repES5_EC2B7v160006INS_18__default_init_tagESA_EEOT_OT0_, symObjAddr: 0x2010, symBinAddr: 0x100003360, symSize: 0x30 }
  - { offsetInCU: 0x16DC1, offset: 0x16DC1, size: 0x8, addend: 0x0, symName: __ZNSt3__122__compressed_pair_elemINS_12basic_stringIcNS_11char_traitsIcEENS_9allocatorIcEEE5__repELi0ELb0EEC2B7v160006ENS_18__default_init_tagE, symObjAddr: 0x2040, symBinAddr: 0x100003390, symSize: 0x10 }
  - { offsetInCU: 0x16DF6, offset: 0x16DF6, size: 0x8, addend: 0x0, symName: __ZNSt3__122__compressed_pair_elemINS_9allocatorIcEELi1ELb1EEC2B7v160006ENS_18__default_init_tagE, symObjAddr: 0x2050, symBinAddr: 0x1000033A0, symSize: 0x20 }
  - { offsetInCU: 0x16E2B, offset: 0x16E2B, size: 0x8, addend: 0x0, symName: __ZNSt3__19allocatorIcEC2B7v160006Ev, symObjAddr: 0x2070, symBinAddr: 0x1000033C0, symSize: 0x20 }
  - { offsetInCU: 0x16E55, offset: 0x16E55, size: 0x8, addend: 0x0, symName: __ZNSt3__116__non_trivial_ifILb1ENS_9allocatorIcEEEC2B7v160006Ev, symObjAddr: 0x2090, symBinAddr: 0x1000033E0, symSize: 0x10 }
  - { offsetInCU: 0x16E7F, offset: 0x16E7F, size: 0x8, addend: 0x0, symName: __ZNSt3__112basic_stringIcNS_11char_traitsIcEENS_9allocatorIcEEE13__get_pointerB7v160006Ev, symObjAddr: 0x20B0, symBinAddr: 0x100003400, symSize: 0x50 }
  - { offsetInCU: 0x16EA5, offset: 0x16EA5, size: 0x8, addend: 0x0, symName: __ZNKSt3__112basic_stringIcNS_11char_traitsIcEENS_9allocatorIcEEE9__is_longB7v160006Ev, symObjAddr: 0x2100, symBinAddr: 0x100003450, symSize: 0x30 }
  - { offsetInCU: 0x16ECB, offset: 0x16ECB, size: 0x8, addend: 0x0, symName: __ZNSt3__112basic_stringIcNS_11char_traitsIcEENS_9allocatorIcEEE18__get_long_pointerB7v160006Ev, symObjAddr: 0x2130, symBinAddr: 0x100003480, symSize: 0x20 }
  - { offsetInCU: 0x16EF1, offset: 0x16EF1, size: 0x8, addend: 0x0, symName: __ZNSt3__112basic_stringIcNS_11char_traitsIcEENS_9allocatorIcEEE19__get_short_pointerB7v160006Ev, symObjAddr: 0x2150, symBinAddr: 0x1000034A0, symSize: 0x30 }
  - { offsetInCU: 0x16F17, offset: 0x16F17, size: 0x8, addend: 0x0, symName: __ZNKSt3__117__compressed_pairINS_12basic_stringIcNS_11char_traitsIcEENS_9allocatorIcEEE5__repES5_E5firstB7v160006Ev, symObjAddr: 0x2180, symBinAddr: 0x1000034D0, symSize: 0x20 }
  - { offsetInCU: 0x16F3D, offset: 0x16F3D, size: 0x8, addend: 0x0, symName: __ZNKSt3__122__compressed_pair_elemINS_12basic_stringIcNS_11char_traitsIcEENS_9allocatorIcEEE5__repELi0ELb0EE5__getB7v160006Ev, symObjAddr: 0x21A0, symBinAddr: 0x1000034F0, symSize: 0x10 }
  - { offsetInCU: 0x16F63, offset: 0x16F63, size: 0x8, addend: 0x0, symName: __ZNSt3__117__compressed_pairINS_12basic_stringIcNS_11char_traitsIcEENS_9allocatorIcEEE5__repES5_E5firstB7v160006Ev, symObjAddr: 0x21B0, symBinAddr: 0x100003500, symSize: 0x20 }
  - { offsetInCU: 0x16F89, offset: 0x16F89, size: 0x8, addend: 0x0, symName: __ZNSt3__122__compressed_pair_elemINS_12basic_stringIcNS_11char_traitsIcEENS_9allocatorIcEEE5__repELi0ELb0EE5__getB7v160006Ev, symObjAddr: 0x21D0, symBinAddr: 0x100003520, symSize: 0x10 }
  - { offsetInCU: 0x16FAE, offset: 0x16FAE, size: 0x8, addend: 0x0, symName: __ZNSt3__114pointer_traitsIPcE10pointer_toB7v160006ERc, symObjAddr: 0x21E0, symBinAddr: 0x100003530, symSize: 0x10 }
  - { offsetInCU: 0x16FD1, offset: 0x16FD1, size: 0x8, addend: 0x0, symName: __ZNSt3__119ostreambuf_iteratorIcNS_11char_traitsIcEEEC2B7v160006ERNS_13basic_ostreamIcS2_EE, symObjAddr: 0x21F0, symBinAddr: 0x100003540, symSize: 0x50 }
  - { offsetInCU: 0x17009, offset: 0x17009, size: 0x8, addend: 0x0, symName: __ZNKSt3__19basic_iosIcNS_11char_traitsIcEEE5rdbufB7v160006Ev, symObjAddr: 0x2240, symBinAddr: 0x100003590, symSize: 0x20 }
  - { offsetInCU: 0x17031, offset: 0x17031, size: 0x8, addend: 0x0, symName: __ZNKSt3__18ios_base5rdbufB7v160006Ev, symObjAddr: 0x2260, symBinAddr: 0x1000035B0, symSize: 0x20 }
  - { offsetInCU: 0x17056, offset: 0x17056, size: 0x8, addend: 0x0, symName: __ZNSt3__111char_traitsIcE11eq_int_typeEii, symObjAddr: 0x2280, symBinAddr: 0x1000035D0, symSize: 0x20 }
  - { offsetInCU: 0x17087, offset: 0x17087, size: 0x8, addend: 0x0, symName: __ZNSt3__111char_traitsIcE3eofEv, symObjAddr: 0x22A0, symBinAddr: 0x1000035F0, symSize: 0x10 }
  - { offsetInCU: 0x1709B, offset: 0x1709B, size: 0x8, addend: 0x0, symName: __ZNKSt3__19basic_iosIcNS_11char_traitsIcEEE5widenB7v160006Ec, symObjAddr: 0x22B0, symBinAddr: 0x100003600, symSize: 0x80 }
  - { offsetInCU: 0x17104, offset: 0x17104, size: 0x8, addend: 0x0, symName: __ZNKSt3__15ctypeIcE5widenB7v160006Ec, symObjAddr: 0x2360, symBinAddr: 0x1000036B0, symSize: 0x30 }
  - { offsetInCU: 0x17139, offset: 0x17139, size: 0x8, addend: 0x0, symName: __ZNSt3__18ios_base8setstateB7v160006Ej, symObjAddr: 0x2390, symBinAddr: 0x1000036E0, symSize: 0x30 }
  - { offsetInCU: 0x17170, offset: 0x17170, size: 0x8, addend: 0x0, symName: __ZN4CKey12ClearKeyDataEv, symObjAddr: 0x23E0, symBinAddr: 0x100003730, symSize: 0x30 }
  - { offsetInCU: 0x17195, offset: 0x17195, size: 0x8, addend: 0x0, symName: __Z9UCharCastPh, symObjAddr: 0x2410, symBinAddr: 0x100003760, symSize: 0x10 }
  - { offsetInCU: 0x171C2, offset: 0x171C2, size: 0x8, addend: 0x0, symName: __ZN4CKey11MakeKeyDataEv, symObjAddr: 0x2420, symBinAddr: 0x100003770, symSize: 0x50 }
  - { offsetInCU: 0x171E8, offset: 0x171E8, size: 0x8, addend: 0x0, symName: __ZNKSt3__110unique_ptrINS_5arrayIhLm32EEE19SecureUniqueDeleterIS2_EEptB7v160006Ev, symObjAddr: 0x2470, symBinAddr: 0x1000037C0, symSize: 0x20 }
  - { offsetInCU: 0x1720E, offset: 0x1720E, size: 0x8, addend: 0x0, symName: __ZNSt3__15arrayIhLm32EE4dataB7v160006Ev, symObjAddr: 0x2490, symBinAddr: 0x1000037E0, symSize: 0x10 }
  - { offsetInCU: 0x17234, offset: 0x17234, size: 0x8, addend: 0x0, symName: __ZNKSt3__15arrayIhLm32EE4sizeB7v160006Ev, symObjAddr: 0x24A0, symBinAddr: 0x1000037F0, symSize: 0x10 }
  - { offsetInCU: 0x17259, offset: 0x17259, size: 0x8, addend: 0x0, symName: __Z18make_secure_uniqueINSt3__15arrayIhLm32EEEJEENS0_10unique_ptrIT_19SecureUniqueDeleterIS4_EEEDpOT0_, symObjAddr: 0x24B0, symBinAddr: 0x100003800, symSize: 0x60 }
  - { offsetInCU: 0x17295, offset: 0x17295, size: 0x8, addend: 0x0, symName: __ZNSt3__110unique_ptrINS_5arrayIhLm32EEE19SecureUniqueDeleterIS2_EEaSB7v160006EOS5_, symObjAddr: 0x2510, symBinAddr: 0x100003860, symSize: 0x50 }
  - { offsetInCU: 0x172C9, offset: 0x172C9, size: 0x8, addend: 0x0, symName: __ZN16secure_allocatorINSt3__15arrayIhLm32EEEE8allocateEm, symObjAddr: 0x2560, symBinAddr: 0x1000038B0, symSize: 0x70 }
  - { offsetInCU: 0x1730C, offset: 0x1730C, size: 0x8, addend: 0x0, symName: __ZNSt3__110unique_ptrINS_5arrayIhLm32EEE19SecureUniqueDeleterIS2_EEC1B7v160006ILb1EvEEPS2_, symObjAddr: 0x25D0, symBinAddr: 0x100003920, symSize: 0x30 }
  - { offsetInCU: 0x1734F, offset: 0x1734F, size: 0x8, addend: 0x0, symName: __ZNSt3__110unique_ptrINS_5arrayIhLm32EEE19SecureUniqueDeleterIS2_EEC2B7v160006ILb1EvEEPS2_, symObjAddr: 0x2600, symBinAddr: 0x100003950, symSize: 0x40 }
  - { offsetInCU: 0x17392, offset: 0x17392, size: 0x8, addend: 0x0, symName: __ZNSt3__117__compressed_pairIPNS_5arrayIhLm32EEE19SecureUniqueDeleterIS2_EEC1B7v160006IRS3_NS_16__value_init_tagEEEOT_OT0_, symObjAddr: 0x2640, symBinAddr: 0x100003990, symSize: 0x30 }
  - { offsetInCU: 0x173EA, offset: 0x173EA, size: 0x8, addend: 0x0, symName: __ZNSt3__117__compressed_pairIPNS_5arrayIhLm32EEE19SecureUniqueDeleterIS2_EEC2B7v160006IRS3_NS_16__value_init_tagEEEOT_OT0_, symObjAddr: 0x2670, symBinAddr: 0x1000039C0, symSize: 0x40 }
  - { offsetInCU: 0x17442, offset: 0x17442, size: 0x8, addend: 0x0, symName: __ZNSt3__122__compressed_pair_elemIPNS_5arrayIhLm32EEELi0ELb0EEC2B7v160006IRS3_vEEOT_, symObjAddr: 0x26B0, symBinAddr: 0x100003A00, symSize: 0x20 }
  - { offsetInCU: 0x17484, offset: 0x17484, size: 0x8, addend: 0x0, symName: __ZNSt3__110unique_ptrINS_5arrayIhLm32EEE19SecureUniqueDeleterIS2_EE7releaseB7v160006Ev, symObjAddr: 0x26D0, symBinAddr: 0x100003A20, symSize: 0x40 }
  - { offsetInCU: 0x174B9, offset: 0x174B9, size: 0x8, addend: 0x0, symName: __ZNSt3__110unique_ptrINS_5arrayIhLm32EEE19SecureUniqueDeleterIS2_EE11get_deleterB7v160006Ev, symObjAddr: 0x2710, symBinAddr: 0x100003A60, symSize: 0x1B }
  - { offsetInCU: 0xA83, offset: 0x18047, size: 0x8, addend: 0x0, symName: __ZNSt3__1L19piecewise_constructE, symObjAddr: 0x328C7, symBinAddr: 0x1000F4EDD, symSize: 0x0 }
  - { offsetInCU: 0xFE95, offset: 0x27459, size: 0x8, addend: 0x0, symName: __ZNSt3__17advanceB7v160006IPKhllvEEvRT_T0_, symObjAddr: 0xAF30, symBinAddr: 0x10000D7B0, symSize: 0x50 }
  - { offsetInCU: 0x101A0, offset: 0x27764, size: 0x8, addend: 0x0, symName: __ZNSt3__17advanceB7v160006IPhllvEEvRT_T0_, symObjAddr: 0xF0B0, symBinAddr: 0x100011930, symSize: 0x50 }
  - { offsetInCU: 0x11DE9, offset: 0x293AD, size: 0x8, addend: 0x0, symName: __ZNSt3__17advanceB7v160006IPNS_6vectorIhNS_9allocatorIhEEEEllvEEvRT_T0_, symObjAddr: 0x10030, symBinAddr: 0x1000128B0, symSize: 0x50 }
  - { offsetInCU: 0x1206A, offset: 0x2962E, size: 0x8, addend: 0x0, symName: __ZNSt3__17advanceB7v160006INS_16reverse_iteratorIPNS_6vectorIhNS_9allocatorIhEEEEEEllvEEvRT_T0_, symObjAddr: 0x10480, symBinAddr: 0x100012D00, symSize: 0x50 }
  - { offsetInCU: 0x16E2E, offset: 0x2E3F2, size: 0x8, addend: 0x0, symName: __ZNSt3__17advanceB7v160006IP5CTxInllvEEvRT_T0_, symObjAddr: 0x132A0, symBinAddr: 0x100015B20, symSize: 0x50 }
  - { offsetInCU: 0x170AF, offset: 0x2E673, size: 0x8, addend: 0x0, symName: __ZNSt3__17advanceB7v160006INS_16reverse_iteratorIP5CTxInEEllvEEvRT_T0_, symObjAddr: 0x136F0, symBinAddr: 0x100015F70, symSize: 0x50 }
  - { offsetInCU: 0x1934E, offset: 0x30912, size: 0x8, addend: 0x0, symName: __ZNSt3__17advanceB7v160006IP15CQuantumKeyPairllvEEvRT_T0_, symObjAddr: 0x14B10, symBinAddr: 0x100017390, symSize: 0x50 }
  - { offsetInCU: 0x195CF, offset: 0x30B93, size: 0x8, addend: 0x0, symName: __ZNSt3__17advanceB7v160006INS_16reverse_iteratorIP15CQuantumKeyPairEEllvEEvRT_T0_, symObjAddr: 0x14F60, symBinAddr: 0x1000177E0, symSize: 0x50 }
  - { offsetInCU: 0x1CB25, offset: 0x340E9, size: 0x8, addend: 0x0, symName: __ZNSt3__17advanceB7v160006IP6CTxOutllvEEvRT_T0_, symObjAddr: 0x18340, symBinAddr: 0x10001AB60, symSize: 0x50 }
  - { offsetInCU: 0x1CDA6, offset: 0x3436A, size: 0x8, addend: 0x0, symName: __ZNSt3__17advanceB7v160006INS_16reverse_iteratorIP6CTxOutEEllvEEvRT_T0_, symObjAddr: 0x18790, symBinAddr: 0x10001AFB0, symSize: 0x50 }
  - { offsetInCU: 0x1CE12, offset: 0x343D6, size: 0x8, addend: 0x0, symName: __ZNSt3__17advanceB7v160006IP5CTxInmmvEEvRT_T0_, symObjAddr: 0x18D00, symBinAddr: 0x10001B520, symSize: 0x50 }
  - { offsetInCU: 0x1CFC0, offset: 0x34584, size: 0x8, addend: 0x0, symName: __ZNSt3__17advanceB7v160006IP6CTxOutmmvEEvRT_T0_, symObjAddr: 0x19B70, symBinAddr: 0x10001C390, symSize: 0x50 }
  - { offsetInCU: 0x1D5A6, offset: 0x34B6A, size: 0x8, addend: 0x0, symName: __ZNSt3__17advanceB7v160006IPhmmvEEvRT_T0_, symObjAddr: 0x1E210, symBinAddr: 0x1000209A0, symSize: 0x50 }
  - { offsetInCU: 0x1EDF5, offset: 0x363B9, size: 0x8, addend: 0x0, symName: __ZNSt3__17advanceB7v160006IP7uint256mmvEEvRT_T0_, symObjAddr: 0x1E720, symBinAddr: 0x100020EB0, symSize: 0x50 }
  - { offsetInCU: 0x1F1BF, offset: 0x36783, size: 0x8, addend: 0x0, symName: __ZNSt3__17advanceB7v160006IP7uint256llvEEvRT_T0_, symObjAddr: 0x1F680, symBinAddr: 0x100021E10, symSize: 0x50 }
  - { offsetInCU: 0x1F22B, offset: 0x367EF, size: 0x8, addend: 0x0, symName: __ZNSt3__17advanceB7v160006IP8CQPubKeymmvEEvRT_T0_, symObjAddr: 0x1FDF0, symBinAddr: 0x100022580, symSize: 0x50 }
  - { offsetInCU: 0x1F3D9, offset: 0x3699D, size: 0x8, addend: 0x0, symName: __ZNSt3__17advanceB7v160006IP8CQPubKeyllvEEvRT_T0_, symObjAddr: 0x20AD0, symBinAddr: 0x100023260, symSize: 0x50 }
  - { offsetInCU: 0x1F445, offset: 0x36A09, size: 0x8, addend: 0x0, symName: __ZNSt3__17advanceB7v160006IP7uint160mmvEEvRT_T0_, symObjAddr: 0x20EA0, symBinAddr: 0x100023630, symSize: 0x50 }
  - { offsetInCU: 0x1F5F3, offset: 0x36BB7, size: 0x8, addend: 0x0, symName: __ZNSt3__17advanceB7v160006IP7uint160llvEEvRT_T0_, symObjAddr: 0x21B70, symBinAddr: 0x100024300, symSize: 0x50 }
  - { offsetInCU: 0x1F65F, offset: 0x36C23, size: 0x8, addend: 0x0, symName: __ZNSt3__17advanceB7v160006IPNS_6vectorIhNS_9allocatorIhEEEEmmvEEvRT_T0_, symObjAddr: 0x22070, symBinAddr: 0x100024800, symSize: 0x50 }
  - { offsetInCU: 0x24A45, offset: 0x3C009, size: 0x8, addend: 0x0, symName: __ZNSt3__13minB7v160006ImEERKT_S3_S3_, symObjAddr: 0x13C0, symBinAddr: 0x100004C90, symSize: 0x30 }
  - { offsetInCU: 0x24AA6, offset: 0x3C06A, size: 0x8, addend: 0x0, symName: __ZNSt3__1neB7v160006IPK8CQPubKeyEEbRKNS_11__wrap_iterIT_EES8_, symObjAddr: 0x3D10, symBinAddr: 0x1000075D0, symSize: 0x30 }
  - { offsetInCU: 0x24AF3, offset: 0x3C0B7, size: 0x8, addend: 0x0, symName: __ZNSt3__1plB7v160006IcNS_11char_traitsIcEENS_9allocatorIcEEEENS_12basic_stringIT_T0_T1_EEPKS6_OS9_, symObjAddr: 0x5DC0, symBinAddr: 0x100009680, symSize: 0x50 }
  - { offsetInCU: 0x24B4B, offset: 0x3C10F, size: 0x8, addend: 0x0, symName: __ZNSt3__1plB7v160006IcNS_11char_traitsIcEENS_9allocatorIcEEEENS_12basic_stringIT_T0_T1_EEOS9_PKS6_, symObjAddr: 0x5E70, symBinAddr: 0x100009730, symSize: 0x50 }
  - { offsetInCU: 0x24BA3, offset: 0x3C167, size: 0x8, addend: 0x0, symName: __ZNSt3__1neB7v160006IP5CTxInEEbRKNS_11__wrap_iterIT_EES7_, symObjAddr: 0x6150, symBinAddr: 0x100009A10, symSize: 0x30 }
  - { offsetInCU: 0x24BE6, offset: 0x3C1AA, size: 0x8, addend: 0x0, symName: __ZNSt3__1neB7v160006IPKxEEbRKNS_11__wrap_iterIT_EES7_, symObjAddr: 0x6510, symBinAddr: 0x100009DD0, symSize: 0x30 }
  - { offsetInCU: 0x24C29, offset: 0x3C1ED, size: 0x8, addend: 0x0, symName: __ZNSt3__1neB7v160006IPK6CTxOutEEbRKNS_11__wrap_iterIT_EES8_, symObjAddr: 0x6670, symBinAddr: 0x100009F30, symSize: 0x30 }
  - { offsetInCU: 0x24C6C, offset: 0x3C230, size: 0x8, addend: 0x0, symName: __ZNSt3__1neB7v160006INS_6vectorIhNS_9allocatorIhEEEENS2_IS4_EEEEbRKNS1_IT_T0_EESA_, symObjAddr: 0x6BE0, symBinAddr: 0x10000A4A0, symSize: 0x30 }
  - { offsetInCU: 0x27664, offset: 0x3EC28, size: 0x8, addend: 0x0, symName: __ZNSt3__1neB7v160006ERKNS_14__map_iteratorINS_15__tree_iteratorINS_12__value_typeI7uint160mEEPNS_11__tree_nodeIS4_PvEElEEEESC_, symObjAddr: 0x7840, symBinAddr: 0x10000B100, symSize: 0x30 }
  - { offsetInCU: 0x276A1, offset: 0x3EC65, size: 0x8, addend: 0x0, symName: __ZNSt3__1eqB7v160006ERKNS_20__map_const_iteratorINS_21__tree_const_iteratorINS_12__value_typeI7uint160mEEPNS_11__tree_nodeIS4_PvEElEEEESC_, symObjAddr: 0x7A20, symBinAddr: 0x10000B2E0, symSize: 0x30 }
  - { offsetInCU: 0x276DE, offset: 0x3ECA2, size: 0x8, addend: 0x0, symName: __ZNSt3__1neB7v160006IPK15CQuantumKeyPairEEbRKNS_11__wrap_iterIT_EES8_, symObjAddr: 0x7D40, symBinAddr: 0x10000B600, symSize: 0x30 }
  - { offsetInCU: 0x27721, offset: 0x3ECE5, size: 0x8, addend: 0x0, symName: __ZNSt3__1neB7v160006IPK9COutPointEEbRKNS_11__wrap_iterIT_EES8_, symObjAddr: 0x81C0, symBinAddr: 0x10000BA80, symSize: 0x30 }
  - { offsetInCU: 0x27764, offset: 0x3ED28, size: 0x8, addend: 0x0, symName: __ZNSt3__1neB7v160006IPKNS_4pairI7uint160xEEEEbRKNS_11__wrap_iterIT_EESA_, symObjAddr: 0x82D0, symBinAddr: 0x10000BB90, symSize: 0x30 }
  - { offsetInCU: 0x286E4, offset: 0x3FCA8, size: 0x8, addend: 0x0, symName: __ZNSt3__111make_uniqueB7v160006I8CQPubKeyJRS1_EEENS_11__unique_ifIT_E15__unique_singleEDpOT0_, symObjAddr: 0xA440, symBinAddr: 0x10000CEC0, symSize: 0x60 }
  - { offsetInCU: 0x28726, offset: 0x3FCEA, size: 0x8, addend: 0x0, symName: __ZNSt3__110to_addressB7v160006IKhEEDaPT_, symObjAddr: 0xA930, symBinAddr: 0x10000D380, symSize: 0x20 }
  - { offsetInCU: 0x2875B, offset: 0x3FD1F, size: 0x8, addend: 0x0, symName: __ZNSt3__112__to_addressB7v160006IKhEEPT_S3_, symObjAddr: 0xA950, symBinAddr: 0x10000D3A0, symSize: 0x10 }
  - { offsetInCU: 0x28790, offset: 0x3FD54, size: 0x8, addend: 0x0, symName: __ZNSt3__13minB7v160006ImNS_6__lessImmEEEERKT_S5_S5_T0_, symObjAddr: 0xAAE0, symBinAddr: 0x10000D480, symSize: 0x50 }
  - { offsetInCU: 0x28825, offset: 0x3FDE9, size: 0x8, addend: 0x0, symName: __ZNSt3__119__debug_db_insert_cB7v160006INS_6vectorIhNS_9allocatorIhEEEEEEvPT_, symObjAddr: 0xADB0, symBinAddr: 0x10000D630, symSize: 0x10 }
  - { offsetInCU: 0x28856, offset: 0x3FE1A, size: 0x8, addend: 0x0, symName: __ZNSt3__1miB7v160006IPKhPhEEDTmicldtfp_4baseEcldtfp0_4baseEERKNS_11__wrap_iterIT_EERKNS5_IT0_EE, symObjAddr: 0xAE70, symBinAddr: 0x10000D6F0, symSize: 0x40 }
  - { offsetInCU: 0x288A2, offset: 0x3FE66, size: 0x8, addend: 0x0, symName: __ZNSt3__18distanceB7v160006IPKhEENS_15iterator_traitsIT_E15difference_typeES4_S4_, symObjAddr: 0xAEE0, symBinAddr: 0x10000D760, symSize: 0x30 }
  - { offsetInCU: 0x288E5, offset: 0x3FEA9, size: 0x8, addend: 0x0, symName: __ZNSt3__14copyB7v160006IPKhPhEET0_T_S5_S4_, symObjAddr: 0xB120, symBinAddr: 0x10000D9A0, symSize: 0x40 }
  - { offsetInCU: 0x2893F, offset: 0x3FF03, size: 0x8, addend: 0x0, symName: __ZNSt3__110__distanceB7v160006IPKhEENS_15iterator_traitsIT_E15difference_typeES4_S4_NS_26random_access_iterator_tagE, symObjAddr: 0xB530, symBinAddr: 0x10000DDB0, symSize: 0x20 }
  - { offsetInCU: 0x2898D, offset: 0x3FF51, size: 0x8, addend: 0x0, symName: __ZNSt3__121__convert_to_integralB7v160006El, symObjAddr: 0xB580, symBinAddr: 0x10000DE00, symSize: 0x10 }
  - { offsetInCU: 0x289B9, offset: 0x3FF7D, size: 0x8, addend: 0x0, symName: __ZNSt3__19__advanceB7v160006IPKhEEvRT_NS_15iterator_traitsIS3_E15difference_typeENS_26random_access_iterator_tagE, symObjAddr: 0xB590, symBinAddr: 0x10000DE10, symSize: 0x20 }
  - { offsetInCU: 0x28A03, offset: 0x3FFC7, size: 0x8, addend: 0x0, symName: __ZNSt3__130__uninitialized_allocator_copyB7v160006INS_9allocatorIhEEhhLPv0EEEPT0_RT_PKS4_S9_S5_, symObjAddr: 0xB5E0, symBinAddr: 0x10000DE60, symSize: 0x30 }
  - { offsetInCU: 0x28A7C, offset: 0x40040, size: 0x8, addend: 0x0, symName: __ZNSt3__113move_backwardB7v160006IPhS1_EET0_T_S3_S2_, symObjAddr: 0xB6C0, symBinAddr: 0x10000DF40, symSize: 0x40 }
  - { offsetInCU: 0x28AFD, offset: 0x400C1, size: 0x8, addend: 0x0, symName: __ZNSt3__112construct_atB7v160006IhJhEPhEEPT_S3_DpOT0_, symObjAddr: 0xB700, symBinAddr: 0x10000DF80, symSize: 0x30 }
  - { offsetInCU: 0x28B6F, offset: 0x40133, size: 0x8, addend: 0x0, symName: __ZNSt3__115__move_backwardB7v160006INS_17_ClassicAlgPolicyEPhS2_S2_EENS_4pairIT0_T2_EES4_T1_S5_, symObjAddr: 0xB730, symBinAddr: 0x10000DFB0, symSize: 0x40 }
  - { offsetInCU: 0x28BDB, offset: 0x4019F, size: 0x8, addend: 0x0, symName: __ZNSt3__123__dispatch_copy_or_moveB7v160006INS_17_ClassicAlgPolicyENS_20__move_backward_loopIS1_EENS_23__move_backward_trivialEPhS5_S5_EENS_4pairIT2_T4_EES7_T3_S8_, symObjAddr: 0xB770, symBinAddr: 0x10000DFF0, symSize: 0x40 }
  - { offsetInCU: 0x28C59, offset: 0x4021D, size: 0x8, addend: 0x0, symName: __ZNSt3__121__unwrap_and_dispatchB7v160006INS_10__overloadINS_20__move_backward_loopINS_17_ClassicAlgPolicyEEENS_23__move_backward_trivialEEEPhS7_S7_Li0EEENS_4pairIT0_T2_EES9_T1_SA_, symObjAddr: 0xB7B0, symBinAddr: 0x10000E030, symSize: 0xB0 }
  - { offsetInCU: 0x28CEA, offset: 0x402AE, size: 0x8, addend: 0x0, symName: __ZNSt3__114__unwrap_rangeB7v160006IPhS1_EEDaT_T0_, symObjAddr: 0xB860, symBinAddr: 0x10000E0E0, symSize: 0x40 }
  - { offsetInCU: 0x28EAE, offset: 0x40472, size: 0x8, addend: 0x0, symName: __ZNSt3__113__unwrap_iterB7v160006IPhNS_18__unwrap_iter_implIS1_Lb1EEELi0EEEDTclsrT0_8__unwrapclsr3stdE7declvalIT_EEEES5_, symObjAddr: 0xB8E0, symBinAddr: 0x10000E160, symSize: 0x20 }
  - { offsetInCU: 0x28EF2, offset: 0x404B6, size: 0x8, addend: 0x0, symName: __ZNSt3__19make_pairB7v160006IPhS1_EENS_4pairINS_18__unwrap_ref_decayIT_E4typeENS3_IT0_E4typeEEEOS4_OS7_, symObjAddr: 0xB900, symBinAddr: 0x10000E180, symSize: 0x30 }
  - { offsetInCU: 0x28F41, offset: 0x40505, size: 0x8, addend: 0x0, symName: __ZNSt3__114__rewrap_rangeB7v160006IPhS1_S1_EET0_S2_T1_, symObjAddr: 0xB930, symBinAddr: 0x10000E1B0, symSize: 0x30 }
  - { offsetInCU: 0x28F96, offset: 0x4055A, size: 0x8, addend: 0x0, symName: __ZNSt3__113__rewrap_iterB7v160006IPhS1_NS_18__unwrap_iter_implIS1_Lb1EEEEET_S4_T0_, symObjAddr: 0xB960, symBinAddr: 0x10000E1E0, symSize: 0x40 }
  - { offsetInCU: 0x2903B, offset: 0x405FF, size: 0x8, addend: 0x0, symName: __ZNSt3__128__copy_backward_trivial_implB7v160006IhhEENS_4pairIPT_PT0_EES3_S3_S5_, symObjAddr: 0xBA50, symBinAddr: 0x10000E2D0, symSize: 0x70 }
  - { offsetInCU: 0x290A4, offset: 0x40668, size: 0x8, addend: 0x0, symName: __ZNSt3__19make_pairB7v160006IRPhS2_EENS_4pairINS_18__unwrap_ref_decayIT_E4typeENS4_IT0_E4typeEEEOS5_OS8_, symObjAddr: 0xBAC0, symBinAddr: 0x10000E340, symSize: 0x30 }
  - { offsetInCU: 0x29146, offset: 0x4070A, size: 0x8, addend: 0x0, symName: __ZNSt3__16__copyB7v160006INS_17_ClassicAlgPolicyEPKhS3_PhEENS_4pairIT0_T2_EES6_T1_S7_, symObjAddr: 0xBBE0, symBinAddr: 0x10000E460, symSize: 0x40 }
  - { offsetInCU: 0x291B2, offset: 0x40776, size: 0x8, addend: 0x0, symName: __ZNSt3__123__dispatch_copy_or_moveB7v160006INS_17_ClassicAlgPolicyENS_11__copy_loopIS1_EENS_14__copy_trivialEPKhS6_PhEENS_4pairIT2_T4_EES9_T3_SA_, symObjAddr: 0xBC20, symBinAddr: 0x10000E4A0, symSize: 0x40 }
  - { offsetInCU: 0x29230, offset: 0x407F4, size: 0x8, addend: 0x0, symName: __ZNSt3__121__unwrap_and_dispatchB7v160006INS_10__overloadINS_11__copy_loopINS_17_ClassicAlgPolicyEEENS_14__copy_trivialEEEPKhS8_PhLi0EEENS_4pairIT0_T2_EESB_T1_SC_, symObjAddr: 0xBC60, symBinAddr: 0x10000E4E0, symSize: 0xB0 }
  - { offsetInCU: 0x292C1, offset: 0x40885, size: 0x8, addend: 0x0, symName: __ZNSt3__114__unwrap_rangeB7v160006IPKhS2_EEDaT_T0_, symObjAddr: 0xBD10, symBinAddr: 0x10000E590, symSize: 0x40 }
  - { offsetInCU: 0x29546, offset: 0x40B0A, size: 0x8, addend: 0x0, symName: __ZNSt3__19make_pairB7v160006IPKhPhEENS_4pairINS_18__unwrap_ref_decayIT_E4typeENS5_IT0_E4typeEEEOS6_OS9_, symObjAddr: 0xBD90, symBinAddr: 0x10000E610, symSize: 0x30 }
  - { offsetInCU: 0x29595, offset: 0x40B59, size: 0x8, addend: 0x0, symName: __ZNSt3__114__rewrap_rangeB7v160006IPKhS2_S2_EET0_S3_T1_, symObjAddr: 0xBDC0, symBinAddr: 0x10000E640, symSize: 0x30 }
  - { offsetInCU: 0x29706, offset: 0x40CCA, size: 0x8, addend: 0x0, symName: __ZNSt3__113__unwrap_iterB7v160006IPKhNS_18__unwrap_iter_implIS2_Lb1EEELi0EEEDTclsrT0_8__unwrapclsr3stdE7declvalIT_EEEES6_, symObjAddr: 0xBE40, symBinAddr: 0x10000E6C0, symSize: 0x20 }
  - { offsetInCU: 0x2979D, offset: 0x40D61, size: 0x8, addend: 0x0, symName: __ZNSt3__119__copy_trivial_implB7v160006IKhhEENS_4pairIPT_PT0_EES4_S4_S6_, symObjAddr: 0xBEE0, symBinAddr: 0x10000E760, symSize: 0x70 }
  - { offsetInCU: 0x29806, offset: 0x40DCA, size: 0x8, addend: 0x0, symName: __ZNSt3__19make_pairB7v160006IRPKhPhEENS_4pairINS_18__unwrap_ref_decayIT_E4typeENS6_IT0_E4typeEEEOS7_OSA_, symObjAddr: 0xBF50, symBinAddr: 0x10000E7D0, symSize: 0x30 }
  - { offsetInCU: 0x29855, offset: 0x40E19, size: 0x8, addend: 0x0, symName: __ZNSt3__113__rewrap_iterB7v160006IPKhS2_NS_18__unwrap_iter_implIS2_Lb1EEEEET_S5_T0_, symObjAddr: 0xC070, symBinAddr: 0x10000E8F0, symSize: 0x40 }
  - { offsetInCU: 0x298AA, offset: 0x40E6E, size: 0x8, addend: 0x0, symName: __ZNSt3__13maxB7v160006ImEERKT_S3_S3_, symObjAddr: 0xC1D0, symBinAddr: 0x10000EA50, symSize: 0x30 }
  - { offsetInCU: 0x29CC6, offset: 0x4128A, size: 0x8, addend: 0x0, symName: __ZNSt3__120__throw_length_errorB7v160006EPKc, symObjAddr: 0xC2B0, symBinAddr: 0x10000EB30, symSize: 0x70 }
  - { offsetInCU: 0x29CEE, offset: 0x412B2, size: 0x8, addend: 0x0, symName: __ZNSt3__13maxB7v160006ImNS_6__lessImmEEEERKT_S5_S5_T0_, symObjAddr: 0xC3E0, symBinAddr: 0x10000EC60, symSize: 0x50 }
  - { offsetInCU: 0x29D48, offset: 0x4130C, size: 0x8, addend: 0x0, symName: __ZNSt3__119__allocate_at_leastB7v160006INS_9allocatorIhEEEENS_19__allocation_resultINS_16allocator_traitsIT_E7pointerEEERS5_m, symObjAddr: 0xC520, symBinAddr: 0x10000EDA0, symSize: 0x40 }
  - { offsetInCU: 0x29D8B, offset: 0x4134F, size: 0x8, addend: 0x0, symName: __ZNSt3__117__libcpp_allocateB7v160006Emm, symObjAddr: 0xC690, symBinAddr: 0x10000EF10, symSize: 0x60 }
  - { offsetInCU: 0x29DE5, offset: 0x413A9, size: 0x8, addend: 0x0, symName: __ZNSt3__124__is_overaligned_for_newB7v160006Em, symObjAddr: 0xC6F0, symBinAddr: 0x10000EF70, symSize: 0x20 }
  - { offsetInCU: 0x29E13, offset: 0x413D7, size: 0x8, addend: 0x0, symName: __ZNSt3__121__libcpp_operator_newB7v160006IJmSt11align_val_tEEEPvDpT_, symObjAddr: 0xC710, symBinAddr: 0x10000EF90, symSize: 0x30 }
  - { offsetInCU: 0x29E60, offset: 0x41424, size: 0x8, addend: 0x0, symName: __ZNSt3__121__libcpp_operator_newB7v160006IJmEEEPvDpT_, symObjAddr: 0xC740, symBinAddr: 0x10000EFC0, symSize: 0x20 }
  - { offsetInCU: 0x29E99, offset: 0x4145D, size: 0x8, addend: 0x0, symName: __ZNSt3__112construct_atB7v160006IhJRKhEPhEEPT_S5_DpOT0_, symObjAddr: 0xC880, symBinAddr: 0x10000F100, symSize: 0x30 }
  - { offsetInCU: 0x29F0B, offset: 0x414CF, size: 0x8, addend: 0x0, symName: __ZNSt3__142__uninitialized_allocator_move_if_noexceptB7v160006INS_9allocatorIhEENS_16reverse_iteratorIPhEES5_hvEET1_RT_T0_S9_S6_, symObjAddr: 0xC970, symBinAddr: 0x10000F1F0, symSize: 0x70 }
  - { offsetInCU: 0x29F88, offset: 0x4154C, size: 0x8, addend: 0x0, symName: __ZNSt3__142__uninitialized_allocator_move_if_noexceptB7v160006INS_9allocatorIhEEPhS3_hvEET1_RT_T0_S7_S4_, symObjAddr: 0xCA30, symBinAddr: 0x10000F2B0, symSize: 0x30 }
  - { offsetInCU: 0x2A005, offset: 0x415C9, size: 0x8, addend: 0x0, symName: __ZNSt3__14swapB7v160006IPhEENS_9enable_ifIXaasr21is_move_constructibleIT_EE5valuesr18is_move_assignableIS3_EE5valueEvE4typeERS3_S6_, symObjAddr: 0xCA60, symBinAddr: 0x10000F2E0, symSize: 0x40 }
  - { offsetInCU: 0x2A057, offset: 0x4161B, size: 0x8, addend: 0x0, symName: __ZNSt3__125__debug_db_invalidate_allB7v160006INS_6vectorIhNS_9allocatorIhEEEEEEvPT_, symObjAddr: 0xCB40, symBinAddr: 0x10000F3C0, symSize: 0x10 }
  - { offsetInCU: 0x2A088, offset: 0x4164C, size: 0x8, addend: 0x0, symName: __ZNSt3__14moveB7v160006INS_16reverse_iteratorIPhEES3_EET0_T_S5_S4_, symObjAddr: 0xCB70, symBinAddr: 0x10000F3F0, symSize: 0x80 }
  - { offsetInCU: 0x2A0E2, offset: 0x416A6, size: 0x8, addend: 0x0, symName: __ZNSt3__16__moveB7v160006INS_17_ClassicAlgPolicyENS_16reverse_iteratorIPhEES4_S4_EENS_4pairIT0_T2_EES6_T1_S7_, symObjAddr: 0xCBF0, symBinAddr: 0x10000F470, symSize: 0x90 }
  - { offsetInCU: 0x2A14E, offset: 0x41712, size: 0x8, addend: 0x0, symName: __ZNSt3__123__dispatch_copy_or_moveB7v160006INS_17_ClassicAlgPolicyENS_11__move_loopIS1_EENS_14__move_trivialENS_16reverse_iteratorIPhEES7_S7_EENS_4pairIT2_T4_EES9_T3_SA_, symObjAddr: 0xCC80, symBinAddr: 0x10000F500, symSize: 0x90 }
  - { offsetInCU: 0x2A1CC, offset: 0x41790, size: 0x8, addend: 0x0, symName: __ZNSt3__121__unwrap_and_dispatchB7v160006INS_10__overloadINS_11__move_loopINS_17_ClassicAlgPolicyEEENS_14__move_trivialEEENS_16reverse_iteratorIPhEES9_S9_Li0EEENS_4pairIT0_T2_EESB_T1_SC_, symObjAddr: 0xCD10, symBinAddr: 0x10000F590, symSize: 0x210 }
  - { offsetInCU: 0x2A25D, offset: 0x41821, size: 0x8, addend: 0x0, symName: __ZNSt3__114__unwrap_rangeB7v160006INS_16reverse_iteratorIPhEES3_EEDaT_T0_, symObjAddr: 0xCF20, symBinAddr: 0x10000F7A0, symSize: 0x60 }
  - { offsetInCU: 0x2A4D4, offset: 0x41A98, size: 0x8, addend: 0x0, symName: __ZNSt3__113__unwrap_iterB7v160006INS_16reverse_iteratorIPhEENS_18__unwrap_iter_implIS3_Lb0EEELi0EEEDTclsrT0_8__unwrapclsr3stdE7declvalIT_EEEES7_, symObjAddr: 0xD020, symBinAddr: 0x10000F8A0, symSize: 0x40 }
  - { offsetInCU: 0x2A518, offset: 0x41ADC, size: 0x8, addend: 0x0, symName: __ZNSt3__19make_pairB7v160006INS_16reverse_iteratorIPhEES3_EENS_4pairINS_18__unwrap_ref_decayIT_E4typeENS5_IT0_E4typeEEEOS6_OS9_, symObjAddr: 0xD060, symBinAddr: 0x10000F8E0, symSize: 0x30 }
  - { offsetInCU: 0x2A567, offset: 0x41B2B, size: 0x8, addend: 0x0, symName: __ZNSt3__114__rewrap_rangeB7v160006INS_16reverse_iteratorIPhEES3_S3_EET0_S4_T1_, symObjAddr: 0xD090, symBinAddr: 0x10000F910, symSize: 0x60 }
  - { offsetInCU: 0x2A5BC, offset: 0x41B80, size: 0x8, addend: 0x0, symName: __ZNSt3__113__rewrap_iterB7v160006INS_16reverse_iteratorIPhEES3_NS_18__unwrap_iter_implIS3_Lb0EEEEET_S6_T0_, symObjAddr: 0xD0F0, symBinAddr: 0x10000F970, symSize: 0x70 }
  - { offsetInCU: 0x2A661, offset: 0x41C25, size: 0x8, addend: 0x0, symName: __ZNSt3__1neB7v160006IPhS1_EEbRKNS_16reverse_iteratorIT_EERKNS2_IT0_EE, symObjAddr: 0xD260, symBinAddr: 0x10000FAE0, symSize: 0x40 }
  - { offsetInCU: 0x2A82B, offset: 0x41DEF, size: 0x8, addend: 0x0, symName: __ZNSt3__14moveB7v160006IPhS1_EET0_T_S3_S2_, symObjAddr: 0xD400, symBinAddr: 0x10000FC80, symSize: 0x40 }
  - { offsetInCU: 0x2A885, offset: 0x41E49, size: 0x8, addend: 0x0, symName: __ZNSt3__16__moveB7v160006INS_17_ClassicAlgPolicyEPhS2_S2_EENS_4pairIT0_T2_EES4_T1_S5_, symObjAddr: 0xD440, symBinAddr: 0x10000FCC0, symSize: 0x40 }
  - { offsetInCU: 0x2A8F1, offset: 0x41EB5, size: 0x8, addend: 0x0, symName: __ZNSt3__123__dispatch_copy_or_moveB7v160006INS_17_ClassicAlgPolicyENS_11__move_loopIS1_EENS_14__move_trivialEPhS5_S5_EENS_4pairIT2_T4_EES7_T3_S8_, symObjAddr: 0xD480, symBinAddr: 0x10000FD00, symSize: 0x40 }
  - { offsetInCU: 0x2A96F, offset: 0x41F33, size: 0x8, addend: 0x0, symName: __ZNSt3__121__unwrap_and_dispatchB7v160006INS_10__overloadINS_11__move_loopINS_17_ClassicAlgPolicyEEENS_14__move_trivialEEEPhS7_S7_Li0EEENS_4pairIT0_T2_EES9_T1_SA_, symObjAddr: 0xD4C0, symBinAddr: 0x10000FD40, symSize: 0xB0 }
  - { offsetInCU: 0x2AA46, offset: 0x4200A, size: 0x8, addend: 0x0, symName: __ZNSt3__119__copy_trivial_implB7v160006IhhEENS_4pairIPT_PT0_EES3_S3_S5_, symObjAddr: 0xD5B0, symBinAddr: 0x10000FE30, symSize: 0x70 }
  - { offsetInCU: 0x2AAAF, offset: 0x42073, size: 0x8, addend: 0x0, symName: __ZNSt3__19make_pairB7v160006IRPhS1_EENS_4pairINS_18__unwrap_ref_decayIT_E4typeENS4_IT0_E4typeEEEOS5_OS8_, symObjAddr: 0xD620, symBinAddr: 0x10000FEA0, symSize: 0x30 }
  - { offsetInCU: 0x2AAFE, offset: 0x420C2, size: 0x8, addend: 0x0, symName: __ZNSt3__110destroy_atB7v160006IhLi0EEEvPT_, symObjAddr: 0xD870, symBinAddr: 0x1000100F0, symSize: 0x20 }
  - { offsetInCU: 0x2AB35, offset: 0x420F9, size: 0x8, addend: 0x0, symName: __ZNSt3__112__destroy_atB7v160006IhLi0EEEvPT_, symObjAddr: 0xD890, symBinAddr: 0x100010110, symSize: 0x10 }
  - { offsetInCU: 0x2AB6D, offset: 0x42131, size: 0x8, addend: 0x0, symName: __ZNSt3__119__libcpp_deallocateB7v160006EPvmm, symObjAddr: 0xD8E0, symBinAddr: 0x100010160, symSize: 0x60 }
  - { offsetInCU: 0x2ABD2, offset: 0x42196, size: 0x8, addend: 0x0, symName: __ZNSt3__127__do_deallocate_handle_sizeB7v160006IJSt11align_val_tEEEvPvmDpT_, symObjAddr: 0xD940, symBinAddr: 0x1000101C0, symSize: 0x30 }
  - { offsetInCU: 0x2AC25, offset: 0x421E9, size: 0x8, addend: 0x0, symName: __ZNSt3__127__do_deallocate_handle_sizeB7v160006IJEEEvPvmDpT_, symObjAddr: 0xD970, symBinAddr: 0x1000101F0, symSize: 0x20 }
  - { offsetInCU: 0x2AC63, offset: 0x42227, size: 0x8, addend: 0x0, symName: __ZNSt3__124__libcpp_operator_deleteB7v160006IJPvSt11align_val_tEEEvDpT_, symObjAddr: 0xD990, symBinAddr: 0x100010210, symSize: 0x30 }
  - { offsetInCU: 0x2ACAC, offset: 0x42270, size: 0x8, addend: 0x0, symName: __ZNSt3__124__libcpp_operator_deleteB7v160006IJPvEEEvDpT_, symObjAddr: 0xD9C0, symBinAddr: 0x100010240, symSize: 0x20 }
  - { offsetInCU: 0x2ACE0, offset: 0x422A4, size: 0x8, addend: 0x0, symName: __ZNSt3__118__debug_db_erase_cB7v160006INS_6vectorIhNS_9allocatorIhEEEEEEvPT_, symObjAddr: 0xDE60, symBinAddr: 0x1000106E0, symSize: 0x10 }
  - { offsetInCU: 0x2AD11, offset: 0x422D5, size: 0x8, addend: 0x0, symName: __ZNSt3__119__debug_db_insert_cB7v160006INS_6vectorINS1_IhNS_9allocatorIhEEEENS2_IS4_EEEEEEvPT_, symObjAddr: 0xDFE0, symBinAddr: 0x100010860, symSize: 0x10 }
  - { offsetInCU: 0x2AD42, offset: 0x42306, size: 0x8, addend: 0x0, symName: __ZNSt3__112construct_atB7v160006IhJEPhEEPT_S3_DpOT0_, symObjAddr: 0xE460, symBinAddr: 0x100010CE0, symSize: 0x20 }
  - { offsetInCU: 0x2ADA0, offset: 0x42364, size: 0x8, addend: 0x0, symName: __ZNSt3__112__to_addressB7v160006INS_6vectorIhNS_9allocatorIhEEEEEEPT_S6_, symObjAddr: 0xE750, symBinAddr: 0x100010FD0, symSize: 0x10 }
  - { offsetInCU: 0x2ADFC, offset: 0x423C0, size: 0x8, addend: 0x0, symName: __ZNSt3__112construct_atB7v160006INS_6vectorIhNS_9allocatorIhEEEEJRKS4_EPS4_EEPT_S9_DpOT0_, symObjAddr: 0xE7C0, symBinAddr: 0x100011040, symSize: 0x40 }
  - { offsetInCU: 0x2AE6E, offset: 0x42432, size: 0x8, addend: 0x0, symName: __ZNSt3__122__make_exception_guardB7v160006INS_6vectorIhNS_9allocatorIhEEE16__destroy_vectorEEENS_28__exception_guard_exceptionsIT_EES7_, symObjAddr: 0xE980, symBinAddr: 0x100011200, symSize: 0x40 }
  - { offsetInCU: 0x2AEA3, offset: 0x42467, size: 0x8, addend: 0x0, symName: __ZNSt3__130__uninitialized_allocator_copyB7v160006INS_9allocatorIhEEPhS3_S3_EET2_RT_T0_T1_S4_, symObjAddr: 0xEBD0, symBinAddr: 0x100011450, symSize: 0x100 }
  - { offsetInCU: 0x2AF41, offset: 0x42505, size: 0x8, addend: 0x0, symName: __ZNSt3__122__make_exception_guardB7v160006INS_29_AllocatorDestroyRangeReverseINS_9allocatorIhEEPhEEEENS_28__exception_guard_exceptionsIT_EES7_, symObjAddr: 0xECD0, symBinAddr: 0x100011550, symSize: 0x60 }
  - { offsetInCU: 0x2AF76, offset: 0x4253A, size: 0x8, addend: 0x0, symName: __ZNSt3__112construct_atB7v160006IhJRhEPhEEPT_S4_DpOT0_, symObjAddr: 0xEE90, symBinAddr: 0x100011710, symSize: 0x30 }
  - { offsetInCU: 0x2AFE9, offset: 0x425AD, size: 0x8, addend: 0x0, symName: __ZNSt3__119__allocator_destroyB7v160006INS_9allocatorIhEENS_16reverse_iteratorIPhEES5_EEvRT_T0_T1_, symObjAddr: 0xEF60, symBinAddr: 0x1000117E0, symSize: 0x70 }
  - { offsetInCU: 0x2B04B, offset: 0x4260F, size: 0x8, addend: 0x0, symName: __ZNSt3__112__to_addressB7v160006INS_16reverse_iteratorIPhEEvEENS_5decayIDTclsr19__to_address_helperIT_EE6__callclsr3stdE7declvalIRKS5_EEEEE4typeES7_, symObjAddr: 0xEFD0, symBinAddr: 0x100011850, symSize: 0x20 }
  - { offsetInCU: 0x2B0AB, offset: 0x4266F, size: 0x8, addend: 0x0, symName: __ZNSt3__14prevB7v160006IPhEENS_9enable_ifIXsr25__is_cpp17_input_iteratorIT_EE5valueES3_E4typeES3_NS_15iterator_traitsIS3_E15difference_typeE, symObjAddr: 0xF060, symBinAddr: 0x1000118E0, symSize: 0x50 }
  - { offsetInCU: 0x2B0EE, offset: 0x426B2, size: 0x8, addend: 0x0, symName: __ZNSt3__19__advanceB7v160006IPhEEvRT_NS_15iterator_traitsIS2_E15difference_typeENS_26random_access_iterator_tagE, symObjAddr: 0xF100, symBinAddr: 0x100011980, symSize: 0x20 }
  - { offsetInCU: 0x2B138, offset: 0x426FC, size: 0x8, addend: 0x0, symName: __ZNSt3__119__allocate_at_leastB7v160006INS_9allocatorINS_6vectorIhNS1_IhEEEEEEEENS_19__allocation_resultINS_16allocator_traitsIT_E7pointerEEERS8_m, symObjAddr: 0xF660, symBinAddr: 0x100011EE0, symSize: 0x40 }
  - { offsetInCU: 0x2B17B, offset: 0x4273F, size: 0x8, addend: 0x0, symName: __ZNSt3__142__uninitialized_allocator_move_if_noexceptB7v160006INS_9allocatorINS_6vectorIhNS1_IhEEEEEENS_16reverse_iteratorIPS4_EES8_S8_EET2_RT_T0_T1_S9_, symObjAddr: 0xF8A0, symBinAddr: 0x100012120, symSize: 0x180 }
  - { offsetInCU: 0x2B21A, offset: 0x427DE, size: 0x8, addend: 0x0, symName: __ZNSt3__14swapB7v160006IPNS_6vectorIhNS_9allocatorIhEEEEEENS_9enable_ifIXaasr21is_move_constructibleIT_EE5valuesr18is_move_assignableIS7_EE5valueEvE4typeERS7_SA_, symObjAddr: 0xFA70, symBinAddr: 0x1000122F0, symSize: 0x40 }
  - { offsetInCU: 0x2B26C, offset: 0x42830, size: 0x8, addend: 0x0, symName: __ZNSt3__125__debug_db_invalidate_allB7v160006INS_6vectorINS1_IhNS_9allocatorIhEEEENS2_IS4_EEEEEEvPT_, symObjAddr: 0xFB50, symBinAddr: 0x1000123D0, symSize: 0x10 }
  - { offsetInCU: 0x2B29D, offset: 0x42861, size: 0x8, addend: 0x0, symName: __ZNSt3__122__make_exception_guardB7v160006INS_29_AllocatorDestroyRangeReverseINS_9allocatorINS_6vectorIhNS2_IhEEEEEENS_16reverse_iteratorIPS5_EEEEEENS_28__exception_guard_exceptionsIT_EESC_, symObjAddr: 0xFBA0, symBinAddr: 0x100012420, symSize: 0x60 }
  - { offsetInCU: 0x2B2D2, offset: 0x42896, size: 0x8, addend: 0x0, symName: __ZNSt3__1neB7v160006IPNS_6vectorIhNS_9allocatorIhEEEES5_EEbRKNS_16reverse_iteratorIT_EERKNS6_IT0_EE, symObjAddr: 0xFC40, symBinAddr: 0x1000124C0, symSize: 0x40 }
  - { offsetInCU: 0x2B31E, offset: 0x428E2, size: 0x8, addend: 0x0, symName: __ZNSt3__112__to_addressB7v160006INS_16reverse_iteratorIPNS_6vectorIhNS_9allocatorIhEEEEEEvEENS_5decayIDTclsr19__to_address_helperIT_EE6__callclsr3stdE7declvalIRKS9_EEEEE4typeESB_, symObjAddr: 0xFCB0, symBinAddr: 0x100012530, symSize: 0x20 }
  - { offsetInCU: 0x2B354, offset: 0x42918, size: 0x8, addend: 0x0, symName: __ZNSt3__112construct_atB7v160006INS_6vectorIhNS_9allocatorIhEEEEJS4_EPS4_EEPT_S7_DpOT0_, symObjAddr: 0xFE10, symBinAddr: 0x100012690, symSize: 0x40 }
  - { offsetInCU: 0x2B3C6, offset: 0x4298A, size: 0x8, addend: 0x0, symName: __ZNSt3__115__debug_db_swapB7v160006INS_6vectorIhNS_9allocatorIhEEEEEEvPT_S6_, symObjAddr: 0xFF60, symBinAddr: 0x1000127E0, symSize: 0x10 }
  - { offsetInCU: 0x2B42F, offset: 0x429F3, size: 0x8, addend: 0x0, symName: __ZNSt3__14prevB7v160006IPNS_6vectorIhNS_9allocatorIhEEEEEENS_9enable_ifIXsr25__is_cpp17_input_iteratorIT_EE5valueES7_E4typeES7_NS_15iterator_traitsIS7_E15difference_typeE, symObjAddr: 0xFFE0, symBinAddr: 0x100012860, symSize: 0x50 }
  - { offsetInCU: 0x2B472, offset: 0x42A36, size: 0x8, addend: 0x0, symName: __ZNSt3__19__advanceB7v160006IPNS_6vectorIhNS_9allocatorIhEEEEEEvRT_NS_15iterator_traitsIS6_E15difference_typeENS_26random_access_iterator_tagE, symObjAddr: 0x10080, symBinAddr: 0x100012900, symSize: 0x20 }
  - { offsetInCU: 0x2B4BD, offset: 0x42A81, size: 0x8, addend: 0x0, symName: __ZNSt3__119__allocator_destroyB7v160006INS_9allocatorINS_6vectorIhNS1_IhEEEEEENS_16reverse_iteratorINS6_IPS4_EEEES9_EEvRT_T0_T1_, symObjAddr: 0x101D0, symBinAddr: 0x100012A50, symSize: 0x70 }
  - { offsetInCU: 0x2B51F, offset: 0x42AE3, size: 0x8, addend: 0x0, symName: __ZNSt3__1neB7v160006INS_16reverse_iteratorIPNS_6vectorIhNS_9allocatorIhEEEEEES7_EEbRKNS1_IT_EERKNS1_IT0_EE, symObjAddr: 0x10270, symBinAddr: 0x100012AF0, symSize: 0x50 }
  - { offsetInCU: 0x2B56B, offset: 0x42B2F, size: 0x8, addend: 0x0, symName: __ZNSt3__112__to_addressB7v160006INS_16reverse_iteratorINS1_IPNS_6vectorIhNS_9allocatorIhEEEEEEEEvEENS_5decayIDTclsr19__to_address_helperIT_EE6__callclsr3stdE7declvalIRKSA_EEEEE4typeESC_, symObjAddr: 0x102E0, symBinAddr: 0x100012B60, symSize: 0x20 }
  - { offsetInCU: 0x2B5A1, offset: 0x42B65, size: 0x8, addend: 0x0, symName: __ZNSt3__110destroy_atB7v160006INS_6vectorIhNS_9allocatorIhEEEELi0EEEvPT_, symObjAddr: 0x10350, symBinAddr: 0x100012BD0, symSize: 0x20 }
  - { offsetInCU: 0x2B5D8, offset: 0x42B9C, size: 0x8, addend: 0x0, symName: __ZNSt3__112__destroy_atB7v160006INS_6vectorIhNS_9allocatorIhEEEELi0EEEvPT_, symObjAddr: 0x10370, symBinAddr: 0x100012BF0, symSize: 0x20 }
  - { offsetInCU: 0x2B639, offset: 0x42BFD, size: 0x8, addend: 0x0, symName: __ZNSt3__14prevB7v160006INS_16reverse_iteratorIPNS_6vectorIhNS_9allocatorIhEEEEEEEENS_9enable_ifIXsr25__is_cpp17_input_iteratorIT_EE5valueES9_E4typeES9_NS_15iterator_traitsIS9_E15difference_typeE, symObjAddr: 0x10420, symBinAddr: 0x100012CA0, symSize: 0x60 }
  - { offsetInCU: 0x2B67C, offset: 0x42C40, size: 0x8, addend: 0x0, symName: __ZNSt3__19__advanceB7v160006INS_16reverse_iteratorIPNS_6vectorIhNS_9allocatorIhEEEEEEEEvRT_NS_15iterator_traitsIS8_E15difference_typeENS_26random_access_iterator_tagE, symObjAddr: 0x104D0, symBinAddr: 0x100012D50, symSize: 0x30 }
  - { offsetInCU: 0x2B6C6, offset: 0x42C8A, size: 0x8, addend: 0x0, symName: __ZNSt3__128__char_traits_length_checkedB7v160006INS_11char_traitsIcEEEEmPKNT_9char_typeE, symObjAddr: 0x10920, symBinAddr: 0x1000131A0, symSize: 0x20 }
  - { offsetInCU: 0x2B6FB, offset: 0x42CBF, size: 0x8, addend: 0x0, symName: __ZNSt3__118__debug_db_erase_cB7v160006INS_6vectorINS1_IhNS_9allocatorIhEEEENS2_IS4_EEEEEEvPT_, symObjAddr: 0x10BE0, symBinAddr: 0x100013460, symSize: 0x10 }
  - { offsetInCU: 0x2B72C, offset: 0x42CF0, size: 0x8, addend: 0x0, symName: __ZNSt3__1eqB7v160006IPK8CQPubKeyEEbRKNS_11__wrap_iterIT_EES8_, symObjAddr: 0x10D40, symBinAddr: 0x1000135C0, symSize: 0x40 }
  - { offsetInCU: 0x2B76F, offset: 0x42D33, size: 0x8, addend: 0x0, symName: __ZNSt3__112__to_addressB7v160006I5CTxInEEPT_S3_, symObjAddr: 0x11250, symBinAddr: 0x100013AD0, symSize: 0x10 }
  - { offsetInCU: 0x2B7CB, offset: 0x42D8F, size: 0x8, addend: 0x0, symName: __ZNSt3__112construct_atB7v160006I5CTxInJRKS1_EPS1_EEPT_S6_DpOT0_, symObjAddr: 0x112C0, symBinAddr: 0x100013B40, symSize: 0x40 }
  - { offsetInCU: 0x2B83D, offset: 0x42E01, size: 0x8, addend: 0x0, symName: __ZNSt3__122__make_exception_guardB7v160006INS_6vectorINS1_IhNS_9allocatorIhEEEENS2_IS4_EEE16__destroy_vectorEEENS_28__exception_guard_exceptionsIT_EES9_, symObjAddr: 0x11B70, symBinAddr: 0x1000143F0, symSize: 0x40 }
  - { offsetInCU: 0x2B872, offset: 0x42E36, size: 0x8, addend: 0x0, symName: __ZNSt3__130__uninitialized_allocator_copyB7v160006INS_9allocatorINS_6vectorIhNS1_IhEEEEEEPS4_S6_S6_EET2_RT_T0_T1_S7_, symObjAddr: 0x11DC0, symBinAddr: 0x100014640, symSize: 0x100 }
  - { offsetInCU: 0x2B910, offset: 0x42ED4, size: 0x8, addend: 0x0, symName: __ZNSt3__122__make_exception_guardB7v160006INS_29_AllocatorDestroyRangeReverseINS_9allocatorINS_6vectorIhNS2_IhEEEEEEPS5_EEEENS_28__exception_guard_exceptionsIT_EESA_, symObjAddr: 0x11EC0, symBinAddr: 0x100014740, symSize: 0x60 }
  - { offsetInCU: 0x2B945, offset: 0x42F09, size: 0x8, addend: 0x0, symName: __ZNSt3__112construct_atB7v160006INS_6vectorIhNS_9allocatorIhEEEEJRS4_EPS4_EEPT_S8_DpOT0_, symObjAddr: 0x12080, symBinAddr: 0x100014900, symSize: 0x40 }
  - { offsetInCU: 0x2B9B8, offset: 0x42F7C, size: 0x8, addend: 0x0, symName: __ZNSt3__119__allocator_destroyB7v160006INS_9allocatorINS_6vectorIhNS1_IhEEEEEENS_16reverse_iteratorIPS4_EES8_EEvRT_T0_T1_, symObjAddr: 0x12160, symBinAddr: 0x1000149E0, symSize: 0x70 }
  - { offsetInCU: 0x2BA1A, offset: 0x42FDE, size: 0x8, addend: 0x0, symName: __ZNSt3__119__allocate_at_leastB7v160006INS_9allocatorI5CTxInEEEENS_19__allocation_resultINS_16allocator_traitsIT_E7pointerEEERS6_m, symObjAddr: 0x12710, symBinAddr: 0x100014F90, symSize: 0x40 }
  - { offsetInCU: 0x2BA5D, offset: 0x43021, size: 0x8, addend: 0x0, symName: __ZNSt3__142__uninitialized_allocator_move_if_noexceptB7v160006INS_9allocatorI5CTxInEENS_16reverse_iteratorIPS2_EES6_S6_EET2_RT_T0_T1_S7_, symObjAddr: 0x12970, symBinAddr: 0x1000151F0, symSize: 0x180 }
  - { offsetInCU: 0x2BAFC, offset: 0x430C0, size: 0x8, addend: 0x0, symName: __ZNSt3__14swapB7v160006IP5CTxInEENS_9enable_ifIXaasr21is_move_constructibleIT_EE5valuesr18is_move_assignableIS4_EE5valueEvE4typeERS4_S7_, symObjAddr: 0x12B40, symBinAddr: 0x1000153C0, symSize: 0x40 }
  - { offsetInCU: 0x2BB4E, offset: 0x43112, size: 0x8, addend: 0x0, symName: __ZNSt3__125__debug_db_invalidate_allB7v160006INS_6vectorI5CTxInNS_9allocatorIS2_EEEEEEvPT_, symObjAddr: 0x12C20, symBinAddr: 0x1000154A0, symSize: 0x10 }
  - { offsetInCU: 0x2BB7F, offset: 0x43143, size: 0x8, addend: 0x0, symName: __ZNSt3__122__make_exception_guardB7v160006INS_29_AllocatorDestroyRangeReverseINS_9allocatorI5CTxInEENS_16reverse_iteratorIPS3_EEEEEENS_28__exception_guard_exceptionsIT_EESA_, symObjAddr: 0x12C70, symBinAddr: 0x1000154F0, symSize: 0x60 }
  - { offsetInCU: 0x2BBB4, offset: 0x43178, size: 0x8, addend: 0x0, symName: __ZNSt3__1neB7v160006IP5CTxInS2_EEbRKNS_16reverse_iteratorIT_EERKNS3_IT0_EE, symObjAddr: 0x12D10, symBinAddr: 0x100015590, symSize: 0x40 }
  - { offsetInCU: 0x2BC00, offset: 0x431C4, size: 0x8, addend: 0x0, symName: __ZNSt3__112__to_addressB7v160006INS_16reverse_iteratorIP5CTxInEEvEENS_5decayIDTclsr19__to_address_helperIT_EE6__callclsr3stdE7declvalIRKS6_EEEEE4typeES8_, symObjAddr: 0x12D80, symBinAddr: 0x100015600, symSize: 0x20 }
  - { offsetInCU: 0x2BC36, offset: 0x431FA, size: 0x8, addend: 0x0, symName: __ZNSt3__112construct_atB7v160006I5CTxInJS1_EPS1_EEPT_S4_DpOT0_, symObjAddr: 0x12EE0, symBinAddr: 0x100015760, symSize: 0x40 }
  - { offsetInCU: 0x2BCA8, offset: 0x4326C, size: 0x8, addend: 0x0, symName: __ZNSt3__115__debug_db_swapB7v160006INS_6vectorINS1_IhNS_9allocatorIhEEEENS2_IS4_EEEEEEvPT_S8_, symObjAddr: 0x131D0, symBinAddr: 0x100015A50, symSize: 0x10 }
  - { offsetInCU: 0x2BD11, offset: 0x432D5, size: 0x8, addend: 0x0, symName: __ZNSt3__14prevB7v160006IP5CTxInEENS_9enable_ifIXsr25__is_cpp17_input_iteratorIT_EE5valueES4_E4typeES4_NS_15iterator_traitsIS4_E15difference_typeE, symObjAddr: 0x13250, symBinAddr: 0x100015AD0, symSize: 0x50 }
  - { offsetInCU: 0x2BD54, offset: 0x43318, size: 0x8, addend: 0x0, symName: __ZNSt3__19__advanceB7v160006IP5CTxInEEvRT_NS_15iterator_traitsIS3_E15difference_typeENS_26random_access_iterator_tagE, symObjAddr: 0x132F0, symBinAddr: 0x100015B70, symSize: 0x20 }
  - { offsetInCU: 0x2BD9F, offset: 0x43363, size: 0x8, addend: 0x0, symName: __ZNSt3__119__allocator_destroyB7v160006INS_9allocatorI5CTxInEENS_16reverse_iteratorINS4_IPS2_EEEES7_EEvRT_T0_T1_, symObjAddr: 0x13440, symBinAddr: 0x100015CC0, symSize: 0x70 }
  - { offsetInCU: 0x2BE01, offset: 0x433C5, size: 0x8, addend: 0x0, symName: __ZNSt3__1neB7v160006INS_16reverse_iteratorIP5CTxInEES4_EEbRKNS1_IT_EERKNS1_IT0_EE, symObjAddr: 0x134E0, symBinAddr: 0x100015D60, symSize: 0x50 }
  - { offsetInCU: 0x2BE4D, offset: 0x43411, size: 0x8, addend: 0x0, symName: __ZNSt3__112__to_addressB7v160006INS_16reverse_iteratorINS1_IP5CTxInEEEEvEENS_5decayIDTclsr19__to_address_helperIT_EE6__callclsr3stdE7declvalIRKS7_EEEEE4typeES9_, symObjAddr: 0x13550, symBinAddr: 0x100015DD0, symSize: 0x20 }
  - { offsetInCU: 0x2BE83, offset: 0x43447, size: 0x8, addend: 0x0, symName: __ZNSt3__110destroy_atB7v160006I5CTxInLi0EEEvPT_, symObjAddr: 0x135C0, symBinAddr: 0x100015E40, symSize: 0x20 }
  - { offsetInCU: 0x2BEBA, offset: 0x4347E, size: 0x8, addend: 0x0, symName: __ZNSt3__112__destroy_atB7v160006I5CTxInLi0EEEvPT_, symObjAddr: 0x135E0, symBinAddr: 0x100015E60, symSize: 0x20 }
  - { offsetInCU: 0x2BF1B, offset: 0x434DF, size: 0x8, addend: 0x0, symName: __ZNSt3__14prevB7v160006INS_16reverse_iteratorIP5CTxInEEEENS_9enable_ifIXsr25__is_cpp17_input_iteratorIT_EE5valueES6_E4typeES6_NS_15iterator_traitsIS6_E15difference_typeE, symObjAddr: 0x13690, symBinAddr: 0x100015F10, symSize: 0x60 }
  - { offsetInCU: 0x2BF5E, offset: 0x43522, size: 0x8, addend: 0x0, symName: __ZNSt3__19__advanceB7v160006INS_16reverse_iteratorIP5CTxInEEEEvRT_NS_15iterator_traitsIS5_E15difference_typeENS_26random_access_iterator_tagE, symObjAddr: 0x13740, symBinAddr: 0x100015FC0, symSize: 0x30 }
  - { offsetInCU: 0x2BFA8, offset: 0x4356C, size: 0x8, addend: 0x0, symName: __ZNSt3__112__to_addressB7v160006I15CQuantumKeyPairEEPT_S3_, symObjAddr: 0x13C90, symBinAddr: 0x100016510, symSize: 0x10 }
  - { offsetInCU: 0x2C004, offset: 0x435C8, size: 0x8, addend: 0x0, symName: __ZNSt3__112construct_atB7v160006I15CQuantumKeyPairJRKS1_EPS1_EEPT_S6_DpOT0_, symObjAddr: 0x13D00, symBinAddr: 0x100016580, symSize: 0x40 }
  - { offsetInCU: 0x2C076, offset: 0x4363A, size: 0x8, addend: 0x0, symName: __ZNSt3__119__allocate_at_leastB7v160006INS_9allocatorI15CQuantumKeyPairEEEENS_19__allocation_resultINS_16allocator_traitsIT_E7pointerEEERS6_m, symObjAddr: 0x14240, symBinAddr: 0x100016AC0, symSize: 0x40 }
  - { offsetInCU: 0x2C0B9, offset: 0x4367D, size: 0x8, addend: 0x0, symName: __ZNSt3__142__uninitialized_allocator_move_if_noexceptB7v160006INS_9allocatorI15CQuantumKeyPairEENS_16reverse_iteratorIPS2_EES6_S6_EET2_RT_T0_T1_S7_, symObjAddr: 0x144A0, symBinAddr: 0x100016D20, symSize: 0x180 }
  - { offsetInCU: 0x2C158, offset: 0x4371C, size: 0x8, addend: 0x0, symName: __ZNSt3__14swapB7v160006IP15CQuantumKeyPairEENS_9enable_ifIXaasr21is_move_constructibleIT_EE5valuesr18is_move_assignableIS4_EE5valueEvE4typeERS4_S7_, symObjAddr: 0x14670, symBinAddr: 0x100016EF0, symSize: 0x40 }
  - { offsetInCU: 0x2C1AA, offset: 0x4376E, size: 0x8, addend: 0x0, symName: __ZNSt3__125__debug_db_invalidate_allB7v160006INS_6vectorI15CQuantumKeyPairNS_9allocatorIS2_EEEEEEvPT_, symObjAddr: 0x14750, symBinAddr: 0x100016FD0, symSize: 0x10 }
  - { offsetInCU: 0x2C1DB, offset: 0x4379F, size: 0x8, addend: 0x0, symName: __ZNSt3__122__make_exception_guardB7v160006INS_29_AllocatorDestroyRangeReverseINS_9allocatorI15CQuantumKeyPairEENS_16reverse_iteratorIPS3_EEEEEENS_28__exception_guard_exceptionsIT_EESA_, symObjAddr: 0x147A0, symBinAddr: 0x100017020, symSize: 0x60 }
  - { offsetInCU: 0x2C210, offset: 0x437D4, size: 0x8, addend: 0x0, symName: __ZNSt3__1neB7v160006IP15CQuantumKeyPairS2_EEbRKNS_16reverse_iteratorIT_EERKNS3_IT0_EE, symObjAddr: 0x14840, symBinAddr: 0x1000170C0, symSize: 0x40 }
  - { offsetInCU: 0x2C25C, offset: 0x43820, size: 0x8, addend: 0x0, symName: __ZNSt3__112__to_addressB7v160006INS_16reverse_iteratorIP15CQuantumKeyPairEEvEENS_5decayIDTclsr19__to_address_helperIT_EE6__callclsr3stdE7declvalIRKS6_EEEEE4typeES8_, symObjAddr: 0x148B0, symBinAddr: 0x100017130, symSize: 0x20 }
  - { offsetInCU: 0x2C292, offset: 0x43856, size: 0x8, addend: 0x0, symName: __ZNSt3__112construct_atB7v160006I15CQuantumKeyPairJS1_EPS1_EEPT_S4_DpOT0_, symObjAddr: 0x14A10, symBinAddr: 0x100017290, symSize: 0x40 }
  - { offsetInCU: 0x2C32E, offset: 0x438F2, size: 0x8, addend: 0x0, symName: __ZNSt3__14prevB7v160006IP15CQuantumKeyPairEENS_9enable_ifIXsr25__is_cpp17_input_iteratorIT_EE5valueES4_E4typeES4_NS_15iterator_traitsIS4_E15difference_typeE, symObjAddr: 0x14AC0, symBinAddr: 0x100017340, symSize: 0x50 }
  - { offsetInCU: 0x2C371, offset: 0x43935, size: 0x8, addend: 0x0, symName: __ZNSt3__19__advanceB7v160006IP15CQuantumKeyPairEEvRT_NS_15iterator_traitsIS3_E15difference_typeENS_26random_access_iterator_tagE, symObjAddr: 0x14B60, symBinAddr: 0x1000173E0, symSize: 0x20 }
  - { offsetInCU: 0x2C3BC, offset: 0x43980, size: 0x8, addend: 0x0, symName: __ZNSt3__119__allocator_destroyB7v160006INS_9allocatorI15CQuantumKeyPairEENS_16reverse_iteratorINS4_IPS2_EEEES7_EEvRT_T0_T1_, symObjAddr: 0x14CB0, symBinAddr: 0x100017530, symSize: 0x70 }
  - { offsetInCU: 0x2C41E, offset: 0x439E2, size: 0x8, addend: 0x0, symName: __ZNSt3__1neB7v160006INS_16reverse_iteratorIP15CQuantumKeyPairEES4_EEbRKNS1_IT_EERKNS1_IT0_EE, symObjAddr: 0x14D50, symBinAddr: 0x1000175D0, symSize: 0x50 }
  - { offsetInCU: 0x2C46A, offset: 0x43A2E, size: 0x8, addend: 0x0, symName: __ZNSt3__112__to_addressB7v160006INS_16reverse_iteratorINS1_IP15CQuantumKeyPairEEEEvEENS_5decayIDTclsr19__to_address_helperIT_EE6__callclsr3stdE7declvalIRKS7_EEEEE4typeES9_, symObjAddr: 0x14DC0, symBinAddr: 0x100017640, symSize: 0x20 }
  - { offsetInCU: 0x2C4A0, offset: 0x43A64, size: 0x8, addend: 0x0, symName: __ZNSt3__110destroy_atB7v160006I15CQuantumKeyPairLi0EEEvPT_, symObjAddr: 0x14E30, symBinAddr: 0x1000176B0, symSize: 0x20 }
  - { offsetInCU: 0x2C4D7, offset: 0x43A9B, size: 0x8, addend: 0x0, symName: __ZNSt3__112__destroy_atB7v160006I15CQuantumKeyPairLi0EEEvPT_, symObjAddr: 0x14E50, symBinAddr: 0x1000176D0, symSize: 0x20 }
  - { offsetInCU: 0x2C538, offset: 0x43AFC, size: 0x8, addend: 0x0, symName: __ZNSt3__14prevB7v160006INS_16reverse_iteratorIP15CQuantumKeyPairEEEENS_9enable_ifIXsr25__is_cpp17_input_iteratorIT_EE5valueES6_E4typeES6_NS_15iterator_traitsIS6_E15difference_typeE, symObjAddr: 0x14F00, symBinAddr: 0x100017780, symSize: 0x60 }
  - { offsetInCU: 0x2C57B, offset: 0x43B3F, size: 0x8, addend: 0x0, symName: __ZNSt3__19__advanceB7v160006INS_16reverse_iteratorIP15CQuantumKeyPairEEEEvRT_NS_15iterator_traitsIS5_E15difference_typeENS_26random_access_iterator_tagE, symObjAddr: 0x14FB0, symBinAddr: 0x100017830, symSize: 0x30 }
  - { offsetInCU: 0x2C5C5, offset: 0x43B89, size: 0x8, addend: 0x0, symName: __ZNSt3__112__to_addressB7v160006IxEEPT_S2_, symObjAddr: 0x15500, symBinAddr: 0x100017D80, symSize: 0x10 }
  - { offsetInCU: 0x2C621, offset: 0x43BE5, size: 0x8, addend: 0x0, symName: __ZNSt3__112construct_atB7v160006IxJRKxEPxEEPT_S5_DpOT0_, symObjAddr: 0x15570, symBinAddr: 0x100017DF0, symSize: 0x30 }
  - { offsetInCU: 0x2C693, offset: 0x43C57, size: 0x8, addend: 0x0, symName: __ZNSt3__119__allocate_at_leastB7v160006INS_9allocatorIxEEEENS_19__allocation_resultINS_16allocator_traitsIT_E7pointerEEERS5_m, symObjAddr: 0x15AB0, symBinAddr: 0x100018330, symSize: 0x40 }
  - { offsetInCU: 0x2C6D6, offset: 0x43C9A, size: 0x8, addend: 0x0, symName: __ZNSt3__142__uninitialized_allocator_move_if_noexceptB7v160006INS_9allocatorIxEENS_16reverse_iteratorIPxEES5_xvEET1_RT_T0_S9_S6_, symObjAddr: 0x15D10, symBinAddr: 0x100018590, symSize: 0x70 }
  - { offsetInCU: 0x2C753, offset: 0x43D17, size: 0x8, addend: 0x0, symName: __ZNSt3__14swapB7v160006IPxEENS_9enable_ifIXaasr21is_move_constructibleIT_EE5valuesr18is_move_assignableIS3_EE5valueEvE4typeERS3_S6_, symObjAddr: 0x15DD0, symBinAddr: 0x100018650, symSize: 0x40 }
  - { offsetInCU: 0x2C7A5, offset: 0x43D69, size: 0x8, addend: 0x0, symName: __ZNSt3__125__debug_db_invalidate_allB7v160006INS_6vectorIxNS_9allocatorIxEEEEEEvPT_, symObjAddr: 0x15EC0, symBinAddr: 0x100018740, symSize: 0x10 }
  - { offsetInCU: 0x2C7D6, offset: 0x43D9A, size: 0x8, addend: 0x0, symName: __ZNSt3__14moveB7v160006INS_16reverse_iteratorIPxEES3_EET0_T_S5_S4_, symObjAddr: 0x15F10, symBinAddr: 0x100018790, symSize: 0x80 }
  - { offsetInCU: 0x2C830, offset: 0x43DF4, size: 0x8, addend: 0x0, symName: __ZNSt3__16__moveB7v160006INS_17_ClassicAlgPolicyENS_16reverse_iteratorIPxEES4_S4_EENS_4pairIT0_T2_EES6_T1_S7_, symObjAddr: 0x15F90, symBinAddr: 0x100018810, symSize: 0x90 }
  - { offsetInCU: 0x2C89C, offset: 0x43E60, size: 0x8, addend: 0x0, symName: __ZNSt3__123__dispatch_copy_or_moveB7v160006INS_17_ClassicAlgPolicyENS_11__move_loopIS1_EENS_14__move_trivialENS_16reverse_iteratorIPxEES7_S7_EENS_4pairIT2_T4_EES9_T3_SA_, symObjAddr: 0x16020, symBinAddr: 0x1000188A0, symSize: 0x90 }
  - { offsetInCU: 0x2C91A, offset: 0x43EDE, size: 0x8, addend: 0x0, symName: __ZNSt3__121__unwrap_and_dispatchB7v160006INS_10__overloadINS_11__move_loopINS_17_ClassicAlgPolicyEEENS_14__move_trivialEEENS_16reverse_iteratorIPxEES9_S9_Li0EEENS_4pairIT0_T2_EESB_T1_SC_, symObjAddr: 0x160B0, symBinAddr: 0x100018930, symSize: 0x210 }
  - { offsetInCU: 0x2C9AB, offset: 0x43F6F, size: 0x8, addend: 0x0, symName: __ZNSt3__114__unwrap_rangeB7v160006INS_16reverse_iteratorIPxEES3_EEDaT_T0_, symObjAddr: 0x162C0, symBinAddr: 0x100018B40, symSize: 0x60 }
  - { offsetInCU: 0x2CACB, offset: 0x4408F, size: 0x8, addend: 0x0, symName: __ZNSt3__113__unwrap_iterB7v160006INS_16reverse_iteratorIPxEENS_18__unwrap_iter_implIS3_Lb0EEELi0EEEDTclsrT0_8__unwrapclsr3stdE7declvalIT_EEEES7_, symObjAddr: 0x163C0, symBinAddr: 0x100018C40, symSize: 0x40 }
  - { offsetInCU: 0x2CB0F, offset: 0x440D3, size: 0x8, addend: 0x0, symName: __ZNSt3__19make_pairB7v160006INS_16reverse_iteratorIPxEES3_EENS_4pairINS_18__unwrap_ref_decayIT_E4typeENS5_IT0_E4typeEEEOS6_OS9_, symObjAddr: 0x16400, symBinAddr: 0x100018C80, symSize: 0x30 }
  - { offsetInCU: 0x2CB5E, offset: 0x44122, size: 0x8, addend: 0x0, symName: __ZNSt3__114__rewrap_rangeB7v160006INS_16reverse_iteratorIPxEES3_S3_EET0_S4_T1_, symObjAddr: 0x16430, symBinAddr: 0x100018CB0, symSize: 0x60 }
  - { offsetInCU: 0x2CBB3, offset: 0x44177, size: 0x8, addend: 0x0, symName: __ZNSt3__113__rewrap_iterB7v160006INS_16reverse_iteratorIPxEES3_NS_18__unwrap_iter_implIS3_Lb0EEEEET_S6_T0_, symObjAddr: 0x16490, symBinAddr: 0x100018D10, symSize: 0x70 }
  - { offsetInCU: 0x2CC58, offset: 0x4421C, size: 0x8, addend: 0x0, symName: __ZNSt3__1neB7v160006IPxS1_EEbRKNS_16reverse_iteratorIT_EERKNS2_IT0_EE, symObjAddr: 0x16600, symBinAddr: 0x100018E80, symSize: 0x40 }
  - { offsetInCU: 0x2CD10, offset: 0x442D4, size: 0x8, addend: 0x0, symName: __ZNSt3__110destroy_atB7v160006IxLi0EEEvPT_, symObjAddr: 0x16960, symBinAddr: 0x1000191E0, symSize: 0x20 }
  - { offsetInCU: 0x2CD47, offset: 0x4430B, size: 0x8, addend: 0x0, symName: __ZNSt3__112__destroy_atB7v160006IxLi0EEEvPT_, symObjAddr: 0x16980, symBinAddr: 0x100019200, symSize: 0x10 }
  - { offsetInCU: 0x2CD7E, offset: 0x44342, size: 0x8, addend: 0x0, symName: __ZNSt3__112__to_addressB7v160006IKcEEPT_S3_, symObjAddr: 0x16A40, symBinAddr: 0x1000192C0, symSize: 0x10 }
  - { offsetInCU: 0x2CDE6, offset: 0x443AA, size: 0x8, addend: 0x0, symName: __ZNSt3__16fill_nB7v160006IPhlhEET_S2_T0_RKT1_, symObjAddr: 0x16FC0, symBinAddr: 0x1000197E0, symSize: 0x40 }
  - { offsetInCU: 0x2CE49, offset: 0x4440D, size: 0x8, addend: 0x0, symName: __ZNSt3__18__fill_nB7v160006IPhlhEET_S2_T0_RKT1_, symObjAddr: 0x17000, symBinAddr: 0x100019820, symSize: 0x50 }
  - { offsetInCU: 0x2CEAC, offset: 0x44470, size: 0x8, addend: 0x0, symName: __ZNSt3__112__to_addressB7v160006I6CTxOutEEPT_S3_, symObjAddr: 0x173E0, symBinAddr: 0x100019C00, symSize: 0x10 }
  - { offsetInCU: 0x2CF08, offset: 0x444CC, size: 0x8, addend: 0x0, symName: __ZNSt3__112construct_atB7v160006I6CTxOutJRKS1_EPS1_EEPT_S6_DpOT0_, symObjAddr: 0x17450, symBinAddr: 0x100019C70, symSize: 0x40 }
  - { offsetInCU: 0x2CF7A, offset: 0x4453E, size: 0x8, addend: 0x0, symName: __ZNSt3__119__allocate_at_leastB7v160006INS_9allocatorI6CTxOutEEEENS_19__allocation_resultINS_16allocator_traitsIT_E7pointerEEERS6_m, symObjAddr: 0x17A00, symBinAddr: 0x10001A220, symSize: 0x40 }
  - { offsetInCU: 0x2CFBD, offset: 0x44581, size: 0x8, addend: 0x0, symName: __ZNSt3__142__uninitialized_allocator_move_if_noexceptB7v160006INS_9allocatorI6CTxOutEENS_16reverse_iteratorIPS2_EES6_S6_EET2_RT_T0_T1_S7_, symObjAddr: 0x17C60, symBinAddr: 0x10001A480, symSize: 0x180 }
  - { offsetInCU: 0x2D05C, offset: 0x44620, size: 0x8, addend: 0x0, symName: __ZNSt3__14swapB7v160006IP6CTxOutEENS_9enable_ifIXaasr21is_move_constructibleIT_EE5valuesr18is_move_assignableIS4_EE5valueEvE4typeERS4_S7_, symObjAddr: 0x17E30, symBinAddr: 0x10001A650, symSize: 0x40 }
  - { offsetInCU: 0x2D0AE, offset: 0x44672, size: 0x8, addend: 0x0, symName: __ZNSt3__125__debug_db_invalidate_allB7v160006INS_6vectorI6CTxOutNS_9allocatorIS2_EEEEEEvPT_, symObjAddr: 0x17F10, symBinAddr: 0x10001A730, symSize: 0x10 }
  - { offsetInCU: 0x2D0DF, offset: 0x446A3, size: 0x8, addend: 0x0, symName: __ZNSt3__122__make_exception_guardB7v160006INS_29_AllocatorDestroyRangeReverseINS_9allocatorI6CTxOutEENS_16reverse_iteratorIPS3_EEEEEENS_28__exception_guard_exceptionsIT_EESA_, symObjAddr: 0x17F60, symBinAddr: 0x10001A780, symSize: 0x60 }
  - { offsetInCU: 0x2D114, offset: 0x446D8, size: 0x8, addend: 0x0, symName: __ZNSt3__1neB7v160006IP6CTxOutS2_EEbRKNS_16reverse_iteratorIT_EERKNS3_IT0_EE, symObjAddr: 0x18000, symBinAddr: 0x10001A820, symSize: 0x40 }
  - { offsetInCU: 0x2D160, offset: 0x44724, size: 0x8, addend: 0x0, symName: __ZNSt3__112__to_addressB7v160006INS_16reverse_iteratorIP6CTxOutEEvEENS_5decayIDTclsr19__to_address_helperIT_EE6__callclsr3stdE7declvalIRKS6_EEEEE4typeES8_, symObjAddr: 0x18070, symBinAddr: 0x10001A890, symSize: 0x20 }
  - { offsetInCU: 0x2D196, offset: 0x4475A, size: 0x8, addend: 0x0, symName: __ZNSt3__112construct_atB7v160006I6CTxOutJS1_EPS1_EEPT_S4_DpOT0_, symObjAddr: 0x181D0, symBinAddr: 0x10001A9F0, symSize: 0x40 }
  - { offsetInCU: 0x2D232, offset: 0x447F6, size: 0x8, addend: 0x0, symName: __ZNSt3__14prevB7v160006IP6CTxOutEENS_9enable_ifIXsr25__is_cpp17_input_iteratorIT_EE5valueES4_E4typeES4_NS_15iterator_traitsIS4_E15difference_typeE, symObjAddr: 0x182F0, symBinAddr: 0x10001AB10, symSize: 0x50 }
  - { offsetInCU: 0x2D275, offset: 0x44839, size: 0x8, addend: 0x0, symName: __ZNSt3__19__advanceB7v160006IP6CTxOutEEvRT_NS_15iterator_traitsIS3_E15difference_typeENS_26random_access_iterator_tagE, symObjAddr: 0x18390, symBinAddr: 0x10001ABB0, symSize: 0x20 }
  - { offsetInCU: 0x2D2C0, offset: 0x44884, size: 0x8, addend: 0x0, symName: __ZNSt3__119__allocator_destroyB7v160006INS_9allocatorI6CTxOutEENS_16reverse_iteratorINS4_IPS2_EEEES7_EEvRT_T0_T1_, symObjAddr: 0x184E0, symBinAddr: 0x10001AD00, symSize: 0x70 }
  - { offsetInCU: 0x2D322, offset: 0x448E6, size: 0x8, addend: 0x0, symName: __ZNSt3__1neB7v160006INS_16reverse_iteratorIP6CTxOutEES4_EEbRKNS1_IT_EERKNS1_IT0_EE, symObjAddr: 0x18580, symBinAddr: 0x10001ADA0, symSize: 0x50 }
  - { offsetInCU: 0x2D36E, offset: 0x44932, size: 0x8, addend: 0x0, symName: __ZNSt3__112__to_addressB7v160006INS_16reverse_iteratorINS1_IP6CTxOutEEEEvEENS_5decayIDTclsr19__to_address_helperIT_EE6__callclsr3stdE7declvalIRKS7_EEEEE4typeES9_, symObjAddr: 0x185F0, symBinAddr: 0x10001AE10, symSize: 0x20 }
  - { offsetInCU: 0x2D3A4, offset: 0x44968, size: 0x8, addend: 0x0, symName: __ZNSt3__110destroy_atB7v160006I6CTxOutLi0EEEvPT_, symObjAddr: 0x18660, symBinAddr: 0x10001AE80, symSize: 0x20 }
  - { offsetInCU: 0x2D3DB, offset: 0x4499F, size: 0x8, addend: 0x0, symName: __ZNSt3__112__destroy_atB7v160006I6CTxOutLi0EEEvPT_, symObjAddr: 0x18680, symBinAddr: 0x10001AEA0, symSize: 0x20 }
  - { offsetInCU: 0x2D43C, offset: 0x44A00, size: 0x8, addend: 0x0, symName: __ZNSt3__14prevB7v160006INS_16reverse_iteratorIP6CTxOutEEEENS_9enable_ifIXsr25__is_cpp17_input_iteratorIT_EE5valueES6_E4typeES6_NS_15iterator_traitsIS6_E15difference_typeE, symObjAddr: 0x18730, symBinAddr: 0x10001AF50, symSize: 0x60 }
  - { offsetInCU: 0x2D47F, offset: 0x44A43, size: 0x8, addend: 0x0, symName: __ZNSt3__19__advanceB7v160006INS_16reverse_iteratorIP6CTxOutEEEEvRT_NS_15iterator_traitsIS5_E15difference_typeENS_26random_access_iterator_tagE, symObjAddr: 0x187E0, symBinAddr: 0x10001B000, symSize: 0x30 }
  - { offsetInCU: 0x2D4C9, offset: 0x44A8D, size: 0x8, addend: 0x0, symName: __ZNSt3__18distanceB7v160006IP5CTxInEENS_15iterator_traitsIT_E15difference_typeES4_S4_, symObjAddr: 0x18CD0, symBinAddr: 0x10001B4F0, symSize: 0x30 }
  - { offsetInCU: 0x2D50C, offset: 0x44AD0, size: 0x8, addend: 0x0, symName: __ZNSt3__14copyB7v160006IP5CTxInS2_EET0_T_S4_S3_, symObjAddr: 0x18D50, symBinAddr: 0x10001B570, symSize: 0x40 }
  - { offsetInCU: 0x2D566, offset: 0x44B2A, size: 0x8, addend: 0x0, symName: __ZNSt3__110__distanceB7v160006IP5CTxInEENS_15iterator_traitsIT_E15difference_typeES4_S4_NS_26random_access_iterator_tagE, symObjAddr: 0x18FA0, symBinAddr: 0x10001B7C0, symSize: 0x30 }
  - { offsetInCU: 0x2D5B4, offset: 0x44B78, size: 0x8, addend: 0x0, symName: __ZNSt3__121__convert_to_integralB7v160006Em, symObjAddr: 0x18FD0, symBinAddr: 0x10001B7F0, symSize: 0x10 }
  - { offsetInCU: 0x2D5E0, offset: 0x44BA4, size: 0x8, addend: 0x0, symName: __ZNSt3__16__copyB7v160006INS_17_ClassicAlgPolicyEP5CTxInS3_S3_EENS_4pairIT0_T2_EES5_T1_S6_, symObjAddr: 0x18FE0, symBinAddr: 0x10001B800, symSize: 0x40 }
  - { offsetInCU: 0x2D64C, offset: 0x44C10, size: 0x8, addend: 0x0, symName: __ZNSt3__123__dispatch_copy_or_moveB7v160006INS_17_ClassicAlgPolicyENS_11__copy_loopIS1_EENS_14__copy_trivialEP5CTxInS6_S6_EENS_4pairIT2_T4_EES8_T3_S9_, symObjAddr: 0x19020, symBinAddr: 0x10001B840, symSize: 0x40 }
  - { offsetInCU: 0x2D6CA, offset: 0x44C8E, size: 0x8, addend: 0x0, symName: __ZNSt3__121__unwrap_and_dispatchB7v160006INS_10__overloadINS_11__copy_loopINS_17_ClassicAlgPolicyEEENS_14__copy_trivialEEEP5CTxInS8_S8_Li0EEENS_4pairIT0_T2_EESA_T1_SB_, symObjAddr: 0x19060, symBinAddr: 0x10001B880, symSize: 0xB0 }
  - { offsetInCU: 0x2D75B, offset: 0x44D1F, size: 0x8, addend: 0x0, symName: __ZNSt3__114__unwrap_rangeB7v160006IP5CTxInS2_EEDaT_T0_, symObjAddr: 0x19110, symBinAddr: 0x10001B930, symSize: 0x40 }
  - { offsetInCU: 0x2D94B, offset: 0x44F0F, size: 0x8, addend: 0x0, symName: __ZNSt3__113__unwrap_iterB7v160006IP5CTxInNS_18__unwrap_iter_implIS2_Lb1EEELi0EEEDTclsrT0_8__unwrapclsr3stdE7declvalIT_EEEES6_, symObjAddr: 0x191D0, symBinAddr: 0x10001B9F0, symSize: 0x20 }
  - { offsetInCU: 0x2D98F, offset: 0x44F53, size: 0x8, addend: 0x0, symName: __ZNSt3__19make_pairB7v160006IP5CTxInS2_EENS_4pairINS_18__unwrap_ref_decayIT_E4typeENS4_IT0_E4typeEEEOS5_OS8_, symObjAddr: 0x191F0, symBinAddr: 0x10001BA10, symSize: 0x30 }
  - { offsetInCU: 0x2D9DE, offset: 0x44FA2, size: 0x8, addend: 0x0, symName: __ZNSt3__114__rewrap_rangeB7v160006IP5CTxInS2_S2_EET0_S3_T1_, symObjAddr: 0x19220, symBinAddr: 0x10001BA40, symSize: 0x30 }
  - { offsetInCU: 0x2DA33, offset: 0x44FF7, size: 0x8, addend: 0x0, symName: __ZNSt3__113__rewrap_iterB7v160006IP5CTxInS2_NS_18__unwrap_iter_implIS2_Lb1EEEEET_S5_T0_, symObjAddr: 0x19250, symBinAddr: 0x10001BA70, symSize: 0x40 }
  - { offsetInCU: 0x2DB2B, offset: 0x450EF, size: 0x8, addend: 0x0, symName: __ZNSt3__130__uninitialized_allocator_copyB7v160006INS_9allocatorI5CTxInEEPS2_S4_S4_EET2_RT_T0_T1_S5_, symObjAddr: 0x19460, symBinAddr: 0x10001BC80, symSize: 0x100 }
  - { offsetInCU: 0x2DBC9, offset: 0x4518D, size: 0x8, addend: 0x0, symName: __ZNSt3__122__make_exception_guardB7v160006INS_29_AllocatorDestroyRangeReverseINS_9allocatorI5CTxInEEPS3_EEEENS_28__exception_guard_exceptionsIT_EES8_, symObjAddr: 0x19560, symBinAddr: 0x10001BD80, symSize: 0x60 }
  - { offsetInCU: 0x2DBFE, offset: 0x451C2, size: 0x8, addend: 0x0, symName: __ZNSt3__112construct_atB7v160006I5CTxInJRS1_EPS1_EEPT_S5_DpOT0_, symObjAddr: 0x19720, symBinAddr: 0x10001BF40, symSize: 0x40 }
  - { offsetInCU: 0x2DC71, offset: 0x45235, size: 0x8, addend: 0x0, symName: __ZNSt3__119__allocator_destroyB7v160006INS_9allocatorI5CTxInEENS_16reverse_iteratorIPS2_EES6_EEvRT_T0_T1_, symObjAddr: 0x19800, symBinAddr: 0x10001C020, symSize: 0x70 }
  - { offsetInCU: 0x2DCD3, offset: 0x45297, size: 0x8, addend: 0x0, symName: __ZNSt3__18distanceB7v160006IP6CTxOutEENS_15iterator_traitsIT_E15difference_typeES4_S4_, symObjAddr: 0x19B40, symBinAddr: 0x10001C360, symSize: 0x30 }
  - { offsetInCU: 0x2DD16, offset: 0x452DA, size: 0x8, addend: 0x0, symName: __ZNSt3__14copyB7v160006IP6CTxOutS2_EET0_T_S4_S3_, symObjAddr: 0x19BC0, symBinAddr: 0x10001C3E0, symSize: 0x40 }
  - { offsetInCU: 0x2DD70, offset: 0x45334, size: 0x8, addend: 0x0, symName: __ZNSt3__110__distanceB7v160006IP6CTxOutEENS_15iterator_traitsIT_E15difference_typeES4_S4_NS_26random_access_iterator_tagE, symObjAddr: 0x19E10, symBinAddr: 0x10001C630, symSize: 0x30 }
  - { offsetInCU: 0x2DDBE, offset: 0x45382, size: 0x8, addend: 0x0, symName: __ZNSt3__16__copyB7v160006INS_17_ClassicAlgPolicyEP6CTxOutS3_S3_EENS_4pairIT0_T2_EES5_T1_S6_, symObjAddr: 0x19E40, symBinAddr: 0x10001C660, symSize: 0x40 }
  - { offsetInCU: 0x2DE2A, offset: 0x453EE, size: 0x8, addend: 0x0, symName: __ZNSt3__123__dispatch_copy_or_moveB7v160006INS_17_ClassicAlgPolicyENS_11__copy_loopIS1_EENS_14__copy_trivialEP6CTxOutS6_S6_EENS_4pairIT2_T4_EES8_T3_S9_, symObjAddr: 0x19E80, symBinAddr: 0x10001C6A0, symSize: 0x40 }
  - { offsetInCU: 0x2DEA8, offset: 0x4546C, size: 0x8, addend: 0x0, symName: __ZNSt3__121__unwrap_and_dispatchB7v160006INS_10__overloadINS_11__copy_loopINS_17_ClassicAlgPolicyEEENS_14__copy_trivialEEEP6CTxOutS8_S8_Li0EEENS_4pairIT0_T2_EESA_T1_SB_, symObjAddr: 0x19EC0, symBinAddr: 0x10001C6E0, symSize: 0xB0 }
  - { offsetInCU: 0x2DF39, offset: 0x454FD, size: 0x8, addend: 0x0, symName: __ZNSt3__114__unwrap_rangeB7v160006IP6CTxOutS2_EEDaT_T0_, symObjAddr: 0x19F70, symBinAddr: 0x10001C790, symSize: 0x40 }
  - { offsetInCU: 0x2E059, offset: 0x4561D, size: 0x8, addend: 0x0, symName: __ZNSt3__113__unwrap_iterB7v160006IP6CTxOutNS_18__unwrap_iter_implIS2_Lb1EEELi0EEEDTclsrT0_8__unwrapclsr3stdE7declvalIT_EEEES6_, symObjAddr: 0x1A030, symBinAddr: 0x10001C850, symSize: 0x20 }
  - { offsetInCU: 0x2E09D, offset: 0x45661, size: 0x8, addend: 0x0, symName: __ZNSt3__19make_pairB7v160006IP6CTxOutS2_EENS_4pairINS_18__unwrap_ref_decayIT_E4typeENS4_IT0_E4typeEEEOS5_OS8_, symObjAddr: 0x1A050, symBinAddr: 0x10001C870, symSize: 0x30 }
  - { offsetInCU: 0x2E0EC, offset: 0x456B0, size: 0x8, addend: 0x0, symName: __ZNSt3__114__rewrap_rangeB7v160006IP6CTxOutS2_S2_EET0_S3_T1_, symObjAddr: 0x1A080, symBinAddr: 0x10001C8A0, symSize: 0x30 }
  - { offsetInCU: 0x2E141, offset: 0x45705, size: 0x8, addend: 0x0, symName: __ZNSt3__113__rewrap_iterB7v160006IP6CTxOutS2_NS_18__unwrap_iter_implIS2_Lb1EEEEET_S5_T0_, symObjAddr: 0x1A0B0, symBinAddr: 0x10001C8D0, symSize: 0x40 }
  - { offsetInCU: 0x2E239, offset: 0x457FD, size: 0x8, addend: 0x0, symName: __ZNSt3__130__uninitialized_allocator_copyB7v160006INS_9allocatorI6CTxOutEEPS2_S4_S4_EET2_RT_T0_T1_S5_, symObjAddr: 0x1A290, symBinAddr: 0x10001CAB0, symSize: 0x100 }
  - { offsetInCU: 0x2E2D7, offset: 0x4589B, size: 0x8, addend: 0x0, symName: __ZNSt3__122__make_exception_guardB7v160006INS_29_AllocatorDestroyRangeReverseINS_9allocatorI6CTxOutEEPS3_EEEENS_28__exception_guard_exceptionsIT_EES8_, symObjAddr: 0x1A390, symBinAddr: 0x10001CBB0, symSize: 0x60 }
  - { offsetInCU: 0x2E30C, offset: 0x458D0, size: 0x8, addend: 0x0, symName: __ZNSt3__112construct_atB7v160006I6CTxOutJRS1_EPS1_EEPT_S5_DpOT0_, symObjAddr: 0x1A550, symBinAddr: 0x10001CD70, symSize: 0x40 }
  - { offsetInCU: 0x2E37F, offset: 0x45943, size: 0x8, addend: 0x0, symName: __ZNSt3__119__allocator_destroyB7v160006INS_9allocatorI6CTxOutEENS_16reverse_iteratorIPS2_EES6_EEvRT_T0_T1_, symObjAddr: 0x1A630, symBinAddr: 0x10001CE50, symSize: 0x70 }
  - { offsetInCU: 0x2E3E1, offset: 0x459A5, size: 0x8, addend: 0x0, symName: __ZNSt3__119__debug_db_insert_cB7v160006INS_6vectorI7uint256NS_9allocatorIS2_EEEEEEvPT_, symObjAddr: 0x1A8C0, symBinAddr: 0x10001D0E0, symSize: 0x10 }
  - { offsetInCU: 0x2E412, offset: 0x459D6, size: 0x8, addend: 0x0, symName: __ZNSt3__119__debug_db_insert_cB7v160006INS_6vectorI8CQPubKeyNS_9allocatorIS2_EEEEEEvPT_, symObjAddr: 0x1AA10, symBinAddr: 0x10001D230, symSize: 0x10 }
  - { offsetInCU: 0x2E443, offset: 0x45A07, size: 0x8, addend: 0x0, symName: __ZNSt3__119__debug_db_insert_cB7v160006INS_6vectorI7uint160NS_9allocatorIS2_EEEEEEvPT_, symObjAddr: 0x1AB60, symBinAddr: 0x10001D380, symSize: 0x10 }
  - { offsetInCU: 0x2E474, offset: 0x45A38, size: 0x8, addend: 0x0, symName: __ZNSt3__115__debug_db_swapB7v160006INS_12basic_stringIcNS_11char_traitsIcEENS_9allocatorIcEEEEEEvPT_S8_, symObjAddr: 0x1AD20, symBinAddr: 0x10001D540, symSize: 0x10 }
  - { offsetInCU: 0x2E4B3, offset: 0x45A77, size: 0x8, addend: 0x0, symName: __ZNSt3__112__to_addressB7v160006I8CQPubKeyEEPT_S3_, symObjAddr: 0x1B270, symBinAddr: 0x10001DA00, symSize: 0x10 }
  - { offsetInCU: 0x2E50F, offset: 0x45AD3, size: 0x8, addend: 0x0, symName: __ZNSt3__112construct_atB7v160006I8CQPubKeyJRKS1_EPS1_EEPT_S6_DpOT0_, symObjAddr: 0x1B2E0, symBinAddr: 0x10001DA70, symSize: 0x40 }
  - { offsetInCU: 0x2E581, offset: 0x45B45, size: 0x8, addend: 0x0, symName: __ZNSt3__119__allocate_at_leastB7v160006INS_9allocatorI8CQPubKeyEEEENS_19__allocation_resultINS_16allocator_traitsIT_E7pointerEEERS6_m, symObjAddr: 0x1B820, symBinAddr: 0x10001DFB0, symSize: 0x40 }
  - { offsetInCU: 0x2E5C4, offset: 0x45B88, size: 0x8, addend: 0x0, symName: __ZNSt3__142__uninitialized_allocator_move_if_noexceptB7v160006INS_9allocatorI8CQPubKeyEENS_16reverse_iteratorIPS2_EES6_S2_vEET1_RT_T0_SA_S7_, symObjAddr: 0x1BA70, symBinAddr: 0x10001E200, symSize: 0x70 }
  - { offsetInCU: 0x2E641, offset: 0x45C05, size: 0x8, addend: 0x0, symName: __ZNSt3__14swapB7v160006IP8CQPubKeyEENS_9enable_ifIXaasr21is_move_constructibleIT_EE5valuesr18is_move_assignableIS4_EE5valueEvE4typeERS4_S7_, symObjAddr: 0x1BB30, symBinAddr: 0x10001E2C0, symSize: 0x40 }
  - { offsetInCU: 0x2E693, offset: 0x45C57, size: 0x8, addend: 0x0, symName: __ZNSt3__125__debug_db_invalidate_allB7v160006INS_6vectorI8CQPubKeyNS_9allocatorIS2_EEEEEEvPT_, symObjAddr: 0x1BC20, symBinAddr: 0x10001E3B0, symSize: 0x10 }
  - { offsetInCU: 0x2E6C4, offset: 0x45C88, size: 0x8, addend: 0x0, symName: __ZNSt3__14moveB7v160006INS_16reverse_iteratorIP8CQPubKeyEES4_EET0_T_S6_S5_, symObjAddr: 0x1BC70, symBinAddr: 0x10001E400, symSize: 0x80 }
  - { offsetInCU: 0x2E71E, offset: 0x45CE2, size: 0x8, addend: 0x0, symName: __ZNSt3__16__moveB7v160006INS_17_ClassicAlgPolicyENS_16reverse_iteratorIP8CQPubKeyEES5_S5_EENS_4pairIT0_T2_EES7_T1_S8_, symObjAddr: 0x1BCF0, symBinAddr: 0x10001E480, symSize: 0x90 }
  - { offsetInCU: 0x2E78A, offset: 0x45D4E, size: 0x8, addend: 0x0, symName: __ZNSt3__123__dispatch_copy_or_moveB7v160006INS_17_ClassicAlgPolicyENS_11__move_loopIS1_EENS_14__move_trivialENS_16reverse_iteratorIP8CQPubKeyEES8_S8_EENS_4pairIT2_T4_EESA_T3_SB_, symObjAddr: 0x1BD80, symBinAddr: 0x10001E510, symSize: 0x90 }
  - { offsetInCU: 0x2E808, offset: 0x45DCC, size: 0x8, addend: 0x0, symName: __ZNSt3__121__unwrap_and_dispatchB7v160006INS_10__overloadINS_11__move_loopINS_17_ClassicAlgPolicyEEENS_14__move_trivialEEENS_16reverse_iteratorIP8CQPubKeyEESA_SA_Li0EEENS_4pairIT0_T2_EESC_T1_SD_, symObjAddr: 0x1BE10, symBinAddr: 0x10001E5A0, symSize: 0x210 }
  - { offsetInCU: 0x2E899, offset: 0x45E5D, size: 0x8, addend: 0x0, symName: __ZNSt3__114__unwrap_rangeB7v160006INS_16reverse_iteratorIP8CQPubKeyEES4_EEDaT_T0_, symObjAddr: 0x1C020, symBinAddr: 0x10001E7B0, symSize: 0x60 }
  - { offsetInCU: 0x2E9B9, offset: 0x45F7D, size: 0x8, addend: 0x0, symName: __ZNSt3__113__unwrap_iterB7v160006INS_16reverse_iteratorIP8CQPubKeyEENS_18__unwrap_iter_implIS4_Lb0EEELi0EEEDTclsrT0_8__unwrapclsr3stdE7declvalIT_EEEES8_, symObjAddr: 0x1C120, symBinAddr: 0x10001E8B0, symSize: 0x40 }
  - { offsetInCU: 0x2E9FD, offset: 0x45FC1, size: 0x8, addend: 0x0, symName: __ZNSt3__19make_pairB7v160006INS_16reverse_iteratorIP8CQPubKeyEES4_EENS_4pairINS_18__unwrap_ref_decayIT_E4typeENS6_IT0_E4typeEEEOS7_OSA_, symObjAddr: 0x1C160, symBinAddr: 0x10001E8F0, symSize: 0x30 }
  - { offsetInCU: 0x2EA4C, offset: 0x46010, size: 0x8, addend: 0x0, symName: __ZNSt3__114__rewrap_rangeB7v160006INS_16reverse_iteratorIP8CQPubKeyEES4_S4_EET0_S5_T1_, symObjAddr: 0x1C190, symBinAddr: 0x10001E920, symSize: 0x60 }
  - { offsetInCU: 0x2EAA1, offset: 0x46065, size: 0x8, addend: 0x0, symName: __ZNSt3__113__rewrap_iterB7v160006INS_16reverse_iteratorIP8CQPubKeyEES4_NS_18__unwrap_iter_implIS4_Lb0EEEEET_S7_T0_, symObjAddr: 0x1C1F0, symBinAddr: 0x10001E980, symSize: 0x70 }
  - { offsetInCU: 0x2EB46, offset: 0x4610A, size: 0x8, addend: 0x0, symName: __ZNSt3__1neB7v160006IP8CQPubKeyS2_EEbRKNS_16reverse_iteratorIT_EERKNS3_IT0_EE, symObjAddr: 0x1C360, symBinAddr: 0x10001EAF0, symSize: 0x40 }
  - { offsetInCU: 0x2EBFE, offset: 0x461C2, size: 0x8, addend: 0x0, symName: __ZNSt3__110destroy_atB7v160006I8CQPubKeyLi0EEEvPT_, symObjAddr: 0x1C6D0, symBinAddr: 0x10001EE60, symSize: 0x20 }
  - { offsetInCU: 0x2EC35, offset: 0x461F9, size: 0x8, addend: 0x0, symName: __ZNSt3__112__destroy_atB7v160006I8CQPubKeyLi0EEEvPT_, symObjAddr: 0x1C6F0, symBinAddr: 0x10001EE80, symSize: 0x10 }
  - { offsetInCU: 0x2EC6C, offset: 0x46230, size: 0x8, addend: 0x0, symName: __ZNSt3__112__to_addressB7v160006I7uint160EEPT_S3_, symObjAddr: 0x1C9B0, symBinAddr: 0x10001F140, symSize: 0x10 }
  - { offsetInCU: 0x2ECC8, offset: 0x4628C, size: 0x8, addend: 0x0, symName: __ZNSt3__112construct_atB7v160006I7uint160JS1_EPS1_EEPT_S4_DpOT0_, symObjAddr: 0x1CA20, symBinAddr: 0x10001F1B0, symSize: 0x40 }
  - { offsetInCU: 0x2ED3A, offset: 0x462FE, size: 0x8, addend: 0x0, symName: __ZNSt3__119__allocate_at_leastB7v160006INS_9allocatorI7uint160EEEENS_19__allocation_resultINS_16allocator_traitsIT_E7pointerEEERS6_m, symObjAddr: 0x1CF60, symBinAddr: 0x10001F6F0, symSize: 0x40 }
  - { offsetInCU: 0x2ED7D, offset: 0x46341, size: 0x8, addend: 0x0, symName: __ZNSt3__142__uninitialized_allocator_move_if_noexceptB7v160006INS_9allocatorI7uint160EENS_16reverse_iteratorIPS2_EES6_S2_vEET1_RT_T0_SA_S7_, symObjAddr: 0x1D1A0, symBinAddr: 0x10001F930, symSize: 0x70 }
  - { offsetInCU: 0x2EDFA, offset: 0x463BE, size: 0x8, addend: 0x0, symName: __ZNSt3__14swapB7v160006IP7uint160EENS_9enable_ifIXaasr21is_move_constructibleIT_EE5valuesr18is_move_assignableIS4_EE5valueEvE4typeERS4_S7_, symObjAddr: 0x1D260, symBinAddr: 0x10001F9F0, symSize: 0x40 }
  - { offsetInCU: 0x2EE4C, offset: 0x46410, size: 0x8, addend: 0x0, symName: __ZNSt3__125__debug_db_invalidate_allB7v160006INS_6vectorI7uint160NS_9allocatorIS2_EEEEEEvPT_, symObjAddr: 0x1D340, symBinAddr: 0x10001FAD0, symSize: 0x10 }
  - { offsetInCU: 0x2EE7D, offset: 0x46441, size: 0x8, addend: 0x0, symName: __ZNSt3__14moveB7v160006INS_16reverse_iteratorIP7uint160EES4_EET0_T_S6_S5_, symObjAddr: 0x1D390, symBinAddr: 0x10001FB20, symSize: 0x80 }
  - { offsetInCU: 0x2EED7, offset: 0x4649B, size: 0x8, addend: 0x0, symName: __ZNSt3__16__moveB7v160006INS_17_ClassicAlgPolicyENS_16reverse_iteratorIP7uint160EES5_S5_EENS_4pairIT0_T2_EES7_T1_S8_, symObjAddr: 0x1D410, symBinAddr: 0x10001FBA0, symSize: 0x90 }
  - { offsetInCU: 0x2EF43, offset: 0x46507, size: 0x8, addend: 0x0, symName: __ZNSt3__123__dispatch_copy_or_moveB7v160006INS_17_ClassicAlgPolicyENS_11__move_loopIS1_EENS_14__move_trivialENS_16reverse_iteratorIP7uint160EES8_S8_EENS_4pairIT2_T4_EESA_T3_SB_, symObjAddr: 0x1D4A0, symBinAddr: 0x10001FC30, symSize: 0x90 }
  - { offsetInCU: 0x2EFC1, offset: 0x46585, size: 0x8, addend: 0x0, symName: __ZNSt3__121__unwrap_and_dispatchB7v160006INS_10__overloadINS_11__move_loopINS_17_ClassicAlgPolicyEEENS_14__move_trivialEEENS_16reverse_iteratorIP7uint160EESA_SA_Li0EEENS_4pairIT0_T2_EESC_T1_SD_, symObjAddr: 0x1D530, symBinAddr: 0x10001FCC0, symSize: 0x210 }
  - { offsetInCU: 0x2F052, offset: 0x46616, size: 0x8, addend: 0x0, symName: __ZNSt3__114__unwrap_rangeB7v160006INS_16reverse_iteratorIP7uint160EES4_EEDaT_T0_, symObjAddr: 0x1D740, symBinAddr: 0x10001FED0, symSize: 0x60 }
  - { offsetInCU: 0x2F172, offset: 0x46736, size: 0x8, addend: 0x0, symName: __ZNSt3__113__unwrap_iterB7v160006INS_16reverse_iteratorIP7uint160EENS_18__unwrap_iter_implIS4_Lb0EEELi0EEEDTclsrT0_8__unwrapclsr3stdE7declvalIT_EEEES8_, symObjAddr: 0x1D850, symBinAddr: 0x10001FFE0, symSize: 0x40 }
  - { offsetInCU: 0x2F1B6, offset: 0x4677A, size: 0x8, addend: 0x0, symName: __ZNSt3__19make_pairB7v160006INS_16reverse_iteratorIP7uint160EES4_EENS_4pairINS_18__unwrap_ref_decayIT_E4typeENS6_IT0_E4typeEEEOS7_OSA_, symObjAddr: 0x1D890, symBinAddr: 0x100020020, symSize: 0x30 }
  - { offsetInCU: 0x2F205, offset: 0x467C9, size: 0x8, addend: 0x0, symName: __ZNSt3__114__rewrap_rangeB7v160006INS_16reverse_iteratorIP7uint160EES4_S4_EET0_S5_T1_, symObjAddr: 0x1D8C0, symBinAddr: 0x100020050, symSize: 0x60 }
  - { offsetInCU: 0x2F25A, offset: 0x4681E, size: 0x8, addend: 0x0, symName: __ZNSt3__113__rewrap_iterB7v160006INS_16reverse_iteratorIP7uint160EES4_NS_18__unwrap_iter_implIS4_Lb0EEEEET_S7_T0_, symObjAddr: 0x1D920, symBinAddr: 0x1000200B0, symSize: 0x70 }
  - { offsetInCU: 0x2F2FF, offset: 0x468C3, size: 0x8, addend: 0x0, symName: __ZNSt3__1neB7v160006IP7uint160S2_EEbRKNS_16reverse_iteratorIT_EERKNS3_IT0_EE, symObjAddr: 0x1DA90, symBinAddr: 0x100020220, symSize: 0x40 }
  - { offsetInCU: 0x2F3B7, offset: 0x4697B, size: 0x8, addend: 0x0, symName: __ZNSt3__110destroy_atB7v160006I7uint160Li0EEEvPT_, symObjAddr: 0x1DE00, symBinAddr: 0x100020590, symSize: 0x20 }
  - { offsetInCU: 0x2F3EE, offset: 0x469B2, size: 0x8, addend: 0x0, symName: __ZNSt3__112__destroy_atB7v160006I7uint160Li0EEEvPT_, symObjAddr: 0x1DE20, symBinAddr: 0x1000205B0, symSize: 0x10 }
  - { offsetInCU: 0x2F425, offset: 0x469E9, size: 0x8, addend: 0x0, symName: __ZNSt3__18distanceB7v160006IPhEENS_15iterator_traitsIT_E15difference_typeES3_S3_, symObjAddr: 0x1E1E0, symBinAddr: 0x100020970, symSize: 0x30 }
  - { offsetInCU: 0x2F468, offset: 0x46A2C, size: 0x8, addend: 0x0, symName: __ZNSt3__14copyB7v160006IPhS1_EET0_T_S3_S2_, symObjAddr: 0x1E260, symBinAddr: 0x1000209F0, symSize: 0x40 }
  - { offsetInCU: 0x2F4C2, offset: 0x46A86, size: 0x8, addend: 0x0, symName: __ZNSt3__110__distanceB7v160006IPhEENS_15iterator_traitsIT_E15difference_typeES3_S3_NS_26random_access_iterator_tagE, symObjAddr: 0x1E320, symBinAddr: 0x100020AB0, symSize: 0x20 }
  - { offsetInCU: 0x2F510, offset: 0x46AD4, size: 0x8, addend: 0x0, symName: __ZNSt3__16__copyB7v160006INS_17_ClassicAlgPolicyEPhS2_S2_EENS_4pairIT0_T2_EES4_T1_S5_, symObjAddr: 0x1E340, symBinAddr: 0x100020AD0, symSize: 0x40 }
  - { offsetInCU: 0x2F57C, offset: 0x46B40, size: 0x8, addend: 0x0, symName: __ZNSt3__123__dispatch_copy_or_moveB7v160006INS_17_ClassicAlgPolicyENS_11__copy_loopIS1_EENS_14__copy_trivialEPhS5_S5_EENS_4pairIT2_T4_EES7_T3_S8_, symObjAddr: 0x1E380, symBinAddr: 0x100020B10, symSize: 0x40 }
  - { offsetInCU: 0x2F5FA, offset: 0x46BBE, size: 0x8, addend: 0x0, symName: __ZNSt3__121__unwrap_and_dispatchB7v160006INS_10__overloadINS_11__copy_loopINS_17_ClassicAlgPolicyEEENS_14__copy_trivialEEEPhS7_S7_Li0EEENS_4pairIT0_T2_EES9_T1_SA_, symObjAddr: 0x1E3C0, symBinAddr: 0x100020B50, symSize: 0xB0 }
  - { offsetInCU: 0x2F68B, offset: 0x46C4F, size: 0x8, addend: 0x0, symName: __ZNSt3__18distanceB7v160006IP7uint256EENS_15iterator_traitsIT_E15difference_typeES4_S4_, symObjAddr: 0x1E6A0, symBinAddr: 0x100020E30, symSize: 0x30 }
  - { offsetInCU: 0x2F6CE, offset: 0x46C92, size: 0x8, addend: 0x0, symName: __ZNSt3__14copyB7v160006IP7uint256S2_EET0_T_S4_S3_, symObjAddr: 0x1E770, symBinAddr: 0x100020F00, symSize: 0x40 }
  - { offsetInCU: 0x2F728, offset: 0x46CEC, size: 0x8, addend: 0x0, symName: __ZNSt3__125__debug_db_invalidate_allB7v160006INS_6vectorI7uint256NS_9allocatorIS2_EEEEEEvPT_, symObjAddr: 0x1EA60, symBinAddr: 0x1000211F0, symSize: 0x10 }
  - { offsetInCU: 0x2F759, offset: 0x46D1D, size: 0x8, addend: 0x0, symName: __ZNSt3__110__distanceB7v160006IP7uint256EENS_15iterator_traitsIT_E15difference_typeES4_S4_NS_26random_access_iterator_tagE, symObjAddr: 0x1EA70, symBinAddr: 0x100021200, symSize: 0x20 }
  - { offsetInCU: 0x2F7A7, offset: 0x46D6B, size: 0x8, addend: 0x0, symName: __ZNSt3__19__advanceB7v160006IP7uint256EEvRT_NS_15iterator_traitsIS3_E15difference_typeENS_26random_access_iterator_tagE, symObjAddr: 0x1EAE0, symBinAddr: 0x100021270, symSize: 0x20 }
  - { offsetInCU: 0x2F7F1, offset: 0x46DB5, size: 0x8, addend: 0x0, symName: __ZNSt3__16__copyB7v160006INS_17_ClassicAlgPolicyEP7uint256S3_S3_EENS_4pairIT0_T2_EES5_T1_S6_, symObjAddr: 0x1EB00, symBinAddr: 0x100021290, symSize: 0x40 }
  - { offsetInCU: 0x2F85D, offset: 0x46E21, size: 0x8, addend: 0x0, symName: __ZNSt3__123__dispatch_copy_or_moveB7v160006INS_17_ClassicAlgPolicyENS_11__copy_loopIS1_EENS_14__copy_trivialEP7uint256S6_S6_EENS_4pairIT2_T4_EES8_T3_S9_, symObjAddr: 0x1EB40, symBinAddr: 0x1000212D0, symSize: 0x40 }
  - { offsetInCU: 0x2F8DB, offset: 0x46E9F, size: 0x8, addend: 0x0, symName: __ZNSt3__121__unwrap_and_dispatchB7v160006INS_10__overloadINS_11__copy_loopINS_17_ClassicAlgPolicyEEENS_14__copy_trivialEEEP7uint256S8_S8_Li0EEENS_4pairIT0_T2_EESA_T1_SB_, symObjAddr: 0x1EB80, symBinAddr: 0x100021310, symSize: 0xB0 }
  - { offsetInCU: 0x2F96C, offset: 0x46F30, size: 0x8, addend: 0x0, symName: __ZNSt3__114__unwrap_rangeB7v160006IP7uint256S2_EEDaT_T0_, symObjAddr: 0x1EC30, symBinAddr: 0x1000213C0, symSize: 0x40 }
  - { offsetInCU: 0x2FABB, offset: 0x4707F, size: 0x8, addend: 0x0, symName: __ZNSt3__113__unwrap_iterB7v160006IP7uint256NS_18__unwrap_iter_implIS2_Lb1EEELi0EEEDTclsrT0_8__unwrapclsr3stdE7declvalIT_EEEES6_, symObjAddr: 0x1ECB0, symBinAddr: 0x100021440, symSize: 0x20 }
  - { offsetInCU: 0x2FAFF, offset: 0x470C3, size: 0x8, addend: 0x0, symName: __ZNSt3__19make_pairB7v160006IP7uint256S2_EENS_4pairINS_18__unwrap_ref_decayIT_E4typeENS4_IT0_E4typeEEEOS5_OS8_, symObjAddr: 0x1ECD0, symBinAddr: 0x100021460, symSize: 0x30 }
  - { offsetInCU: 0x2FB4E, offset: 0x47112, size: 0x8, addend: 0x0, symName: __ZNSt3__114__rewrap_rangeB7v160006IP7uint256S2_S2_EET0_S3_T1_, symObjAddr: 0x1ED00, symBinAddr: 0x100021490, symSize: 0x30 }
  - { offsetInCU: 0x2FBA3, offset: 0x47167, size: 0x8, addend: 0x0, symName: __ZNSt3__113__rewrap_iterB7v160006IP7uint256S2_NS_18__unwrap_iter_implIS2_Lb1EEEEET_S5_T0_, symObjAddr: 0x1ED30, symBinAddr: 0x1000214C0, symSize: 0x40 }
  - { offsetInCU: 0x2FC48, offset: 0x4720C, size: 0x8, addend: 0x0, symName: __ZNSt3__119__copy_trivial_implB7v160006I7uint256S1_EENS_4pairIPT_PT0_EES4_S4_S6_, symObjAddr: 0x1EE20, symBinAddr: 0x1000215B0, symSize: 0x80 }
  - { offsetInCU: 0x2FCB1, offset: 0x47275, size: 0x8, addend: 0x0, symName: __ZNSt3__19make_pairB7v160006IRP7uint256S2_EENS_4pairINS_18__unwrap_ref_decayIT_E4typeENS5_IT0_E4typeEEEOS6_OS9_, symObjAddr: 0x1EEA0, symBinAddr: 0x100021630, symSize: 0x30 }
  - { offsetInCU: 0x2FD53, offset: 0x47317, size: 0x8, addend: 0x0, symName: __ZNSt3__112__to_addressB7v160006I7uint256EEPT_S3_, symObjAddr: 0x1EF50, symBinAddr: 0x1000216E0, symSize: 0x10 }
  - { offsetInCU: 0x2FD88, offset: 0x4734C, size: 0x8, addend: 0x0, symName: __ZNSt3__130__uninitialized_allocator_copyB7v160006INS_9allocatorI7uint256EEPS2_S4_S4_EET2_RT_T0_T1_S5_, symObjAddr: 0x1F010, symBinAddr: 0x1000217A0, symSize: 0x100 }
  - { offsetInCU: 0x2FE26, offset: 0x473EA, size: 0x8, addend: 0x0, symName: __ZNSt3__122__make_exception_guardB7v160006INS_29_AllocatorDestroyRangeReverseINS_9allocatorI7uint256EEPS3_EEEENS_28__exception_guard_exceptionsIT_EES8_, symObjAddr: 0x1F190, symBinAddr: 0x100021920, symSize: 0x60 }
  - { offsetInCU: 0x2FE82, offset: 0x47446, size: 0x8, addend: 0x0, symName: __ZNSt3__112construct_atB7v160006I7uint256JRS1_EPS1_EEPT_S5_DpOT0_, symObjAddr: 0x1F350, symBinAddr: 0x100021AE0, symSize: 0x40 }
  - { offsetInCU: 0x2FEF5, offset: 0x474B9, size: 0x8, addend: 0x0, symName: __ZNSt3__119__allocator_destroyB7v160006INS_9allocatorI7uint256EENS_16reverse_iteratorIPS2_EES6_EEvRT_T0_T1_, symObjAddr: 0x1F430, symBinAddr: 0x100021BC0, symSize: 0x70 }
  - { offsetInCU: 0x2FF57, offset: 0x4751B, size: 0x8, addend: 0x0, symName: __ZNSt3__1neB7v160006IP7uint256S2_EEbRKNS_16reverse_iteratorIT_EERKNS3_IT0_EE, symObjAddr: 0x1F4D0, symBinAddr: 0x100021C60, symSize: 0x40 }
  - { offsetInCU: 0x2FFA3, offset: 0x47567, size: 0x8, addend: 0x0, symName: __ZNSt3__112__to_addressB7v160006INS_16reverse_iteratorIP7uint256EEvEENS_5decayIDTclsr19__to_address_helperIT_EE6__callclsr3stdE7declvalIRKS6_EEEEE4typeES8_, symObjAddr: 0x1F530, symBinAddr: 0x100021CC0, symSize: 0x20 }
  - { offsetInCU: 0x2FFD9, offset: 0x4759D, size: 0x8, addend: 0x0, symName: __ZNSt3__110destroy_atB7v160006I7uint256Li0EEEvPT_, symObjAddr: 0x1F590, symBinAddr: 0x100021D20, symSize: 0x20 }
  - { offsetInCU: 0x30010, offset: 0x475D4, size: 0x8, addend: 0x0, symName: __ZNSt3__112__destroy_atB7v160006I7uint256Li0EEEvPT_, symObjAddr: 0x1F5B0, symBinAddr: 0x100021D40, symSize: 0x10 }
  - { offsetInCU: 0x30071, offset: 0x47635, size: 0x8, addend: 0x0, symName: __ZNSt3__14prevB7v160006IP7uint256EENS_9enable_ifIXsr25__is_cpp17_input_iteratorIT_EE5valueES4_E4typeES4_NS_15iterator_traitsIS4_E15difference_typeE, symObjAddr: 0x1F630, symBinAddr: 0x100021DC0, symSize: 0x50 }
  - { offsetInCU: 0x300B4, offset: 0x47678, size: 0x8, addend: 0x0, symName: __ZNSt3__119__allocate_at_leastB7v160006INS_9allocatorI7uint256EEEENS_19__allocation_resultINS_16allocator_traitsIT_E7pointerEEERS6_m, symObjAddr: 0x1FA70, symBinAddr: 0x100022200, symSize: 0x40 }
  - { offsetInCU: 0x300F7, offset: 0x476BB, size: 0x8, addend: 0x0, symName: __ZNSt3__18distanceB7v160006IP8CQPubKeyEENS_15iterator_traitsIT_E15difference_typeES4_S4_, symObjAddr: 0x1FDC0, symBinAddr: 0x100022550, symSize: 0x30 }
  - { offsetInCU: 0x3013A, offset: 0x476FE, size: 0x8, addend: 0x0, symName: __ZNSt3__14copyB7v160006IP8CQPubKeyS2_EET0_T_S4_S3_, symObjAddr: 0x1FE40, symBinAddr: 0x1000225D0, symSize: 0x40 }
  - { offsetInCU: 0x30194, offset: 0x47758, size: 0x8, addend: 0x0, symName: __ZNSt3__110__distanceB7v160006IP8CQPubKeyEENS_15iterator_traitsIT_E15difference_typeES4_S4_NS_26random_access_iterator_tagE, symObjAddr: 0x20090, symBinAddr: 0x100022820, symSize: 0x30 }
  - { offsetInCU: 0x301E2, offset: 0x477A6, size: 0x8, addend: 0x0, symName: __ZNSt3__19__advanceB7v160006IP8CQPubKeyEEvRT_NS_15iterator_traitsIS3_E15difference_typeENS_26random_access_iterator_tagE, symObjAddr: 0x200C0, symBinAddr: 0x100022850, symSize: 0x30 }
  - { offsetInCU: 0x3022C, offset: 0x477F0, size: 0x8, addend: 0x0, symName: __ZNSt3__16__copyB7v160006INS_17_ClassicAlgPolicyEP8CQPubKeyS3_S3_EENS_4pairIT0_T2_EES5_T1_S6_, symObjAddr: 0x200F0, symBinAddr: 0x100022880, symSize: 0x40 }
  - { offsetInCU: 0x30298, offset: 0x4785C, size: 0x8, addend: 0x0, symName: __ZNSt3__123__dispatch_copy_or_moveB7v160006INS_17_ClassicAlgPolicyENS_11__copy_loopIS1_EENS_14__copy_trivialEP8CQPubKeyS6_S6_EENS_4pairIT2_T4_EES8_T3_S9_, symObjAddr: 0x20130, symBinAddr: 0x1000228C0, symSize: 0x40 }
  - { offsetInCU: 0x30316, offset: 0x478DA, size: 0x8, addend: 0x0, symName: __ZNSt3__121__unwrap_and_dispatchB7v160006INS_10__overloadINS_11__copy_loopINS_17_ClassicAlgPolicyEEENS_14__copy_trivialEEEP8CQPubKeyS8_S8_Li0EEENS_4pairIT0_T2_EESA_T1_SB_, symObjAddr: 0x20170, symBinAddr: 0x100022900, symSize: 0xB0 }
  - { offsetInCU: 0x303A7, offset: 0x4796B, size: 0x8, addend: 0x0, symName: __ZNSt3__114__unwrap_rangeB7v160006IP8CQPubKeyS2_EEDaT_T0_, symObjAddr: 0x20220, symBinAddr: 0x1000229B0, symSize: 0x40 }
  - { offsetInCU: 0x304F6, offset: 0x47ABA, size: 0x8, addend: 0x0, symName: __ZNSt3__113__unwrap_iterB7v160006IP8CQPubKeyNS_18__unwrap_iter_implIS2_Lb1EEELi0EEEDTclsrT0_8__unwrapclsr3stdE7declvalIT_EEEES6_, symObjAddr: 0x202A0, symBinAddr: 0x100022A30, symSize: 0x20 }
  - { offsetInCU: 0x3053A, offset: 0x47AFE, size: 0x8, addend: 0x0, symName: __ZNSt3__19make_pairB7v160006IP8CQPubKeyS2_EENS_4pairINS_18__unwrap_ref_decayIT_E4typeENS4_IT0_E4typeEEEOS5_OS8_, symObjAddr: 0x202C0, symBinAddr: 0x100022A50, symSize: 0x30 }
  - { offsetInCU: 0x30589, offset: 0x47B4D, size: 0x8, addend: 0x0, symName: __ZNSt3__114__rewrap_rangeB7v160006IP8CQPubKeyS2_S2_EET0_S3_T1_, symObjAddr: 0x202F0, symBinAddr: 0x100022A80, symSize: 0x30 }
  - { offsetInCU: 0x305DE, offset: 0x47BA2, size: 0x8, addend: 0x0, symName: __ZNSt3__113__rewrap_iterB7v160006IP8CQPubKeyS2_NS_18__unwrap_iter_implIS2_Lb1EEEEET_S5_T0_, symObjAddr: 0x20320, symBinAddr: 0x100022AB0, symSize: 0x40 }
  - { offsetInCU: 0x30683, offset: 0x47C47, size: 0x8, addend: 0x0, symName: __ZNSt3__119__copy_trivial_implB7v160006I8CQPubKeyS1_EENS_4pairIPT_PT0_EES4_S4_S6_, symObjAddr: 0x20410, symBinAddr: 0x100022BA0, symSize: 0x90 }
  - { offsetInCU: 0x306EC, offset: 0x47CB0, size: 0x8, addend: 0x0, symName: __ZNSt3__19make_pairB7v160006IRP8CQPubKeyS2_EENS_4pairINS_18__unwrap_ref_decayIT_E4typeENS5_IT0_E4typeEEEOS6_OS9_, symObjAddr: 0x204A0, symBinAddr: 0x100022C30, symSize: 0x30 }
  - { offsetInCU: 0x3078E, offset: 0x47D52, size: 0x8, addend: 0x0, symName: __ZNSt3__130__uninitialized_allocator_copyB7v160006INS_9allocatorI8CQPubKeyEEPS2_S4_S4_EET2_RT_T0_T1_S5_, symObjAddr: 0x205E0, symBinAddr: 0x100022D70, symSize: 0x100 }
  - { offsetInCU: 0x3082C, offset: 0x47DF0, size: 0x8, addend: 0x0, symName: __ZNSt3__122__make_exception_guardB7v160006INS_29_AllocatorDestroyRangeReverseINS_9allocatorI8CQPubKeyEEPS3_EEEENS_28__exception_guard_exceptionsIT_EES8_, symObjAddr: 0x206E0, symBinAddr: 0x100022E70, symSize: 0x60 }
  - { offsetInCU: 0x30861, offset: 0x47E25, size: 0x8, addend: 0x0, symName: __ZNSt3__112construct_atB7v160006I8CQPubKeyJRS1_EPS1_EEPT_S5_DpOT0_, symObjAddr: 0x208A0, symBinAddr: 0x100023030, symSize: 0x40 }
  - { offsetInCU: 0x308D4, offset: 0x47E98, size: 0x8, addend: 0x0, symName: __ZNSt3__119__allocator_destroyB7v160006INS_9allocatorI8CQPubKeyEENS_16reverse_iteratorIPS2_EES6_EEvRT_T0_T1_, symObjAddr: 0x20980, symBinAddr: 0x100023110, symSize: 0x70 }
  - { offsetInCU: 0x30936, offset: 0x47EFA, size: 0x8, addend: 0x0, symName: __ZNSt3__112__to_addressB7v160006INS_16reverse_iteratorIP8CQPubKeyEEvEENS_5decayIDTclsr19__to_address_helperIT_EE6__callclsr3stdE7declvalIRKS6_EEEEE4typeES8_, symObjAddr: 0x209F0, symBinAddr: 0x100023180, symSize: 0x20 }
  - { offsetInCU: 0x30996, offset: 0x47F5A, size: 0x8, addend: 0x0, symName: __ZNSt3__14prevB7v160006IP8CQPubKeyEENS_9enable_ifIXsr25__is_cpp17_input_iteratorIT_EE5valueES4_E4typeES4_NS_15iterator_traitsIS4_E15difference_typeE, symObjAddr: 0x20A80, symBinAddr: 0x100023210, symSize: 0x50 }
  - { offsetInCU: 0x309D9, offset: 0x47F9D, size: 0x8, addend: 0x0, symName: __ZNSt3__18distanceB7v160006IP7uint160EENS_15iterator_traitsIT_E15difference_typeES4_S4_, symObjAddr: 0x20E70, symBinAddr: 0x100023600, symSize: 0x30 }
  - { offsetInCU: 0x30A1C, offset: 0x47FE0, size: 0x8, addend: 0x0, symName: __ZNSt3__14copyB7v160006IP7uint160S2_EET0_T_S4_S3_, symObjAddr: 0x20EF0, symBinAddr: 0x100023680, symSize: 0x40 }
  - { offsetInCU: 0x30A76, offset: 0x4803A, size: 0x8, addend: 0x0, symName: __ZNSt3__110__distanceB7v160006IP7uint160EENS_15iterator_traitsIT_E15difference_typeES4_S4_NS_26random_access_iterator_tagE, symObjAddr: 0x21140, symBinAddr: 0x1000238D0, symSize: 0x30 }
  - { offsetInCU: 0x30AC4, offset: 0x48088, size: 0x8, addend: 0x0, symName: __ZNSt3__19__advanceB7v160006IP7uint160EEvRT_NS_15iterator_traitsIS3_E15difference_typeENS_26random_access_iterator_tagE, symObjAddr: 0x21170, symBinAddr: 0x100023900, symSize: 0x20 }
  - { offsetInCU: 0x30B0E, offset: 0x480D2, size: 0x8, addend: 0x0, symName: __ZNSt3__16__copyB7v160006INS_17_ClassicAlgPolicyEP7uint160S3_S3_EENS_4pairIT0_T2_EES5_T1_S6_, symObjAddr: 0x21190, symBinAddr: 0x100023920, symSize: 0x40 }
  - { offsetInCU: 0x30B7A, offset: 0x4813E, size: 0x8, addend: 0x0, symName: __ZNSt3__123__dispatch_copy_or_moveB7v160006INS_17_ClassicAlgPolicyENS_11__copy_loopIS1_EENS_14__copy_trivialEP7uint160S6_S6_EENS_4pairIT2_T4_EES8_T3_S9_, symObjAddr: 0x211D0, symBinAddr: 0x100023960, symSize: 0x40 }
  - { offsetInCU: 0x30BF8, offset: 0x481BC, size: 0x8, addend: 0x0, symName: __ZNSt3__121__unwrap_and_dispatchB7v160006INS_10__overloadINS_11__copy_loopINS_17_ClassicAlgPolicyEEENS_14__copy_trivialEEEP7uint160S8_S8_Li0EEENS_4pairIT0_T2_EESA_T1_SB_, symObjAddr: 0x21210, symBinAddr: 0x1000239A0, symSize: 0xB0 }
  - { offsetInCU: 0x30C89, offset: 0x4824D, size: 0x8, addend: 0x0, symName: __ZNSt3__114__unwrap_rangeB7v160006IP7uint160S2_EEDaT_T0_, symObjAddr: 0x212C0, symBinAddr: 0x100023A50, symSize: 0x40 }
  - { offsetInCU: 0x30DD8, offset: 0x4839C, size: 0x8, addend: 0x0, symName: __ZNSt3__113__unwrap_iterB7v160006IP7uint160NS_18__unwrap_iter_implIS2_Lb1EEELi0EEEDTclsrT0_8__unwrapclsr3stdE7declvalIT_EEEES6_, symObjAddr: 0x21340, symBinAddr: 0x100023AD0, symSize: 0x20 }
  - { offsetInCU: 0x30E1C, offset: 0x483E0, size: 0x8, addend: 0x0, symName: __ZNSt3__19make_pairB7v160006IP7uint160S2_EENS_4pairINS_18__unwrap_ref_decayIT_E4typeENS4_IT0_E4typeEEEOS5_OS8_, symObjAddr: 0x21360, symBinAddr: 0x100023AF0, symSize: 0x30 }
  - { offsetInCU: 0x30E6B, offset: 0x4842F, size: 0x8, addend: 0x0, symName: __ZNSt3__114__rewrap_rangeB7v160006IP7uint160S2_S2_EET0_S3_T1_, symObjAddr: 0x21390, symBinAddr: 0x100023B20, symSize: 0x30 }
  - { offsetInCU: 0x30EC0, offset: 0x48484, size: 0x8, addend: 0x0, symName: __ZNSt3__113__rewrap_iterB7v160006IP7uint160S2_NS_18__unwrap_iter_implIS2_Lb1EEEEET_S5_T0_, symObjAddr: 0x213C0, symBinAddr: 0x100023B50, symSize: 0x40 }
  - { offsetInCU: 0x30F65, offset: 0x48529, size: 0x8, addend: 0x0, symName: __ZNSt3__119__copy_trivial_implB7v160006I7uint160S1_EENS_4pairIPT_PT0_EES4_S4_S6_, symObjAddr: 0x214B0, symBinAddr: 0x100023C40, symSize: 0x90 }
  - { offsetInCU: 0x30FCE, offset: 0x48592, size: 0x8, addend: 0x0, symName: __ZNSt3__19make_pairB7v160006IRP7uint160S2_EENS_4pairINS_18__unwrap_ref_decayIT_E4typeENS5_IT0_E4typeEEEOS6_OS9_, symObjAddr: 0x21540, symBinAddr: 0x100023CD0, symSize: 0x30 }
  - { offsetInCU: 0x31070, offset: 0x48634, size: 0x8, addend: 0x0, symName: __ZNSt3__130__uninitialized_allocator_copyB7v160006INS_9allocatorI7uint160EEPS2_S4_S4_EET2_RT_T0_T1_S5_, symObjAddr: 0x21680, symBinAddr: 0x100023E10, symSize: 0x100 }
  - { offsetInCU: 0x3110E, offset: 0x486D2, size: 0x8, addend: 0x0, symName: __ZNSt3__122__make_exception_guardB7v160006INS_29_AllocatorDestroyRangeReverseINS_9allocatorI7uint160EEPS3_EEEENS_28__exception_guard_exceptionsIT_EES8_, symObjAddr: 0x21780, symBinAddr: 0x100023F10, symSize: 0x60 }
  - { offsetInCU: 0x31143, offset: 0x48707, size: 0x8, addend: 0x0, symName: __ZNSt3__112construct_atB7v160006I7uint160JRS1_EPS1_EEPT_S5_DpOT0_, symObjAddr: 0x21940, symBinAddr: 0x1000240D0, symSize: 0x40 }
  - { offsetInCU: 0x311B6, offset: 0x4877A, size: 0x8, addend: 0x0, symName: __ZNSt3__119__allocator_destroyB7v160006INS_9allocatorI7uint160EENS_16reverse_iteratorIPS2_EES6_EEvRT_T0_T1_, symObjAddr: 0x21A20, symBinAddr: 0x1000241B0, symSize: 0x70 }
  - { offsetInCU: 0x31218, offset: 0x487DC, size: 0x8, addend: 0x0, symName: __ZNSt3__112__to_addressB7v160006INS_16reverse_iteratorIP7uint160EEvEENS_5decayIDTclsr19__to_address_helperIT_EE6__callclsr3stdE7declvalIRKS6_EEEEE4typeES8_, symObjAddr: 0x21A90, symBinAddr: 0x100024220, symSize: 0x20 }
  - { offsetInCU: 0x31278, offset: 0x4883C, size: 0x8, addend: 0x0, symName: __ZNSt3__14prevB7v160006IP7uint160EENS_9enable_ifIXsr25__is_cpp17_input_iteratorIT_EE5valueES4_E4typeES4_NS_15iterator_traitsIS4_E15difference_typeE, symObjAddr: 0x21B20, symBinAddr: 0x1000242B0, symSize: 0x50 }
  - { offsetInCU: 0x312BB, offset: 0x4887F, size: 0x8, addend: 0x0, symName: __ZNSt3__1eqB7v160006IP5CTxInEEbRKNS_11__wrap_iterIT_EES7_, symObjAddr: 0x21DE0, symBinAddr: 0x100024570, symSize: 0x40 }
  - { offsetInCU: 0x312FE, offset: 0x488C2, size: 0x8, addend: 0x0, symName: __ZNSt3__18distanceB7v160006IPNS_6vectorIhNS_9allocatorIhEEEEEENS_15iterator_traitsIT_E15difference_typeES7_S7_, symObjAddr: 0x22040, symBinAddr: 0x1000247D0, symSize: 0x30 }
  - { offsetInCU: 0x31341, offset: 0x48905, size: 0x8, addend: 0x0, symName: __ZNSt3__14copyB7v160006IPNS_6vectorIhNS_9allocatorIhEEEES5_EET0_T_S7_S6_, symObjAddr: 0x220C0, symBinAddr: 0x100024850, symSize: 0x40 }
  - { offsetInCU: 0x3139B, offset: 0x4895F, size: 0x8, addend: 0x0, symName: __ZNSt3__110__distanceB7v160006IPNS_6vectorIhNS_9allocatorIhEEEEEENS_15iterator_traitsIT_E15difference_typeES7_S7_NS_26random_access_iterator_tagE, symObjAddr: 0x221E0, symBinAddr: 0x100024970, symSize: 0x30 }
  - { offsetInCU: 0x313E9, offset: 0x489AD, size: 0x8, addend: 0x0, symName: __ZNSt3__16__copyB7v160006INS_17_ClassicAlgPolicyEPNS_6vectorIhNS_9allocatorIhEEEES6_S6_EENS_4pairIT0_T2_EES8_T1_S9_, symObjAddr: 0x22210, symBinAddr: 0x1000249A0, symSize: 0x40 }
  - { offsetInCU: 0x31455, offset: 0x48A19, size: 0x8, addend: 0x0, symName: __ZNSt3__123__dispatch_copy_or_moveB7v160006INS_17_ClassicAlgPolicyENS_11__copy_loopIS1_EENS_14__copy_trivialEPNS_6vectorIhNS_9allocatorIhEEEES9_S9_EENS_4pairIT2_T4_EESB_T3_SC_, symObjAddr: 0x22250, symBinAddr: 0x1000249E0, symSize: 0x40 }
  - { offsetInCU: 0x314D3, offset: 0x48A97, size: 0x8, addend: 0x0, symName: __ZNSt3__121__unwrap_and_dispatchB7v160006INS_10__overloadINS_11__copy_loopINS_17_ClassicAlgPolicyEEENS_14__copy_trivialEEEPNS_6vectorIhNS_9allocatorIhEEEESB_SB_Li0EEENS_4pairIT0_T2_EESD_T1_SE_, symObjAddr: 0x22290, symBinAddr: 0x100024A20, symSize: 0xB0 }
  - { offsetInCU: 0x31564, offset: 0x48B28, size: 0x8, addend: 0x0, symName: __ZNSt3__114__unwrap_rangeB7v160006IPNS_6vectorIhNS_9allocatorIhEEEES5_EEDaT_T0_, symObjAddr: 0x22340, symBinAddr: 0x100024AD0, symSize: 0x40 }
  - { offsetInCU: 0x31684, offset: 0x48C48, size: 0x8, addend: 0x0, symName: __ZNSt3__113__unwrap_iterB7v160006IPNS_6vectorIhNS_9allocatorIhEEEENS_18__unwrap_iter_implIS5_Lb1EEELi0EEEDTclsrT0_8__unwrapclsr3stdE7declvalIT_EEEES9_, symObjAddr: 0x22400, symBinAddr: 0x100024B90, symSize: 0x20 }
  - { offsetInCU: 0x316C8, offset: 0x48C8C, size: 0x8, addend: 0x0, symName: __ZNSt3__19make_pairB7v160006IPNS_6vectorIhNS_9allocatorIhEEEES5_EENS_4pairINS_18__unwrap_ref_decayIT_E4typeENS7_IT0_E4typeEEEOS8_OSB_, symObjAddr: 0x22420, symBinAddr: 0x100024BB0, symSize: 0x30 }
  - { offsetInCU: 0x31717, offset: 0x48CDB, size: 0x8, addend: 0x0, symName: __ZNSt3__114__rewrap_rangeB7v160006IPNS_6vectorIhNS_9allocatorIhEEEES5_S5_EET0_S6_T1_, symObjAddr: 0x22450, symBinAddr: 0x100024BE0, symSize: 0x30 }
  - { offsetInCU: 0x3176C, offset: 0x48D30, size: 0x8, addend: 0x0, symName: __ZNSt3__113__rewrap_iterB7v160006IPNS_6vectorIhNS_9allocatorIhEEEES5_NS_18__unwrap_iter_implIS5_Lb1EEEEET_S8_T0_, symObjAddr: 0x22480, symBinAddr: 0x100024C10, symSize: 0x40 }
  - { offsetInCU: 0x31864, offset: 0x48E28, size: 0x8, addend: 0x0, symName: __ZNSt3__118__debug_db_erase_cB7v160006INS_6vectorI7uint256NS_9allocatorIS2_EEEEEEvPT_, symObjAddr: 0x228A0, symBinAddr: 0x100025030, symSize: 0x10 }
  - { offsetInCU: 0x31895, offset: 0x48E59, size: 0x8, addend: 0x0, symName: __ZNSt3__118__debug_db_erase_cB7v160006INS_6vectorI7uint160NS_9allocatorIS2_EEEEEEvPT_, symObjAddr: 0x229D0, symBinAddr: 0x100025160, symSize: 0x10 }
  - { offsetInCU: 0x318C6, offset: 0x48E8A, size: 0x8, addend: 0x0, symName: __ZNSt3__118__debug_db_erase_cB7v160006INS_6vectorI8CQPubKeyNS_9allocatorIS2_EEEEEEvPT_, symObjAddr: 0x22B00, symBinAddr: 0x100025290, symSize: 0x10 }
  - { offsetInCU: 0x318F7, offset: 0x48EBB, size: 0x8, addend: 0x0, symName: __ZNSt3__1eqB7v160006IPKxEEbRKNS_11__wrap_iterIT_EES7_, symObjAddr: 0x22E90, symBinAddr: 0x100025620, symSize: 0x40 }
  - { offsetInCU: 0x3193A, offset: 0x48EFE, size: 0x8, addend: 0x0, symName: __ZNSt3__1eqB7v160006IPK6CTxOutEEbRKNS_11__wrap_iterIT_EES8_, symObjAddr: 0x22F70, symBinAddr: 0x100025700, symSize: 0x40 }
  - { offsetInCU: 0x3197D, offset: 0x48F41, size: 0x8, addend: 0x0, symName: __ZNSt3__1eqB7v160006INS_6vectorIhNS_9allocatorIhEEEENS2_IS4_EEEEbRKNS1_IT_T0_EESA_, symObjAddr: 0x22FD0, symBinAddr: 0x100025760, symSize: 0x90 }
  - { offsetInCU: 0x319DB, offset: 0x48F9F, size: 0x8, addend: 0x0, symName: __ZNSt3__15equalB7v160006INS_11__wrap_iterIPKNS_6vectorIhNS_9allocatorIhEEEEEES8_EEbT_S9_T0_, symObjAddr: 0x23060, symBinAddr: 0x1000257F0, symSize: 0x50 }
  - { offsetInCU: 0x31A35, offset: 0x48FF9, size: 0x8, addend: 0x0, symName: __ZNSt3__15equalB7v160006INS_11__wrap_iterIPKNS_6vectorIhNS_9allocatorIhEEEEEES8_NS_10__equal_toEEEbT_SA_T0_T1_, symObjAddr: 0x23110, symBinAddr: 0x1000258A0, symSize: 0xA0 }
  - { offsetInCU: 0x31AA6, offset: 0x4906A, size: 0x8, addend: 0x0, symName: __ZNSt3__1neB7v160006IPKNS_6vectorIhNS_9allocatorIhEEEEEEbRKNS_11__wrap_iterIT_EESB_, symObjAddr: 0x231B0, symBinAddr: 0x100025940, symSize: 0x30 }
  - { offsetInCU: 0x31B55, offset: 0x49119, size: 0x8, addend: 0x0, symName: __ZNSt3__1eqB7v160006IPKNS_6vectorIhNS_9allocatorIhEEEEEEbRKNS_11__wrap_iterIT_EESB_, symObjAddr: 0x23250, symBinAddr: 0x1000259E0, symSize: 0x40 }
  - { offsetInCU: 0x31B98, offset: 0x4915C, size: 0x8, addend: 0x0, symName: __ZNSt3__1eqB7v160006IhNS_9allocatorIhEEEEbRKNS_6vectorIT_T0_EES8_, symObjAddr: 0x232B0, symBinAddr: 0x100025A40, symSize: 0x90 }
  - { offsetInCU: 0x31BF6, offset: 0x491BA, size: 0x8, addend: 0x0, symName: __ZNSt3__15equalB7v160006INS_11__wrap_iterIPKhEES4_EEbT_S5_T0_, symObjAddr: 0x23340, symBinAddr: 0x100025AD0, symSize: 0x50 }
  - { offsetInCU: 0x31C50, offset: 0x49214, size: 0x8, addend: 0x0, symName: __ZNSt3__15equalB7v160006INS_11__wrap_iterIPKhEES4_NS_10__equal_toEEEbT_S6_T0_T1_, symObjAddr: 0x233F0, symBinAddr: 0x100025B80, symSize: 0xA0 }
  - { offsetInCU: 0x31CC1, offset: 0x49285, size: 0x8, addend: 0x0, symName: __ZNSt3__1neB7v160006IPKhEEbRKNS_11__wrap_iterIT_EES7_, symObjAddr: 0x23490, symBinAddr: 0x100025C20, symSize: 0x30 }
  - { offsetInCU: 0x31D04, offset: 0x492C8, size: 0x8, addend: 0x0, symName: __ZNSt3__1eqB7v160006IPKhEEbRKNS_11__wrap_iterIT_EES7_, symObjAddr: 0x23530, symBinAddr: 0x100025CC0, symSize: 0x40 }
  - { offsetInCU: 0x31D47, offset: 0x4930B, size: 0x8, addend: 0x0, symName: __ZNSt3__18as_bytesB7v160006IKhLm18446744073709551615EEEDaNS_4spanIT_XT0_EEE, symObjAddr: 0x23880, symBinAddr: 0x100026010, symSize: 0x30 }
  - { offsetInCU: 0x31D91, offset: 0x49355, size: 0x8, addend: 0x0, symName: __ZNSt3__16cbeginB7v160006IA2_hEEDTclsr3stdE5beginfp_EERKT_, symObjAddr: 0x23CA0, symBinAddr: 0x100026430, symSize: 0x20 }
  - { offsetInCU: 0x31DC6, offset: 0x4938A, size: 0x8, addend: 0x0, symName: __ZNSt3__14cendB7v160006IA2_hEEDTclsr3stdE3endfp_EERKT_, symObjAddr: 0x23CC0, symBinAddr: 0x100026450, symSize: 0x20 }
  - { offsetInCU: 0x31DFB, offset: 0x493BF, size: 0x8, addend: 0x0, symName: __ZNSt3__16cbeginB7v160006IA4_hEEDTclsr3stdE5beginfp_EERKT_, symObjAddr: 0x23CE0, symBinAddr: 0x100026470, symSize: 0x20 }
  - { offsetInCU: 0x31E30, offset: 0x493F4, size: 0x8, addend: 0x0, symName: __ZNSt3__14cendB7v160006IA4_hEEDTclsr3stdE3endfp_EERKT_, symObjAddr: 0x23D00, symBinAddr: 0x100026490, symSize: 0x20 }
  - { offsetInCU: 0x31E65, offset: 0x49429, size: 0x8, addend: 0x0, symName: __ZNSt3__15beginB7v160006IKhLm2EEEPT_RAT0__S2_, symObjAddr: 0x23D90, symBinAddr: 0x100026520, symSize: 0x10 }
  - { offsetInCU: 0x31EA4, offset: 0x49468, size: 0x8, addend: 0x0, symName: __ZNSt3__13endB7v160006IKhLm2EEEPT_RAT0__S2_, symObjAddr: 0x23DA0, symBinAddr: 0x100026530, symSize: 0x20 }
  - { offsetInCU: 0x31EE3, offset: 0x494A7, size: 0x8, addend: 0x0, symName: __ZNSt3__15beginB7v160006IKhLm4EEEPT_RAT0__S2_, symObjAddr: 0x23DC0, symBinAddr: 0x100026550, symSize: 0x10 }
  - { offsetInCU: 0x31F22, offset: 0x494E6, size: 0x8, addend: 0x0, symName: __ZNSt3__13endB7v160006IKhLm4EEEPT_RAT0__S2_, symObjAddr: 0x23DD0, symBinAddr: 0x100026560, symSize: 0x20 }
  - { offsetInCU: 0x31F61, offset: 0x49525, size: 0x8, addend: 0x0, symName: __ZNSt3__1miB7v160006IPKhS2_EEDTmicldtfp_4baseEcldtfp0_4baseEERKNS_11__wrap_iterIT_EERKNS4_IT0_EE, symObjAddr: 0x23FA0, symBinAddr: 0x100026730, symSize: 0x40 }
  - { offsetInCU: 0x31FAD, offset: 0x49571, size: 0x8, addend: 0x0, symName: __ZNSt3__110to_addressB7v160006IKSt4byteEEDaPT_, symObjAddr: 0x24140, symBinAddr: 0x1000268D0, symSize: 0x20 }
  - { offsetInCU: 0x31FE2, offset: 0x495A6, size: 0x8, addend: 0x0, symName: __ZNSt3__112__to_addressB7v160006IKSt4byteEEPT_S4_, symObjAddr: 0x24160, symBinAddr: 0x1000268F0, symSize: 0x10 }
  - { offsetInCU: 0x32017, offset: 0x495DB, size: 0x8, addend: 0x0, symName: __ZNSt3__1eqB7v160006IPK15CQuantumKeyPairEEbRKNS_11__wrap_iterIT_EES8_, symObjAddr: 0x243C0, symBinAddr: 0x100026B50, symSize: 0x40 }
  - { offsetInCU: 0x3205A, offset: 0x4961E, size: 0x8, addend: 0x0, symName: __ZNSt3__119__debug_db_insert_cB7v160006INS_6vectorI5CTxInNS_9allocatorIS2_EEEEEEvPT_, symObjAddr: 0x24580, symBinAddr: 0x100026D10, symSize: 0x10 }
  - { offsetInCU: 0x3208B, offset: 0x4964F, size: 0x8, addend: 0x0, symName: __ZNSt3__119__debug_db_insert_cB7v160006INS_6vectorI6CTxOutNS_9allocatorIS2_EEEEEEvPT_, symObjAddr: 0x246B0, symBinAddr: 0x100026E40, symSize: 0x10 }
  - { offsetInCU: 0x320BC, offset: 0x49680, size: 0x8, addend: 0x0, symName: __ZNSt3__119__debug_db_insert_cB7v160006INS_6vectorI15CQuantumKeyPairNS_9allocatorIS2_EEEEEEvPT_, symObjAddr: 0x247E0, symBinAddr: 0x100026F70, symSize: 0x10 }
  - { offsetInCU: 0x320ED, offset: 0x496B1, size: 0x8, addend: 0x0, symName: __ZNSt3__119__debug_db_insert_cB7v160006INS_6vectorIxNS_9allocatorIxEEEEEEvPT_, symObjAddr: 0x24910, symBinAddr: 0x1000270A0, symSize: 0x10 }
  - { offsetInCU: 0x3211E, offset: 0x496E2, size: 0x8, addend: 0x0, symName: __ZNSt3__1eqB7v160006IPK9COutPointEEbRKNS_11__wrap_iterIT_EES8_, symObjAddr: 0x24A30, symBinAddr: 0x1000271C0, symSize: 0x40 }
  - { offsetInCU: 0x32161, offset: 0x49725, size: 0x8, addend: 0x0, symName: __ZNSt3__1eqB7v160006IPKNS_4pairI7uint160xEEEEbRKNS_11__wrap_iterIT_EESA_, symObjAddr: 0x24B10, symBinAddr: 0x1000272A0, symSize: 0x40 }
  - { offsetInCU: 0x321A4, offset: 0x49768, size: 0x8, addend: 0x0, symName: __ZNSt3__118__debug_db_erase_cB7v160006INS_6vectorIxNS_9allocatorIxEEEEEEvPT_, symObjAddr: 0x24D60, symBinAddr: 0x1000274F0, symSize: 0x10 }
  - { offsetInCU: 0x321D5, offset: 0x49799, size: 0x8, addend: 0x0, symName: __ZNSt3__118__debug_db_erase_cB7v160006INS_6vectorI15CQuantumKeyPairNS_9allocatorIS2_EEEEEEvPT_, symObjAddr: 0x24E90, symBinAddr: 0x100027620, symSize: 0x10 }
  - { offsetInCU: 0x32206, offset: 0x497CA, size: 0x8, addend: 0x0, symName: __ZNSt3__118__debug_db_erase_cB7v160006INS_6vectorI6CTxOutNS_9allocatorIS2_EEEEEEvPT_, symObjAddr: 0x24FC0, symBinAddr: 0x100027750, symSize: 0x10 }
  - { offsetInCU: 0x32237, offset: 0x497FB, size: 0x8, addend: 0x0, symName: __ZNSt3__118__debug_db_erase_cB7v160006INS_6vectorI5CTxInNS_9allocatorIS2_EEEEEEvPT_, symObjAddr: 0x250F0, symBinAddr: 0x100027880, symSize: 0x10 }
  - { offsetInCU: 0x32268, offset: 0x4982C, size: 0x8, addend: 0x0, symName: __ZNSt3__110destroy_atB7v160006INS_4pairIK7uint160mEELi0EEEvPT_, symObjAddr: 0x25400, symBinAddr: 0x100027B90, symSize: 0x20 }
  - { offsetInCU: 0x3229F, offset: 0x49863, size: 0x8, addend: 0x0, symName: __ZNSt3__112__destroy_atB7v160006INS_4pairIK7uint160mEELi0EEEvPT_, symObjAddr: 0x25420, symBinAddr: 0x100027BB0, symSize: 0x10 }
  - { offsetInCU: 0x322D6, offset: 0x4989A, size: 0x8, addend: 0x0, symName: __ZNSt3__17launderB7v160006INS_4pairIK7uint160mEEEEPT_S6_, symObjAddr: 0x25450, symBinAddr: 0x100027BE0, symSize: 0x20 }
  - { offsetInCU: 0x3230D, offset: 0x498D1, size: 0x8, addend: 0x0, symName: __ZNSt3__19__launderB7v160006INS_4pairIK7uint160mEEEEPT_S6_, symObjAddr: 0x25470, symBinAddr: 0x100027C00, symSize: 0x10 }
  - { offsetInCU: 0x3274D, offset: 0x49D11, size: 0x8, addend: 0x0, symName: __ZNSt3__18as_bytesB7v160006IhLm18446744073709551615EEEDaNS_4spanIT_XT0_EEE, symObjAddr: 0x260E0, symBinAddr: 0x100028840, symSize: 0x30 }
  - { offsetInCU: 0x32797, offset: 0x49D5B, size: 0x8, addend: 0x0, symName: __ZNSt3__18as_bytesB7v160006ItLm18446744073709551615EEEDaNS_4spanIT_XT0_EEE, symObjAddr: 0x261A0, symBinAddr: 0x100028900, symSize: 0x30 }
  - { offsetInCU: 0x32A57, offset: 0x4A01B, size: 0x8, addend: 0x0, symName: __ZNSt3__110to_addressB7v160006ItEEDaPT_, symObjAddr: 0x262E0, symBinAddr: 0x100028A40, symSize: 0x20 }
  - { offsetInCU: 0x32A8C, offset: 0x4A050, size: 0x8, addend: 0x0, symName: __ZNSt3__112__to_addressB7v160006ItEEPT_S2_, symObjAddr: 0x26300, symBinAddr: 0x100028A60, symSize: 0x10 }
  - { offsetInCU: 0x32AC1, offset: 0x4A085, size: 0x8, addend: 0x0, symName: __ZNSt3__18as_bytesB7v160006IjLm18446744073709551615EEEDaNS_4spanIT_XT0_EEE, symObjAddr: 0x26320, symBinAddr: 0x100028A80, symSize: 0x30 }
  - { offsetInCU: 0x32D81, offset: 0x4A345, size: 0x8, addend: 0x0, symName: __ZNSt3__110to_addressB7v160006IjEEDaPT_, symObjAddr: 0x26460, symBinAddr: 0x100028BC0, symSize: 0x20 }
  - { offsetInCU: 0x32DB6, offset: 0x4A37A, size: 0x8, addend: 0x0, symName: __ZNSt3__112__to_addressB7v160006IjEEPT_S2_, symObjAddr: 0x26480, symBinAddr: 0x100028BE0, symSize: 0x10 }
  - { offsetInCU: 0x32DEB, offset: 0x4A3AF, size: 0x8, addend: 0x0, symName: __ZNSt3__18as_bytesB7v160006IyLm18446744073709551615EEEDaNS_4spanIT_XT0_EEE, symObjAddr: 0x264A0, symBinAddr: 0x100028C00, symSize: 0x30 }
  - { offsetInCU: 0x330AB, offset: 0x4A66F, size: 0x8, addend: 0x0, symName: __ZNSt3__110to_addressB7v160006IyEEDaPT_, symObjAddr: 0x265E0, symBinAddr: 0x100028D40, symSize: 0x20 }
  - { offsetInCU: 0x330E0, offset: 0x4A6A4, size: 0x8, addend: 0x0, symName: __ZNSt3__112__to_addressB7v160006IyEEPT_S2_, symObjAddr: 0x26600, symBinAddr: 0x100028D60, symSize: 0x10 }
  - { offsetInCU: 0x33115, offset: 0x4A6D9, size: 0x8, addend: 0x0, symName: __ZNSt3__1neB7v160006IPK7uint256EEbRKNS_11__wrap_iterIT_EES8_, symObjAddr: 0x267B0, symBinAddr: 0x100028F10, symSize: 0x30 }
  - { offsetInCU: 0x33158, offset: 0x4A71C, size: 0x8, addend: 0x0, symName: __ZNSt3__1eqB7v160006IPK7uint256EEbRKNS_11__wrap_iterIT_EES8_, symObjAddr: 0x268D0, symBinAddr: 0x100029030, symSize: 0x40 }
  - { offsetInCU: 0x3319B, offset: 0x4A75F, size: 0x8, addend: 0x0, symName: __ZNSt3__18as_bytesB7v160006IKhLm32EEEDaNS_4spanIT_XT0_EEE, symObjAddr: 0x26A70, symBinAddr: 0x1000291D0, symSize: 0x30 }
  - { offsetInCU: 0x331DC, offset: 0x4A7A0, size: 0x8, addend: 0x0, symName: __ZNSt3__1neB7v160006IPK7uint160EEbRKNS_11__wrap_iterIT_EES8_, symObjAddr: 0x270E0, symBinAddr: 0x100029840, symSize: 0x30 }
  - { offsetInCU: 0x3321F, offset: 0x4A7E3, size: 0x8, addend: 0x0, symName: __ZNSt3__1eqB7v160006IPK7uint160EEbRKNS_11__wrap_iterIT_EES8_, symObjAddr: 0x27200, symBinAddr: 0x100029960, symSize: 0x40 }
  - { offsetInCU: 0x33262, offset: 0x4A826, size: 0x8, addend: 0x0, symName: __ZNSt3__18as_bytesB7v160006IKhLm20EEEDaNS_4spanIT_XT0_EEE, symObjAddr: 0x273A0, symBinAddr: 0x100029B00, symSize: 0x30 }
  - { offsetInCU: 0x3B2FE, offset: 0x528C2, size: 0x8, addend: 0x0, symName: __ZNSt3__1lsB7v160006IcNS_11char_traitsIcEENS_9allocatorIcEEEERNS_13basic_ostreamIT_T0_EES9_RKNS_12basic_stringIS6_S7_T1_EE, symObjAddr: 0x29330, symBinAddr: 0x10002B9D0, symSize: 0x50 }
  - { offsetInCU: 0x3B356, offset: 0x5291A, size: 0x8, addend: 0x0, symName: __ZNSt3__1lsB7v160006INS_11char_traitsIcEEEERNS_13basic_ostreamIcT_EES6_c, symObjAddr: 0x2A560, symBinAddr: 0x10002C430, symSize: 0x30 }
  - { offsetInCU: 0x3B39C, offset: 0x52960, size: 0x8, addend: 0x0, symName: __ZNSt3__13minB7v160006IiEERKT_S3_S3_, symObjAddr: 0x2A590, symBinAddr: 0x10002C460, symSize: 0x30 }
  - { offsetInCU: 0x3B3DF, offset: 0x529A3, size: 0x8, addend: 0x0, symName: __ZNSt3__13minB7v160006IiNS_6__lessIiiEEEERKT_S5_S5_T0_, symObjAddr: 0x2A5C0, symBinAddr: 0x10002C490, symSize: 0x50 }
  - { offsetInCU: 0x3B474, offset: 0x52A38, size: 0x8, addend: 0x0, symName: __ZNSt3__13minB7v160006IjEERKT_S3_S3_, symObjAddr: 0x2B2A0, symBinAddr: 0x10002D130, symSize: 0x30 }
  - { offsetInCU: 0x3B4B7, offset: 0x52A7B, size: 0x8, addend: 0x0, symName: __ZNSt3__117as_writable_bytesB7v160006IhLm18446744073709551615EEEDaNS_4spanIT_XT0_EEE, symObjAddr: 0x2B420, symBinAddr: 0x10002D2B0, symSize: 0x30 }
  - { offsetInCU: 0x3B501, offset: 0x52AC5, size: 0x8, addend: 0x0, symName: __ZNSt3__117as_writable_bytesB7v160006ItLm18446744073709551615EEEDaNS_4spanIT_XT0_EEE, symObjAddr: 0x2B620, symBinAddr: 0x10002D4B0, symSize: 0x30 }
  - { offsetInCU: 0x3B54B, offset: 0x52B0F, size: 0x8, addend: 0x0, symName: __ZNSt3__110to_addressB7v160006ISt4byteEEDaPT_, symObjAddr: 0x2B740, symBinAddr: 0x10002D5D0, symSize: 0x20 }
  - { offsetInCU: 0x3B580, offset: 0x52B44, size: 0x8, addend: 0x0, symName: __ZNSt3__112__to_addressB7v160006ISt4byteEEPT_S3_, symObjAddr: 0x2B760, symBinAddr: 0x10002D5F0, symSize: 0x10 }
  - { offsetInCU: 0x3B5C8, offset: 0x52B8C, size: 0x8, addend: 0x0, symName: __ZNSt3__115make_error_codeB7v160006ENS_7io_errcE, symObjAddr: 0x2B7C0, symBinAddr: 0x10002D650, symSize: 0x40 }
  - { offsetInCU: 0x3B5F6, offset: 0x52BBA, size: 0x8, addend: 0x0, symName: __ZNSt3__117as_writable_bytesB7v160006IjLm18446744073709551615EEEDaNS_4spanIT_XT0_EEE, symObjAddr: 0x2B860, symBinAddr: 0x10002D6F0, symSize: 0x30 }
  - { offsetInCU: 0x3B640, offset: 0x52C04, size: 0x8, addend: 0x0, symName: __ZNSt3__117as_writable_bytesB7v160006IyLm18446744073709551615EEEDaNS_4spanIT_XT0_EEE, symObjAddr: 0x2B900, symBinAddr: 0x10002D790, symSize: 0x30 }
  - { offsetInCU: 0x3B68A, offset: 0x52C4E, size: 0x8, addend: 0x0, symName: __ZNSt3__13minB7v160006IjNS_6__lessIjjEEEERKT_S5_S5_T0_, symObjAddr: 0x2B9A0, symBinAddr: 0x10002D830, symSize: 0x50 }
  - { offsetInCU: 0x3B71F, offset: 0x52CE3, size: 0x8, addend: 0x0, symName: __ZNSt3__142__uninitialized_allocator_move_if_noexceptB7v160006INS_9allocatorI7uint256EENS_16reverse_iteratorIPS2_EES6_S2_vEET1_RT_T0_SA_S7_, symObjAddr: 0x2C1F0, symBinAddr: 0x10002E080, symSize: 0x70 }
  - { offsetInCU: 0x3B79C, offset: 0x52D60, size: 0x8, addend: 0x0, symName: __ZNSt3__14swapB7v160006IP7uint256EENS_9enable_ifIXaasr21is_move_constructibleIT_EE5valuesr18is_move_assignableIS4_EE5valueEvE4typeERS4_S7_, symObjAddr: 0x2C260, symBinAddr: 0x10002E0F0, symSize: 0x40 }
  - { offsetInCU: 0x3B7EE, offset: 0x52DB2, size: 0x8, addend: 0x0, symName: __ZNSt3__14moveB7v160006INS_16reverse_iteratorIP7uint256EES4_EET0_T_S6_S5_, symObjAddr: 0x2C2A0, symBinAddr: 0x10002E130, symSize: 0x80 }
  - { offsetInCU: 0x3B848, offset: 0x52E0C, size: 0x8, addend: 0x0, symName: __ZNSt3__16__moveB7v160006INS_17_ClassicAlgPolicyENS_16reverse_iteratorIP7uint256EES5_S5_EENS_4pairIT0_T2_EES7_T1_S8_, symObjAddr: 0x2C320, symBinAddr: 0x10002E1B0, symSize: 0x90 }
  - { offsetInCU: 0x3B8B4, offset: 0x52E78, size: 0x8, addend: 0x0, symName: __ZNSt3__123__dispatch_copy_or_moveB7v160006INS_17_ClassicAlgPolicyENS_11__move_loopIS1_EENS_14__move_trivialENS_16reverse_iteratorIP7uint256EES8_S8_EENS_4pairIT2_T4_EESA_T3_SB_, symObjAddr: 0x2C3B0, symBinAddr: 0x10002E240, symSize: 0x90 }
  - { offsetInCU: 0x3B932, offset: 0x52EF6, size: 0x8, addend: 0x0, symName: __ZNSt3__121__unwrap_and_dispatchB7v160006INS_10__overloadINS_11__move_loopINS_17_ClassicAlgPolicyEEENS_14__move_trivialEEENS_16reverse_iteratorIP7uint256EESA_SA_Li0EEENS_4pairIT0_T2_EESC_T1_SD_, symObjAddr: 0x2C440, symBinAddr: 0x10002E2D0, symSize: 0x210 }
  - { offsetInCU: 0x3B9C3, offset: 0x52F87, size: 0x8, addend: 0x0, symName: __ZNSt3__114__unwrap_rangeB7v160006INS_16reverse_iteratorIP7uint256EES4_EEDaT_T0_, symObjAddr: 0x2C650, symBinAddr: 0x10002E4E0, symSize: 0x60 }
  - { offsetInCU: 0x3BAE3, offset: 0x530A7, size: 0x8, addend: 0x0, symName: __ZNSt3__113__unwrap_iterB7v160006INS_16reverse_iteratorIP7uint256EENS_18__unwrap_iter_implIS4_Lb0EEELi0EEEDTclsrT0_8__unwrapclsr3stdE7declvalIT_EEEES8_, symObjAddr: 0x2C760, symBinAddr: 0x10002E5F0, symSize: 0x40 }
  - { offsetInCU: 0x3BB27, offset: 0x530EB, size: 0x8, addend: 0x0, symName: __ZNSt3__19make_pairB7v160006INS_16reverse_iteratorIP7uint256EES4_EENS_4pairINS_18__unwrap_ref_decayIT_E4typeENS6_IT0_E4typeEEEOS7_OSA_, symObjAddr: 0x2C7A0, symBinAddr: 0x10002E630, symSize: 0x30 }
  - { offsetInCU: 0x3BB76, offset: 0x5313A, size: 0x8, addend: 0x0, symName: __ZNSt3__114__rewrap_rangeB7v160006INS_16reverse_iteratorIP7uint256EES4_S4_EET0_S5_T1_, symObjAddr: 0x2C7D0, symBinAddr: 0x10002E660, symSize: 0x60 }
  - { offsetInCU: 0x3BBCB, offset: 0x5318F, size: 0x8, addend: 0x0, symName: __ZNSt3__113__rewrap_iterB7v160006INS_16reverse_iteratorIP7uint256EES4_NS_18__unwrap_iter_implIS4_Lb0EEEEET_S7_T0_, symObjAddr: 0x2C830, symBinAddr: 0x10002E6C0, symSize: 0x70 }
  - { offsetInCU: 0x3BCDC, offset: 0x532A0, size: 0x8, addend: 0x0, symName: __ZNSt3__112construct_atB7v160006I7uint256JEPS1_EEPT_S4_DpOT0_, symObjAddr: 0x2CDE0, symBinAddr: 0x10002EC70, symSize: 0x40 }
  - { offsetInCU: 0x3BD3A, offset: 0x532FE, size: 0x8, addend: 0x0, symName: __ZNSt3__117as_writable_bytesB7v160006IhLm32EEEDaNS_4spanIT_XT0_EEE, symObjAddr: 0x2CF00, symBinAddr: 0x10002ED90, symSize: 0x30 }
  - { offsetInCU: 0x3BFF1, offset: 0x535B5, size: 0x8, addend: 0x0, symName: __ZNSt3__112construct_atB7v160006I8CQPubKeyJEPS1_EEPT_S4_DpOT0_, symObjAddr: 0x2D5D0, symBinAddr: 0x10002F460, symSize: 0x30 }
  - { offsetInCU: 0x3C04F, offset: 0x53613, size: 0x8, addend: 0x0, symName: __ZNSt3__112construct_atB7v160006I7uint160JEPS1_EEPT_S4_DpOT0_, symObjAddr: 0x2DB90, symBinAddr: 0x10002FA20, symSize: 0x40 }
  - { offsetInCU: 0x3C0AD, offset: 0x53671, size: 0x8, addend: 0x0, symName: __ZNSt3__117as_writable_bytesB7v160006IhLm20EEEDaNS_4spanIT_XT0_EEE, symObjAddr: 0x2DCB0, symBinAddr: 0x10002FB40, symSize: 0x30 }
  - { offsetInCU: 0x3C33B, offset: 0x538FF, size: 0x8, addend: 0x0, symName: __ZNSt3__1neB7v160006ERKNS_15__tree_iteratorINS_12__value_typeI7uint160mEEPNS_11__tree_nodeIS3_PvEElEESA_, symObjAddr: 0x2F000, symBinAddr: 0x100030E90, symSize: 0x30 }
  - { offsetInCU: 0x3C378, offset: 0x5393C, size: 0x8, addend: 0x0, symName: __ZNSt3__17launderB7v160006IKNS_4pairIK7uint160mEEEEPT_S7_, symObjAddr: 0x2F1E0, symBinAddr: 0x100031070, symSize: 0x20 }
  - { offsetInCU: 0x3C3AF, offset: 0x53973, size: 0x8, addend: 0x0, symName: __ZNSt3__19__launderB7v160006IKNS_4pairIK7uint160mEEEEPT_S7_, symObjAddr: 0x2F200, symBinAddr: 0x100031090, symSize: 0x10 }
  - { offsetInCU: 0x3C3E6, offset: 0x539AA, size: 0x8, addend: 0x0, symName: __ZNSt3__1eqB7v160006ERKNS_15__tree_iteratorINS_12__value_typeI7uint160mEEPNS_11__tree_nodeIS3_PvEElEESA_, symObjAddr: 0x2F230, symBinAddr: 0x1000310C0, symSize: 0x30 }
  - { offsetInCU: 0x3C45A, offset: 0x53A1E, size: 0x8, addend: 0x0, symName: __ZNSt3__116forward_as_tupleB7v160006IJRK7uint160EEENS_5tupleIJDpOT_EEES7_, symObjAddr: 0x2F3D0, symBinAddr: 0x100031260, symSize: 0x30 }
  - { offsetInCU: 0x3C493, offset: 0x53A57, size: 0x8, addend: 0x0, symName: __ZNSt3__116forward_as_tupleB7v160006IJEEENS_5tupleIJDpOT_EEES4_, symObjAddr: 0x2F400, symBinAddr: 0x100031290, symSize: 0x10 }
  - { offsetInCU: 0x3C4FC, offset: 0x53AC0, size: 0x8, addend: 0x0, symName: __ZNSt3__112construct_atB7v160006INS_4pairIK7uint160mEEJRKNS_21piecewise_construct_tENS_5tupleIJRS3_EEENS8_IJEEEEPS4_EEPT_SE_DpOT0_, symObjAddr: 0x2FB60, symBinAddr: 0x1000319F0, symSize: 0x50 }
  - { offsetInCU: 0x3C594, offset: 0x53B58, size: 0x8, addend: 0x0, symName: __ZNSt3__13getB7v160006ILm0EJRK7uint160EEERNS_13tuple_elementIXT_ENS_5tupleIJDpT0_EEEE4typeERS8_, symObjAddr: 0x2FC70, symBinAddr: 0x100031B00, symSize: 0x20 }
  - { offsetInCU: 0x3C5D8, offset: 0x53B9C, size: 0x8, addend: 0x0, symName: __ZNSt3__127__tree_balance_after_insertB7v160006IPNS_16__tree_node_baseIPvEEEEvT_S5_, symObjAddr: 0x2FD10, symBinAddr: 0x100031BA0, symSize: 0x320 }
  - { offsetInCU: 0x3C653, offset: 0x53C17, size: 0x8, addend: 0x0, symName: __ZNSt3__120__tree_is_left_childB7v160006IPNS_16__tree_node_baseIPvEEEEbT_, symObjAddr: 0x30050, symBinAddr: 0x100031EE0, symSize: 0x30 }
  - { offsetInCU: 0x3C689, offset: 0x53C4D, size: 0x8, addend: 0x0, symName: __ZNSt3__118__tree_left_rotateB7v160006IPNS_16__tree_node_baseIPvEEEEvT_, symObjAddr: 0x30080, symBinAddr: 0x100031F10, symSize: 0xD0 }
  - { offsetInCU: 0x3C6CB, offset: 0x53C8F, size: 0x8, addend: 0x0, symName: __ZNSt3__119__tree_right_rotateB7v160006IPNS_16__tree_node_baseIPvEEEEvT_, symObjAddr: 0x30150, symBinAddr: 0x100031FE0, symSize: 0xC0 }
  - { offsetInCU: 0x3C754, offset: 0x53D18, size: 0x8, addend: 0x0, symName: __ZNSt3__1neB7v160006ERKNS_21__tree_const_iteratorINS_12__value_typeI7uint160mEEPNS_11__tree_nodeIS3_PvEElEESA_, symObjAddr: 0x30660, symBinAddr: 0x1000324F0, symSize: 0x30 }
  - { offsetInCU: 0x3C791, offset: 0x53D55, size: 0x8, addend: 0x0, symName: __ZNSt3__1eqB7v160006ERKNS_21__tree_const_iteratorINS_12__value_typeI7uint160mEEPNS_11__tree_nodeIS3_PvEElEESA_, symObjAddr: 0x30750, symBinAddr: 0x1000325E0, symSize: 0x30 }
  - { offsetInCU: 0x3D4B9, offset: 0x54A7D, size: 0x8, addend: 0x0, symName: __ZSt28__throw_bad_array_new_lengthB7v160006v, symObjAddr: 0xC650, symBinAddr: 0x10000EED0, symSize: 0x40 }
  - { offsetInCU: 0x3F391, offset: 0x56955, size: 0x8, addend: 0x0, symName: __ZNSt3__16vectorIhNS_9allocatorIhEEE26__swap_out_circular_bufferERNS_14__split_bufferIhRS2_EEPh, symObjAddr: 0xB330, symBinAddr: 0x10000DBB0, symSize: 0x170 }
  - { offsetInCU: 0x3F3F2, offset: 0x569B6, size: 0x8, addend: 0x0, symName: __ZNSt3__16vectorIhNS_9allocatorIhEEE26__swap_out_circular_bufferERNS_14__split_bufferIhRS2_EE, symObjAddr: 0xDC10, symBinAddr: 0x100010490, symSize: 0x130 }
  - { offsetInCU: 0x3F5F7, offset: 0x56BBB, size: 0x8, addend: 0x0, symName: __ZNSt3__16vectorINS0_IhNS_9allocatorIhEEEENS1_IS3_EEE26__swap_out_circular_bufferERNS_14__split_bufferIS3_RS4_EE, symObjAddr: 0xF290, symBinAddr: 0x100011B10, symSize: 0x130 }
  - { offsetInCU: 0x41195, offset: 0x58759, size: 0x8, addend: 0x0, symName: __ZNSt3__16vectorI5CTxInNS_9allocatorIS1_EEE26__swap_out_circular_bufferERNS_14__split_bufferIS1_RS3_EE, symObjAddr: 0x12340, symBinAddr: 0x100014BC0, symSize: 0x130 }
  - { offsetInCU: 0x41AE5, offset: 0x590A9, size: 0x8, addend: 0x0, symName: __ZNSt3__16vectorI15CQuantumKeyPairNS_9allocatorIS1_EEE26__swap_out_circular_bufferERNS_14__split_bufferIS1_RS3_EE, symObjAddr: 0x13E70, symBinAddr: 0x1000166F0, symSize: 0x130 }
  - { offsetInCU: 0x41CF4, offset: 0x592B8, size: 0x8, addend: 0x0, symName: __ZNSt3__16vectorIxNS_9allocatorIxEEE26__swap_out_circular_bufferERNS_14__split_bufferIxRS2_EE, symObjAddr: 0x156F0, symBinAddr: 0x100017F70, symSize: 0x130 }
  - { offsetInCU: 0x41FC8, offset: 0x5958C, size: 0x8, addend: 0x0, symName: __ZNSt3__16vectorI6CTxOutNS_9allocatorIS1_EEE26__swap_out_circular_bufferERNS_14__split_bufferIS1_RS3_EE, symObjAddr: 0x17630, symBinAddr: 0x100019E50, symSize: 0x130 }
  - { offsetInCU: 0x420AB, offset: 0x5966F, size: 0x8, addend: 0x0, symName: __ZNSt3__16vectorI8CQPubKeyNS_9allocatorIS1_EEE26__swap_out_circular_bufferERNS_14__split_bufferIS1_RS3_EE, symObjAddr: 0x1B450, symBinAddr: 0x10001DBE0, symSize: 0x130 }
  - { offsetInCU: 0x42102, offset: 0x596C6, size: 0x8, addend: 0x0, symName: __ZNSt3__16vectorI7uint160NS_9allocatorIS1_EEE26__swap_out_circular_bufferERNS_14__split_bufferIS1_RS3_EE, symObjAddr: 0x1CB90, symBinAddr: 0x10001F320, symSize: 0x130 }
  - { offsetInCU: 0x42E39, offset: 0x5A3FD, size: 0x8, addend: 0x0, symName: __ZN10tinyformat6detail10formatImplERNSt3__113basic_ostreamIcNS1_11char_traitsIcEEEEPKcPKNS0_9FormatArgEi, symObjAddr: 0x27D90, symBinAddr: 0x10002A4E0, symSize: 0x4B0 }
  - { offsetInCU: 0x42F7B, offset: 0x5A53F, size: 0x8, addend: 0x0, symName: __ZN10tinyformat6detail24printFormatStringLiteralERNSt3__113basic_ostreamIcNS1_11char_traitsIcEEEEPKc, symObjAddr: 0x28310, symBinAddr: 0x10002A9B0, symSize: 0xD0 }
  - { offsetInCU: 0x42FC7, offset: 0x5A58B, size: 0x8, addend: 0x0, symName: __ZN10tinyformat6detail21streamStateFromFormatERNSt3__113basic_ostreamIcNS1_11char_traitsIcEEEERbS7_RiPKcPKNS0_9FormatArgES8_i, symObjAddr: 0x28430, symBinAddr: 0x10002AAD0, symSize: 0xD90 }
  - { offsetInCU: 0x4310C, offset: 0x5A6D0, size: 0x8, addend: 0x0, symName: __ZN10tinyformat6detail18parseIntAndAdvanceERPKc, symObjAddr: 0x29630, symBinAddr: 0x10002BBA0, symSize: 0x80 }
  - { offsetInCU: 0x43149, offset: 0x5A70D, size: 0x8, addend: 0x0, symName: __ZN10tinyformat6detail21parseWidthOrPrecisionERiRPKcbPKNS0_9FormatArgES1_i, symObjAddr: 0x29700, symBinAddr: 0x10002BC70, symSize: 0x380 }
  - { offsetInCU: 0x43216, offset: 0x5A7DA, size: 0x8, addend: 0x0, symName: __ZN10tinyformat6detail15formatTruncatedImEEvRNSt3__113basic_ostreamIcNS2_11char_traitsIcEEEERKT_i, symObjAddr: 0x2A420, symBinAddr: 0x10002C2F0, symSize: 0x140 }
  - { offsetInCU: 0x432F9, offset: 0x5A8BD, size: 0x8, addend: 0x0, symName: __ZN10tinyformat6detail15formatTruncatedERNSt3__113basic_ostreamIcNS1_11char_traitsIcEEEEPKci, symObjAddr: 0x2AB10, symBinAddr: 0x10002C9E0, symSize: 0x80 }
  - { offsetInCU: 0x433ED, offset: 0x5A9B1, size: 0x8, addend: 0x0, symName: __ZN10tinyformat6detail15formatTruncatedIjEEvRNSt3__113basic_ostreamIcNS2_11char_traitsIcEEEERKT_i, symObjAddr: 0x2E420, symBinAddr: 0x1000302B0, symSize: 0x140 }
  - { offsetInCU: 0x4355F, offset: 0x5AB23, size: 0x8, addend: 0x0, symName: __ZN10tinyformat6detail15formatTruncatedIxEEvRNSt3__113basic_ostreamIcNS2_11char_traitsIcEEEERKT_i, symObjAddr: 0x2E930, symBinAddr: 0x1000307C0, symSize: 0x140 }
  - { offsetInCU: 0x43642, offset: 0x5AC06, size: 0x8, addend: 0x0, symName: __ZN10tinyformat6formatIJmEEENSt3__112basic_stringIcNS1_11char_traitsIcEENS1_9allocatorIcEEEENS_17FormatStringCheckIXsZT_EEEDpRKT_, symObjAddr: 0x276B0, symBinAddr: 0x100029E10, symSize: 0xC0 }
  - { offsetInCU: 0x4372E, offset: 0x5ACF2, size: 0x8, addend: 0x0, symName: __ZN10tinyformat6formatIJmEEEvRNSt3__113basic_ostreamIcNS1_11char_traitsIcEEEENS_17FormatStringCheckIXsZT_EEEDpRKT_, symObjAddr: 0x27AB0, symBinAddr: 0x10002A210, symSize: 0x50 }
  - { offsetInCU: 0x43781, offset: 0x5AD45, size: 0x8, addend: 0x0, symName: __ZN10tinyformat7vformatERNSt3__113basic_ostreamIcNS0_11char_traitsIcEEEEPKcRKNS_10FormatListE, symObjAddr: 0x27D00, symBinAddr: 0x10002A450, symSize: 0x40 }
  - { offsetInCU: 0x437C8, offset: 0x5AD8C, size: 0x8, addend: 0x0, symName: __ZN10tinyformat14makeFormatListIJmEEENS_6detail11FormatListNIXsZT_EEEDpRKT_, symObjAddr: 0x27D60, symBinAddr: 0x10002A4B0, symSize: 0x30 }
  - { offsetInCU: 0x43802, offset: 0x5ADC6, size: 0x8, addend: 0x0, symName: __ZN10tinyformat11formatValueImEEvRNSt3__113basic_ostreamIcNS1_11char_traitsIcEEEEPKcS8_iRKT_, symObjAddr: 0x2A370, symBinAddr: 0x10002C240, symSize: 0x80 }
  - { offsetInCU: 0x4388B, offset: 0x5AE4F, size: 0x8, addend: 0x0, symName: __ZN10tinyformat6formatIJPKcEEENSt3__112basic_stringIcNS3_11char_traitsIcEENS3_9allocatorIcEEEENS_17FormatStringCheckIXsZT_EEEDpRKT_, symObjAddr: 0x2A7E0, symBinAddr: 0x10002C6B0, symSize: 0xC0 }
  - { offsetInCU: 0x438E4, offset: 0x5AEA8, size: 0x8, addend: 0x0, symName: __ZN10tinyformat6formatIJPKcEEEvRNSt3__113basic_ostreamIcNS3_11char_traitsIcEEEENS_17FormatStringCheckIXsZT_EEEDpRKT_, symObjAddr: 0x2A8A0, symBinAddr: 0x10002C770, symSize: 0x50 }
  - { offsetInCU: 0x43936, offset: 0x5AEFA, size: 0x8, addend: 0x0, symName: __ZN10tinyformat14makeFormatListIJPKcEEENS_6detail11FormatListNIXsZT_EEEDpRKT_, symObjAddr: 0x2A8F0, symBinAddr: 0x10002C7C0, symSize: 0x30 }
  - { offsetInCU: 0x43970, offset: 0x5AF34, size: 0x8, addend: 0x0, symName: __ZN10tinyformat11formatValueIPKcEEvRNSt3__113basic_ostreamIcNS3_11char_traitsIcEEEES2_S2_iRKT_, symObjAddr: 0x2AA50, symBinAddr: 0x10002C920, symSize: 0x90 }
  - { offsetInCU: 0x439F9, offset: 0x5AFBD, size: 0x8, addend: 0x0, symName: __ZN10tinyformat6formatIJEEENSt3__112basic_stringIcNS1_11char_traitsIcEENS1_9allocatorIcEEEENS_17FormatStringCheckIXsZT_EEEDpRKT_, symObjAddr: 0x2DF10, symBinAddr: 0x10002FDA0, symSize: 0xC0 }
  - { offsetInCU: 0x43AA8, offset: 0x5B06C, size: 0x8, addend: 0x0, symName: __ZN10tinyformat6formatIJEEEvRNSt3__113basic_ostreamIcNS1_11char_traitsIcEEEENS_17FormatStringCheckIXsZT_EEEDpRKT_, symObjAddr: 0x2E000, symBinAddr: 0x10002FE90, symSize: 0x50 }
  - { offsetInCU: 0x43AE5, offset: 0x5B0A9, size: 0x8, addend: 0x0, symName: __ZN10tinyformat14makeFormatListIJEEENS_6detail11FormatListNIXsZT_EEEDpRKT_, symObjAddr: 0x2E070, symBinAddr: 0x10002FF00, symSize: 0x20 }
  - { offsetInCU: 0x43B09, offset: 0x5B0CD, size: 0x8, addend: 0x0, symName: __ZN10tinyformat6formatIJjEEENSt3__112basic_stringIcNS1_11char_traitsIcEENS1_9allocatorIcEEEENS_17FormatStringCheckIXsZT_EEEDpRKT_, symObjAddr: 0x2E100, symBinAddr: 0x10002FF90, symSize: 0xC0 }
  - { offsetInCU: 0x43B62, offset: 0x5B126, size: 0x8, addend: 0x0, symName: __ZN10tinyformat6formatIJjEEEvRNSt3__113basic_ostreamIcNS1_11char_traitsIcEEEENS_17FormatStringCheckIXsZT_EEEDpRKT_, symObjAddr: 0x2E1C0, symBinAddr: 0x100030050, symSize: 0x50 }
  - { offsetInCU: 0x43BB4, offset: 0x5B178, size: 0x8, addend: 0x0, symName: __ZN10tinyformat14makeFormatListIJjEEENS_6detail11FormatListNIXsZT_EEEDpRKT_, symObjAddr: 0x2E210, symBinAddr: 0x1000300A0, symSize: 0x30 }
  - { offsetInCU: 0x43BEE, offset: 0x5B1B2, size: 0x8, addend: 0x0, symName: __ZN10tinyformat11formatValueIjEEvRNSt3__113basic_ostreamIcNS1_11char_traitsIcEEEEPKcS8_iRKT_, symObjAddr: 0x2E370, symBinAddr: 0x100030200, symSize: 0x80 }
  - { offsetInCU: 0x43C77, offset: 0x5B23B, size: 0x8, addend: 0x0, symName: __ZN10tinyformat6formatIJPKcxEEENSt3__112basic_stringIcNS3_11char_traitsIcEENS3_9allocatorIcEEEENS_17FormatStringCheckIXsZT_EEEDpRKT_, symObjAddr: 0x2E570, symBinAddr: 0x100030400, symSize: 0xD0 }
  - { offsetInCU: 0x43D4F, offset: 0x5B313, size: 0x8, addend: 0x0, symName: __ZN10tinyformat6formatIJPKcxEEEvRNSt3__113basic_ostreamIcNS3_11char_traitsIcEEEENS_17FormatStringCheckIXsZT_EEEDpRKT_, symObjAddr: 0x2E670, symBinAddr: 0x100030500, symSize: 0x60 }
  - { offsetInCU: 0x43DB5, offset: 0x5B379, size: 0x8, addend: 0x0, symName: __ZN10tinyformat14makeFormatListIJPKcxEEENS_6detail11FormatListNIXsZT_EEEDpRKT_, symObjAddr: 0x2E6F0, symBinAddr: 0x100030580, symSize: 0x40 }
  - { offsetInCU: 0x43E03, offset: 0x5B3C7, size: 0x8, addend: 0x0, symName: __ZN10tinyformat11formatValueIxEEvRNSt3__113basic_ostreamIcNS1_11char_traitsIcEEEEPKcS8_iRKT_, symObjAddr: 0x2E880, symBinAddr: 0x100030710, symSize: 0x80 }
  - { offsetInCU: 0x43E8C, offset: 0x5B450, size: 0x8, addend: 0x0, symName: __ZN10tinyformat6formatIJxEEENSt3__112basic_stringIcNS1_11char_traitsIcEENS1_9allocatorIcEEEENS_17FormatStringCheckIXsZT_EEEDpRKT_, symObjAddr: 0x2EAB0, symBinAddr: 0x100030940, symSize: 0xC0 }
  - { offsetInCU: 0x43EE5, offset: 0x5B4A9, size: 0x8, addend: 0x0, symName: __ZN10tinyformat6formatIJxEEEvRNSt3__113basic_ostreamIcNS1_11char_traitsIcEEEENS_17FormatStringCheckIXsZT_EEEDpRKT_, symObjAddr: 0x2EB70, symBinAddr: 0x100030A00, symSize: 0x50 }
  - { offsetInCU: 0x43F37, offset: 0x5B4FB, size: 0x8, addend: 0x0, symName: __ZN10tinyformat14makeFormatListIJxEEENS_6detail11FormatListNIXsZT_EEEDpRKT_, symObjAddr: 0x2EBC0, symBinAddr: 0x100030A50, symSize: 0x30 }
  - { offsetInCU: 0x43F70, offset: 0x5B534, size: 0x8, addend: 0x0, symName: __ZN10tinyformat6formatIJmmEEENSt3__112basic_stringIcNS1_11char_traitsIcEENS1_9allocatorIcEEEENS_17FormatStringCheckIXsZT_EEEDpRKT_, symObjAddr: 0x2EC60, symBinAddr: 0x100030AF0, symSize: 0xD0 }
  - { offsetInCU: 0x43FDD, offset: 0x5B5A1, size: 0x8, addend: 0x0, symName: __ZN10tinyformat6formatIJmmEEEvRNSt3__113basic_ostreamIcNS1_11char_traitsIcEEEENS_17FormatStringCheckIXsZT_EEEDpRKT_, symObjAddr: 0x2ED30, symBinAddr: 0x100030BC0, symSize: 0x60 }
  - { offsetInCU: 0x44043, offset: 0x5B607, size: 0x8, addend: 0x0, symName: __ZN10tinyformat14makeFormatListIJmmEEENS_6detail11FormatListNIXsZT_EEEDpRKT_, symObjAddr: 0x2ED90, symBinAddr: 0x100030C20, symSize: 0x40 }
  - { offsetInCU: 0x442B3, offset: 0x5B877, size: 0x8, addend: 0x0, symName: __ZNSt3__16vectorI7uint256NS_9allocatorIS1_EEE26__swap_out_circular_bufferERNS_14__split_bufferIS1_RS3_EE, symObjAddr: 0x2BEA0, symBinAddr: 0x10002DD30, symSize: 0x130 }
  - { offsetInCU: 0x46654, offset: 0x5DC18, size: 0x8, addend: 0x0, symName: __ZN15CQuantumKeyPairC2Ev, symObjAddr: 0x0, symBinAddr: 0x100003A80, symSize: 0x90 }
  - { offsetInCU: 0x46680, offset: 0x5DC44, size: 0x8, addend: 0x0, symName: __ZN7uint160C1Ev, symObjAddr: 0xD0, symBinAddr: 0x100003B10, symSize: 0x20 }
  - { offsetInCU: 0x466AA, offset: 0x5DC6E, size: 0x8, addend: 0x0, symName: __ZN15CQuantumKeyPairC1Ev, symObjAddr: 0x130, symBinAddr: 0x100003B30, symSize: 0x20 }
  - { offsetInCU: 0x466D6, offset: 0x5DC9A, size: 0x8, addend: 0x0, symName: __ZN15CQuantumKeyPairC2ERKS_, symObjAddr: 0x150, symBinAddr: 0x100003B50, symSize: 0xC0 }
  - { offsetInCU: 0x46710, offset: 0x5DCD4, size: 0x8, addend: 0x0, symName: __ZN4CKeyC1ERKS_, symObjAddr: 0x210, symBinAddr: 0x100003C10, symSize: 0x30 }
  - { offsetInCU: 0x46748, offset: 0x5DD0C, size: 0x8, addend: 0x0, symName: __ZN5CQKeyC1ERKS_, symObjAddr: 0x240, symBinAddr: 0x100003C40, symSize: 0x30 }
  - { offsetInCU: 0x46780, offset: 0x5DD44, size: 0x8, addend: 0x0, symName: __ZN15CQuantumKeyPairC1ERKS_, symObjAddr: 0x270, symBinAddr: 0x100003C70, symSize: 0x30 }
  - { offsetInCU: 0x467BA, offset: 0x5DD7E, size: 0x8, addend: 0x0, symName: __ZN15CQuantumKeyPairC2EOS_, symObjAddr: 0x2A0, symBinAddr: 0x100003CA0, symSize: 0xA0 }
  - { offsetInCU: 0x467F4, offset: 0x5DDB8, size: 0x8, addend: 0x0, symName: __ZN4CKeyC1EOS_, symObjAddr: 0x340, symBinAddr: 0x100003D40, symSize: 0x30 }
  - { offsetInCU: 0x46829, offset: 0x5DDED, size: 0x8, addend: 0x0, symName: __ZN5CQKeyC1EOS_, symObjAddr: 0x370, symBinAddr: 0x100003D70, symSize: 0x30 }
  - { offsetInCU: 0x4685E, offset: 0x5DE22, size: 0x8, addend: 0x0, symName: __ZN15CQuantumKeyPairC1EOS_, symObjAddr: 0x3A0, symBinAddr: 0x100003DA0, symSize: 0x30 }
  - { offsetInCU: 0x46898, offset: 0x5DE5C, size: 0x8, addend: 0x0, symName: __ZN15CQuantumKeyPairaSERKS_, symObjAddr: 0x3D0, symBinAddr: 0x100003DD0, symSize: 0xB0 }
  - { offsetInCU: 0x468CE, offset: 0x5DE92, size: 0x8, addend: 0x0, symName: __ZN4CKeyaSERKS_, symObjAddr: 0x480, symBinAddr: 0x100003E80, symSize: 0xB0 }
  - { offsetInCU: 0x46902, offset: 0x5DEC6, size: 0x8, addend: 0x0, symName: __ZN5CQKeyaSERKS_, symObjAddr: 0x530, symBinAddr: 0x100003F30, symSize: 0x130 }
  - { offsetInCU: 0x46936, offset: 0x5DEFA, size: 0x8, addend: 0x0, symName: __ZN15CQuantumKeyPairaSEOS_, symObjAddr: 0x660, symBinAddr: 0x100004060, symSize: 0xB0 }
  - { offsetInCU: 0x4696C, offset: 0x5DF30, size: 0x8, addend: 0x0, symName: __ZN4CKeyaSEOS_, symObjAddr: 0x710, symBinAddr: 0x100004110, symSize: 0x40 }
  - { offsetInCU: 0x4699D, offset: 0x5DF61, size: 0x8, addend: 0x0, symName: __ZN5CQKeyaSEOS_, symObjAddr: 0x750, symBinAddr: 0x100004150, symSize: 0x60 }
  - { offsetInCU: 0x469CE, offset: 0x5DF92, size: 0x8, addend: 0x0, symName: __ZN15CQuantumKeyPair8FromSeedEPKh, symObjAddr: 0x7B0, symBinAddr: 0x1000041B0, symSize: 0x7D0 }
  - { offsetInCU: 0x46ADC, offset: 0x5E0A0, size: 0x8, addend: 0x0, symName: __ZN4CKey3SetIPKhEEvT_S3_b, symObjAddr: 0xF80, symBinAddr: 0x100004980, symSize: 0xE0 }
  - { offsetInCU: 0x46B35, offset: 0x5E0F9, size: 0x8, addend: 0x0, symName: __ZN8CHash256C1Ev, symObjAddr: 0x1100, symBinAddr: 0x100004A60, symSize: 0x20 }
  - { offsetInCU: 0x46B61, offset: 0x5E125, size: 0x8, addend: 0x0, symName: __ZN8CHash2565WriteENSt3__14spanIKhLm18446744073709551615EEE, symObjAddr: 0x1120, symBinAddr: 0x100004A80, symSize: 0x50 }
  - { offsetInCU: 0x46B95, offset: 0x5E159, size: 0x8, addend: 0x0, symName: __ZNSt3__14spanIKhLm18446744073709551615EEC1B7v160006IPS1_EET_m, symObjAddr: 0x1170, symBinAddr: 0x100004AD0, symSize: 0x30 }
  - { offsetInCU: 0x46BE6, offset: 0x5E1AA, size: 0x8, addend: 0x0, symName: __ZNK8CQPubKey4dataEv, symObjAddr: 0x11A0, symBinAddr: 0x100004B00, symSize: 0x10 }
  - { offsetInCU: 0x46C0C, offset: 0x5E1D0, size: 0x8, addend: 0x0, symName: __ZNK8CQPubKey4sizeEv, symObjAddr: 0x11B0, symBinAddr: 0x100004B10, symSize: 0x10 }
  - { offsetInCU: 0x46C32, offset: 0x5E1F6, size: 0x8, addend: 0x0, symName: __ZNSt3__14spanIKhLm18446744073709551615EEC1B7v160006IPhEET_m, symObjAddr: 0x11C0, symBinAddr: 0x100004B20, symSize: 0x30 }
  - { offsetInCU: 0x46C83, offset: 0x5E247, size: 0x8, addend: 0x0, symName: __ZN7uint256C1Ev, symObjAddr: 0x11F0, symBinAddr: 0x100004B50, symSize: 0x20 }
  - { offsetInCU: 0x46CAD, offset: 0x5E271, size: 0x8, addend: 0x0, symName: __ZN8CHash2568FinalizeENSt3__14spanIhLm18446744073709551615EEE, symObjAddr: 0x1210, symBinAddr: 0x100004B70, symSize: 0xE0 }
  - { offsetInCU: 0x46CF1, offset: 0x5E2B5, size: 0x8, addend: 0x0, symName: __ZN9base_blobILj256EE5beginEv, symObjAddr: 0x12F0, symBinAddr: 0x100004C50, symSize: 0x20 }
  - { offsetInCU: 0x46D17, offset: 0x5E2DB, size: 0x8, addend: 0x0, symName: __ZN9base_blobILj256EE4dataEv, symObjAddr: 0x1340, symBinAddr: 0x100004C70, symSize: 0x20 }
  - { offsetInCU: 0x46D3C, offset: 0x5E300, size: 0x8, addend: 0x0, symName: __Z7Hash160INSt3__14spanIKhLm18446744073709551615EEEE7uint160RKT_, symObjAddr: 0x13F0, symBinAddr: 0x100004CC0, symSize: 0xE0 }
  - { offsetInCU: 0x46D84, offset: 0x5E348, size: 0x8, addend: 0x0, symName: __ZN15CQuantumKeyPairD1Ev, symObjAddr: 0x14D0, symBinAddr: 0x100004DA0, symSize: 0x20 }
  - { offsetInCU: 0x46DAE, offset: 0x5E372, size: 0x8, addend: 0x0, symName: __ZN15CQuantumKeyPair8FromSeedERK7uint256, symObjAddr: 0x14F0, symBinAddr: 0x100004DC0, symSize: 0x40 }
  - { offsetInCU: 0x46DD3, offset: 0x5E397, size: 0x8, addend: 0x0, symName: __ZNK9base_blobILj256EE5beginEv, symObjAddr: 0x1530, symBinAddr: 0x100004E00, symSize: 0x20 }
  - { offsetInCU: 0x46DF9, offset: 0x5E3BD, size: 0x8, addend: 0x0, symName: __ZN15CQuantumKeyPair8GenerateEv, symObjAddr: 0x1550, symBinAddr: 0x100004E20, symSize: 0x80 }
  - { offsetInCU: 0x46E1F, offset: 0x5E3E3, size: 0x8, addend: 0x0, symName: __ZNK15CQuantumKeyPair10GetAddressEv, symObjAddr: 0x15D0, symBinAddr: 0x100004EA0, symSize: 0xC0 }
  - { offsetInCU: 0x46E4C, offset: 0x5E410, size: 0x8, addend: 0x0, symName: __ZNSt3__112basic_stringIcNS_11char_traitsIcEENS_9allocatorIcEEEC1B7v160006IDnEEPKc, symObjAddr: 0x1690, symBinAddr: 0x100004F60, symSize: 0x30 }
  - { offsetInCU: 0x46E8E, offset: 0x5E452, size: 0x8, addend: 0x0, symName: __ZN19QuantumAddressUtils19CreateBech32AddressERK7uint160RKNSt3__112basic_stringIcNS3_11char_traitsIcEENS3_9allocatorIcEEEE, symObjAddr: 0x16C0, symBinAddr: 0x100004F90, symSize: 0xC0 }
  - { offsetInCU: 0x46EEA, offset: 0x5E4AE, size: 0x8, addend: 0x0, symName: __ZN19QuantumAddressUtils18CreateP2WPKHScriptERK7uint160, symObjAddr: 0x4CF0, symBinAddr: 0x1000085B0, symSize: 0x110 }
  - { offsetInCU: 0x46F28, offset: 0x5E4EC, size: 0x8, addend: 0x0, symName: __ZN19QuantumAddressUtils19PubKeyToAddressHashERK8CQPubKey, symObjAddr: 0x70A0, symBinAddr: 0x10000A960, symSize: 0x60 }
  - { offsetInCU: 0x46F56, offset: 0x5E51A, size: 0x8, addend: 0x0, symName: __ZN19QuantumAddressUtils18CreateP2WPKHScriptERK8CQPubKey, symObjAddr: 0x7130, symBinAddr: 0x10000A9F0, symSize: 0x70 }
  - { offsetInCU: 0x46F93, offset: 0x5E557, size: 0x8, addend: 0x0, symName: __ZN19QuantumAddressUtils18ParseBech32AddressERKNSt3__112basic_stringIcNS0_11char_traitsIcEENS0_9allocatorIcEEEER7uint160RS6_, symObjAddr: 0x7370, symBinAddr: 0x10000AC30, symSize: 0x100 }
  - { offsetInCU: 0x46FEF, offset: 0x5E5B3, size: 0x8, addend: 0x0, symName: __ZN19QuantumAddressUtils16IsQuantumAddressERK7CScript, symObjAddr: 0x7490, symBinAddr: 0x10000AD50, symSize: 0x70 }
  - { offsetInCU: 0x4701F, offset: 0x5E5E3, size: 0x8, addend: 0x0, symName: __ZNK15CQuantumKeyPair9SignECDSAERK7uint256RNSt3__16vectorIhNS3_9allocatorIhEEEE, symObjAddr: 0x1780, symBinAddr: 0x100005050, symSize: 0x60 }
  - { offsetInCU: 0x47063, offset: 0x5E627, size: 0x8, addend: 0x0, symName: __ZNK15CQuantumKeyPair13SignDilithiumERK7uint256RNSt3__16vectorIhNS3_9allocatorIhEEEE, symObjAddr: 0x17E0, symBinAddr: 0x1000050B0, symSize: 0x60 }
  - { offsetInCU: 0x470A7, offset: 0x5E66B, size: 0x8, addend: 0x0, symName: __ZNK15CQuantumKeyPair11VerifyECDSAERK7uint256RKNSt3__16vectorIhNS3_9allocatorIhEEEE, symObjAddr: 0x1840, symBinAddr: 0x100005110, symSize: 0xD0 }
  - { offsetInCU: 0x470EE, offset: 0x5E6B2, size: 0x8, addend: 0x0, symName: __ZNK15CQuantumKeyPair15VerifyDilithiumERK7uint256RKNSt3__16vectorIhNS3_9allocatorIhEEEE, symObjAddr: 0x1910, symBinAddr: 0x1000051E0, symSize: 0xD0 }
  - { offsetInCU: 0x47135, offset: 0x5E6F9, size: 0x8, addend: 0x0, symName: __ZNK15CQuantumKeyPair6DeriveERS_j, symObjAddr: 0x19E0, symBinAddr: 0x1000052B0, symSize: 0x1B0 }
  - { offsetInCU: 0x4719C, offset: 0x5E760, size: 0x8, addend: 0x0, symName: __ZNK15CQuantumKeyPair7IsValidEv, symObjAddr: 0x1B90, symBinAddr: 0x100005460, symSize: 0x20 }
  - { offsetInCU: 0x471C2, offset: 0x5E786, size: 0x8, addend: 0x0, symName: __ZNK15CQuantumKeyPair9SerializeEv, symObjAddr: 0x1BB0, symBinAddr: 0x100005480, symSize: 0x100 }
  - { offsetInCU: 0x471FA, offset: 0x5E7BE, size: 0x8, addend: 0x0, symName: __ZNSt3__16vectorIhNS_9allocatorIhEEEC1B7v160006Ev, symObjAddr: 0x1CB0, symBinAddr: 0x100005580, symSize: 0x20 }
  - { offsetInCU: 0x47224, offset: 0x5E7E8, size: 0x8, addend: 0x0, symName: __ZNSt3__16vectorIhNS_9allocatorIhEEE6insertIPKhLi0EEENS_11__wrap_iterIPhEENS7_IS6_EET_SB_, symObjAddr: 0x1CD0, symBinAddr: 0x1000055A0, symSize: 0x280 }
  - { offsetInCU: 0x47338, offset: 0x5E8FC, size: 0x8, addend: 0x0, symName: __ZNSt3__16vectorIhNS_9allocatorIhEEE3endB7v160006Ev, symObjAddr: 0x1F50, symBinAddr: 0x100005820, symSize: 0x30 }
  - { offsetInCU: 0x4736A, offset: 0x5E92E, size: 0x8, addend: 0x0, symName: __ZNSt3__111__wrap_iterIPKhEC1B7v160006IPhEERKNS0_IT_EEPNS_9enable_ifIXsr14is_convertibleIS6_S2_EE5valueEvE4typeE, symObjAddr: 0x1F80, symBinAddr: 0x100005850, symSize: 0x30 }
  - { offsetInCU: 0x473B6, offset: 0x5E97A, size: 0x8, addend: 0x0, symName: __ZNSt3__16vectorIhNS_9allocatorIhEEE9push_backB7v160006EOh, symObjAddr: 0x1FB0, symBinAddr: 0x100005880, symSize: 0x60 }
  - { offsetInCU: 0x473ED, offset: 0x5E9B1, size: 0x8, addend: 0x0, symName: __ZNSt3__16vectorIhNS_9allocatorIhEEED1B7v160006Ev, symObjAddr: 0x2010, symBinAddr: 0x1000058E0, symSize: 0x20 }
  - { offsetInCU: 0x47417, offset: 0x5E9DB, size: 0x8, addend: 0x0, symName: __ZN15CQuantumKeyPair11DeserializeERKNSt3__16vectorIhNS0_9allocatorIhEEEE, symObjAddr: 0x2030, symBinAddr: 0x100005900, symSize: 0x130 }
  - { offsetInCU: 0x4744F, offset: 0x5EA13, size: 0x8, addend: 0x0, symName: __ZNKSt3__16vectorIhNS_9allocatorIhEEE4sizeB7v160006Ev, symObjAddr: 0x2160, symBinAddr: 0x100005A30, symSize: 0x20 }
  - { offsetInCU: 0x47475, offset: 0x5EA39, size: 0x8, addend: 0x0, symName: __ZNKSt3__16vectorIhNS_9allocatorIhEEE4dataB7v160006Ev, symObjAddr: 0x2180, symBinAddr: 0x100005A50, symSize: 0x20 }
  - { offsetInCU: 0x4749B, offset: 0x5EA5F, size: 0x8, addend: 0x0, symName: __ZNKSt3__16vectorIhNS_9allocatorIhEEEixB7v160006Em, symObjAddr: 0x21A0, symBinAddr: 0x100005A70, symSize: 0x20 }
  - { offsetInCU: 0x4771F, offset: 0x5ECE3, size: 0x8, addend: 0x0, symName: __ZNK15CQuantumWitness15ToScriptWitnessEv, symObjAddr: 0x21C0, symBinAddr: 0x100005A90, symSize: 0x4B0 }
  - { offsetInCU: 0x477DC, offset: 0x5EDA0, size: 0x8, addend: 0x0, symName: __ZN14CScriptWitnessC1Ev, symObjAddr: 0x2670, symBinAddr: 0x100005F40, symSize: 0x20 }
  - { offsetInCU: 0x47806, offset: 0x5EDCA, size: 0x8, addend: 0x0, symName: __ZNK15CQuantumWitness7IsValidEv, symObjAddr: 0x2690, symBinAddr: 0x100005F60, symSize: 0x120 }
  - { offsetInCU: 0x4798B, offset: 0x5EF4F, size: 0x8, addend: 0x0, symName: __ZN12VectorWriterC1ERNSt3__16vectorIhNS0_9allocatorIhEEEEm, symObjAddr: 0x27B0, symBinAddr: 0x100006080, symSize: 0x30 }
  - { offsetInCU: 0x479DB, offset: 0x5EF9F, size: 0x8, addend: 0x0, symName: __ZN12VectorWriterlsI20CAggregatedSignatureEERS_RKT_, symObjAddr: 0x27E0, symBinAddr: 0x1000060B0, symSize: 0x30 }
  - { offsetInCU: 0x47A18, offset: 0x5EFDC, size: 0x8, addend: 0x0, symName: __ZNSt3__16vectorINS0_IhNS_9allocatorIhEEEENS1_IS3_EEE9push_backB7v160006ERKS3_, symObjAddr: 0x2810, symBinAddr: 0x1000060E0, symSize: 0x60 }
  - { offsetInCU: 0x47A4F, offset: 0x5F013, size: 0x8, addend: 0x0, symName: __ZN12VectorWriterlsINSt3__16vectorI8CQPubKeyNS1_9allocatorIS3_EEEEEERS_RKT_, symObjAddr: 0x2870, symBinAddr: 0x100006140, symSize: 0x30 }
  - { offsetInCU: 0x47A8C, offset: 0x5F050, size: 0x8, addend: 0x0, symName: __ZN12VectorWriterlsINSt3__16vectorI7uint160NS1_9allocatorIS3_EEEEEERS_RKT_, symObjAddr: 0x28A0, symBinAddr: 0x100006170, symSize: 0x30 }
  - { offsetInCU: 0x47AC9, offset: 0x5F08D, size: 0x8, addend: 0x0, symName: __ZNSt3__16vectorIhNS_9allocatorIhEEEC1Em, symObjAddr: 0x28D0, symBinAddr: 0x1000061A0, symSize: 0x30 }
  - { offsetInCU: 0x47B03, offset: 0x5F0C7, size: 0x8, addend: 0x0, symName: __Z9WriteLE32IhEvPT_j, symObjAddr: 0x2900, symBinAddr: 0x1000061D0, symSize: 0x30 }
  - { offsetInCU: 0x47B52, offset: 0x5F116, size: 0x8, addend: 0x0, symName: __ZNSt3__16vectorIhNS_9allocatorIhEEE4dataB7v160006Ev, symObjAddr: 0x2930, symBinAddr: 0x100006200, symSize: 0x20 }
  - { offsetInCU: 0x47B78, offset: 0x5F13C, size: 0x8, addend: 0x0, symName: __ZL17LogAcceptCategoryN5BCLog8LogFlagsENS_5LevelE, symObjAddr: 0x2950, symBinAddr: 0x100006220, symSize: 0x30 }
  - { offsetInCU: 0x47BB2, offset: 0x5F176, size: 0x8, addend: 0x0, symName: __Z22LogPrintFormatInternalIJmEEvNSt3__117basic_string_viewIcNS0_11char_traitsIcEEEES4_iN5BCLog8LogFlagsENS5_5LevelEN4util21ConstevalFormatStringIXsZT_EEEDpRKT_, symObjAddr: 0x2980, symBinAddr: 0x100006250, symSize: 0x300 }
  - { offsetInCU: 0x47C60, offset: 0x5F224, size: 0x8, addend: 0x0, symName: __ZNSt3__117basic_string_viewIcNS_11char_traitsIcEEEC1B7v160006EPKc, symObjAddr: 0x2C80, symBinAddr: 0x100006550, symSize: 0x30 }
  - { offsetInCU: 0x47C99, offset: 0x5F25D, size: 0x8, addend: 0x0, symName: __ZNKSt3__16vectorINS0_IhNS_9allocatorIhEEEENS1_IS3_EEE4sizeB7v160006Ev, symObjAddr: 0x2CB0, symBinAddr: 0x100006580, symSize: 0x30 }
  - { offsetInCU: 0x47CBE, offset: 0x5F282, size: 0x8, addend: 0x0, symName: __Z22LogPrintFormatInternalIJPKcEEvNSt3__117basic_string_viewIcNS2_11char_traitsIcEEEES6_iN5BCLog8LogFlagsENS7_5LevelEN4util21ConstevalFormatStringIXsZT_EEEDpRKT_, symObjAddr: 0x2CE0, symBinAddr: 0x1000065B0, symSize: 0x300 }
  - { offsetInCU: 0x47D6C, offset: 0x5F330, size: 0x8, addend: 0x0, symName: __ZNSt3__16vectorINS0_IhNS_9allocatorIhEEEENS1_IS3_EEE5clearB7v160006Ev, symObjAddr: 0x2FE0, symBinAddr: 0x1000068B0, symSize: 0x50 }
  - { offsetInCU: 0x47DA1, offset: 0x5F365, size: 0x8, addend: 0x0, symName: __ZN14CScriptWitnessD1Ev, symObjAddr: 0x3040, symBinAddr: 0x100006900, symSize: 0x20 }
  - { offsetInCU: 0x47DCE, offset: 0x5F392, size: 0x8, addend: 0x0, symName: __ZN15CQuantumWitness17FromScriptWitnessERK14CScriptWitness, symObjAddr: 0x3060, symBinAddr: 0x100006920, symSize: 0x4B0 }
  - { offsetInCU: 0x47E4C, offset: 0x5F410, size: 0x8, addend: 0x0, symName: __ZNKSt3__16vectorINS0_IhNS_9allocatorIhEEEENS1_IS3_EEEixB7v160006Em, symObjAddr: 0x3510, symBinAddr: 0x100006DD0, symSize: 0x20 }
  - { offsetInCU: 0x47E83, offset: 0x5F447, size: 0x8, addend: 0x0, symName: __ZNSt3__14spanIKhLm18446744073709551615EEC1B7v160006IRKNS_6vectorIhNS_9allocatorIhEEEEEEOT_, symObjAddr: 0x3530, symBinAddr: 0x100006DF0, symSize: 0x30 }
  - { offsetInCU: 0x47FC3, offset: 0x5F587, size: 0x8, addend: 0x0, symName: __ZN10SpanReaderC1ENSt3__14spanIKhLm18446744073709551615EEE, symObjAddr: 0x3560, symBinAddr: 0x100006E20, symSize: 0x30 }
  - { offsetInCU: 0x48005, offset: 0x5F5C9, size: 0x8, addend: 0x0, symName: __ZN10SpanReaderrsIR20CAggregatedSignatureEERS_OT_, symObjAddr: 0x3590, symBinAddr: 0x100006E50, symSize: 0x30 }
  - { offsetInCU: 0x48042, offset: 0x5F606, size: 0x8, addend: 0x0, symName: __ZN10SpanReaderrsIRNSt3__16vectorI8CQPubKeyNS1_9allocatorIS3_EEEEEERS_OT_, symObjAddr: 0x35C0, symBinAddr: 0x100006E80, symSize: 0x30 }
  - { offsetInCU: 0x4807F, offset: 0x5F643, size: 0x8, addend: 0x0, symName: __ZN10SpanReaderrsIRNSt3__16vectorI7uint160NS1_9allocatorIS3_EEEEEERS_OT_, symObjAddr: 0x35F0, symBinAddr: 0x100006EB0, symSize: 0x30 }
  - { offsetInCU: 0x480BB, offset: 0x5F67F, size: 0x8, addend: 0x0, symName: __Z22LogPrintFormatInternalIJEEvNSt3__117basic_string_viewIcNS0_11char_traitsIcEEEES4_iN5BCLog8LogFlagsENS5_5LevelEN4util21ConstevalFormatStringIXsZT_EEEDpRKT_, symObjAddr: 0x3620, symBinAddr: 0x100006EE0, symSize: 0x300 }
  - { offsetInCU: 0x48154, offset: 0x5F718, size: 0x8, addend: 0x0, symName: __Z8ReadLE32IhEjPKT_, symObjAddr: 0x3920, symBinAddr: 0x1000071E0, symSize: 0x30 }
  - { offsetInCU: 0x48198, offset: 0x5F75C, size: 0x8, addend: 0x0, symName: __Z22LogPrintFormatInternalIJjEEvNSt3__117basic_string_viewIcNS0_11char_traitsIcEEEES4_iN5BCLog8LogFlagsENS5_5LevelEN4util21ConstevalFormatStringIXsZT_EEEDpRKT_, symObjAddr: 0x3950, symBinAddr: 0x100007210, symSize: 0x300 }
  - { offsetInCU: 0x48246, offset: 0x5F80A, size: 0x8, addend: 0x0, symName: __ZNKSt3__16vectorI8CQPubKeyNS_9allocatorIS1_EEE4sizeB7v160006Ev, symObjAddr: 0x3C50, symBinAddr: 0x100007510, symSize: 0x30 }
  - { offsetInCU: 0x4826C, offset: 0x5F830, size: 0x8, addend: 0x0, symName: __ZNKSt3__16vectorI7uint160NS_9allocatorIS1_EEE4sizeB7v160006Ev, symObjAddr: 0x3C80, symBinAddr: 0x100007540, symSize: 0x30 }
  - { offsetInCU: 0x48292, offset: 0x5F856, size: 0x8, addend: 0x0, symName: __ZNKSt3__16vectorI8CQPubKeyNS_9allocatorIS1_EEE5beginB7v160006Ev, symObjAddr: 0x3CB0, symBinAddr: 0x100007570, symSize: 0x30 }
  - { offsetInCU: 0x482BA, offset: 0x5F87E, size: 0x8, addend: 0x0, symName: __ZNKSt3__16vectorI8CQPubKeyNS_9allocatorIS1_EEE3endB7v160006Ev, symObjAddr: 0x3CE0, symBinAddr: 0x1000075A0, symSize: 0x30 }
  - { offsetInCU: 0x482E2, offset: 0x5F8A6, size: 0x8, addend: 0x0, symName: __ZNKSt3__111__wrap_iterIPK8CQPubKeyEdeB7v160006Ev, symObjAddr: 0x3D40, symBinAddr: 0x100007600, symSize: 0x20 }
  - { offsetInCU: 0x48308, offset: 0x5F8CC, size: 0x8, addend: 0x0, symName: __ZNSt3__111__wrap_iterIPK8CQPubKeyEppB7v160006Ev, symObjAddr: 0x3D60, symBinAddr: 0x100007620, symSize: 0x20 }
  - { offsetInCU: 0x4832E, offset: 0x5F8F2, size: 0x8, addend: 0x0, symName: __ZNK15CQuantumWitness7GetSizeEv, symObjAddr: 0x3D80, symBinAddr: 0x100007640, symSize: 0x80 }
  - { offsetInCU: 0x488CB, offset: 0x5FE8F, size: 0x8, addend: 0x0, symName: __ZN26CQuantumTransactionBuilder8AddInputERK9COutPointRK15CQuantumKeyPairxRK7CScript, symObjAddr: 0x3E00, symBinAddr: 0x1000076C0, symSize: 0x350 }
  - { offsetInCU: 0x48945, offset: 0x5FF09, size: 0x8, addend: 0x0, symName: __ZN5CTxInC1Ev, symObjAddr: 0x4150, symBinAddr: 0x100007A10, symSize: 0x20 }
  - { offsetInCU: 0x4896F, offset: 0x5FF33, size: 0x8, addend: 0x0, symName: __ZN7CScriptC1Ev, symObjAddr: 0x4170, symBinAddr: 0x100007A30, symSize: 0x20 }
  - { offsetInCU: 0x4899E, offset: 0x5FF62, size: 0x8, addend: 0x0, symName: __ZN7CScriptaSEOS_, symObjAddr: 0x4190, symBinAddr: 0x100007A50, symSize: 0x30 }
  - { offsetInCU: 0x489D0, offset: 0x5FF94, size: 0x8, addend: 0x0, symName: __ZN7CScriptD1Ev, symObjAddr: 0x41C0, symBinAddr: 0x100007A80, symSize: 0x20 }
  - { offsetInCU: 0x489FD, offset: 0x5FFC1, size: 0x8, addend: 0x0, symName: __ZNSt3__16vectorI5CTxInNS_9allocatorIS1_EEE9push_backB7v160006ERKS1_, symObjAddr: 0x41E0, symBinAddr: 0x100007AA0, symSize: 0x60 }
  - { offsetInCU: 0x48A34, offset: 0x5FFF8, size: 0x8, addend: 0x0, symName: __ZNSt3__16vectorI15CQuantumKeyPairNS_9allocatorIS1_EEE9push_backB7v160006ERKS1_, symObjAddr: 0x4240, symBinAddr: 0x100007B00, symSize: 0x60 }
  - { offsetInCU: 0x48A6B, offset: 0x6002F, size: 0x8, addend: 0x0, symName: __ZNSt3__16vectorIxNS_9allocatorIxEEE9push_backB7v160006ERKx, symObjAddr: 0x42A0, symBinAddr: 0x100007B60, symSize: 0x60 }
  - { offsetInCU: 0x48AA1, offset: 0x60065, size: 0x8, addend: 0x0, symName: __Z22LogPrintFormatInternalIJPKcxEEvNSt3__117basic_string_viewIcNS2_11char_traitsIcEEEES6_iN5BCLog8LogFlagsENS7_5LevelEN4util21ConstevalFormatStringIXsZT_EEEDpRKT_, symObjAddr: 0x4300, symBinAddr: 0x100007BC0, symSize: 0x310 }
  - { offsetInCU: 0x48B62, offset: 0x60126, size: 0x8, addend: 0x0, symName: __ZNKSt3__112basic_stringIcNS_11char_traitsIcEENS_9allocatorIcEEE5c_strB7v160006Ev, symObjAddr: 0x4610, symBinAddr: 0x100007ED0, symSize: 0x20 }
  - { offsetInCU: 0x48B88, offset: 0x6014C, size: 0x8, addend: 0x0, symName: __ZN5CTxInD1Ev, symObjAddr: 0x4630, symBinAddr: 0x100007EF0, symSize: 0x20 }
  - { offsetInCU: 0x48BB4, offset: 0x60178, size: 0x8, addend: 0x0, symName: __ZN26CQuantumTransactionBuilder9AddOutputERK7CScriptx, symObjAddr: 0x4650, symBinAddr: 0x100007F10, symSize: 0x220 }
  - { offsetInCU: 0x48C0B, offset: 0x601CF, size: 0x8, addend: 0x0, symName: __Z22LogPrintFormatInternalIJxEEvNSt3__117basic_string_viewIcNS0_11char_traitsIcEEEES4_iN5BCLog8LogFlagsENS5_5LevelEN4util21ConstevalFormatStringIXsZT_EEEDpRKT_, symObjAddr: 0x4870, symBinAddr: 0x100008130, symSize: 0x300 }
  - { offsetInCU: 0x48CB9, offset: 0x6027D, size: 0x8, addend: 0x0, symName: __ZN6CTxOutC1Ev, symObjAddr: 0x4B70, symBinAddr: 0x100008430, symSize: 0x20 }
  - { offsetInCU: 0x48CE3, offset: 0x602A7, size: 0x8, addend: 0x0, symName: __ZN7CScriptaSERKS_, symObjAddr: 0x4B90, symBinAddr: 0x100008450, symSize: 0x30 }
  - { offsetInCU: 0x48D15, offset: 0x602D9, size: 0x8, addend: 0x0, symName: __ZNSt3__16vectorI6CTxOutNS_9allocatorIS1_EEE9push_backB7v160006ERKS1_, symObjAddr: 0x4BC0, symBinAddr: 0x100008480, symSize: 0x60 }
  - { offsetInCU: 0x48D4C, offset: 0x60310, size: 0x8, addend: 0x0, symName: __ZN6CTxOutD1Ev, symObjAddr: 0x4C20, symBinAddr: 0x1000084E0, symSize: 0x20 }
  - { offsetInCU: 0x48D78, offset: 0x6033C, size: 0x8, addend: 0x0, symName: __ZN26CQuantumTransactionBuilder9AddOutputERK7uint160x, symObjAddr: 0x4C40, symBinAddr: 0x100008500, symSize: 0xB0 }
  - { offsetInCU: 0x48DCE, offset: 0x60392, size: 0x8, addend: 0x0, symName: __ZNK26CQuantumTransactionBuilder16BuildTransactionER19CMutableTransactionRNSt3__112basic_stringIcNS2_11char_traitsIcEENS2_9allocatorIcEEEE, symObjAddr: 0x4E00, symBinAddr: 0x1000086C0, symSize: 0x180 }
  - { offsetInCU: 0x48E15, offset: 0x603D9, size: 0x8, addend: 0x0, symName: __ZNKSt3__16vectorI5CTxInNS_9allocatorIS1_EEE5emptyB7v160006Ev, symObjAddr: 0x4F80, symBinAddr: 0x100008840, symSize: 0x20 }
  - { offsetInCU: 0x48E3B, offset: 0x603FF, size: 0x8, addend: 0x0, symName: __ZNSt3__112basic_stringIcNS_11char_traitsIcEENS_9allocatorIcEEEaSB7v160006EPKc, symObjAddr: 0x4FA0, symBinAddr: 0x100008860, symSize: 0x30 }
  - { offsetInCU: 0x48E70, offset: 0x60434, size: 0x8, addend: 0x0, symName: __ZNKSt3__16vectorI6CTxOutNS_9allocatorIS1_EEE5emptyB7v160006Ev, symObjAddr: 0x4FD0, symBinAddr: 0x100008890, symSize: 0x20 }
  - { offsetInCU: 0x48E96, offset: 0x6045A, size: 0x8, addend: 0x0, symName: __ZNSt3__16vectorI5CTxInNS_9allocatorIS1_EEEaSB7v160006ERKS4_, symObjAddr: 0x4FF0, symBinAddr: 0x1000088B0, symSize: 0x60 }
  - { offsetInCU: 0x48ECD, offset: 0x60491, size: 0x8, addend: 0x0, symName: __ZNSt3__16vectorI6CTxOutNS_9allocatorIS1_EEEaSB7v160006ERKS4_, symObjAddr: 0x5050, symBinAddr: 0x100008910, symSize: 0x60 }
  - { offsetInCU: 0x48F03, offset: 0x604C7, size: 0x8, addend: 0x0, symName: __Z22LogPrintFormatInternalIJmmEEvNSt3__117basic_string_viewIcNS0_11char_traitsIcEEEES4_iN5BCLog8LogFlagsENS5_5LevelEN4util21ConstevalFormatStringIXsZT_EEEDpRKT_, symObjAddr: 0x50B0, symBinAddr: 0x100008970, symSize: 0x310 }
  - { offsetInCU: 0x48FC4, offset: 0x60588, size: 0x8, addend: 0x0, symName: __ZNKSt3__16vectorI5CTxInNS_9allocatorIS1_EEE4sizeB7v160006Ev, symObjAddr: 0x53C0, symBinAddr: 0x100008C80, symSize: 0x30 }
  - { offsetInCU: 0x48FEA, offset: 0x605AE, size: 0x8, addend: 0x0, symName: __ZNKSt3__16vectorI6CTxOutNS_9allocatorIS1_EEE4sizeB7v160006Ev, symObjAddr: 0x53F0, symBinAddr: 0x100008CB0, symSize: 0x30 }
  - { offsetInCU: 0x49010, offset: 0x605D4, size: 0x8, addend: 0x0, symName: __ZNK26CQuantumTransactionBuilder15SignTransactionER19CMutableTransactionRNSt3__112basic_stringIcNS2_11char_traitsIcEENS2_9allocatorIcEEEE, symObjAddr: 0x5420, symBinAddr: 0x100008CE0, symSize: 0x8E0 }
  - { offsetInCU: 0x49171, offset: 0x60735, size: 0x8, addend: 0x0, symName: __ZNKSt3__16vectorI15CQuantumKeyPairNS_9allocatorIS1_EEE4sizeB7v160006Ev, symObjAddr: 0x5D00, symBinAddr: 0x1000095C0, symSize: 0x30 }
  - { offsetInCU: 0x492BF, offset: 0x60883, size: 0x8, addend: 0x0, symName: __ZN20CDilithiumAggregatorC1Ev, symObjAddr: 0x5D30, symBinAddr: 0x1000095F0, symSize: 0x20 }
  - { offsetInCU: 0x492E9, offset: 0x608AD, size: 0x8, addend: 0x0, symName: __ZNSt3__16vectorI8CQPubKeyNS_9allocatorIS1_EEEC1B7v160006Ev, symObjAddr: 0x5D50, symBinAddr: 0x100009610, symSize: 0x20 }
  - { offsetInCU: 0x49313, offset: 0x608D7, size: 0x8, addend: 0x0, symName: __ZNSt3__16vectorI7uint160NS_9allocatorIS1_EEEC1B7v160006Ev, symObjAddr: 0x5D70, symBinAddr: 0x100009630, symSize: 0x20 }
  - { offsetInCU: 0x4933D, offset: 0x60901, size: 0x8, addend: 0x0, symName: __ZNK22transaction_identifierILb0EEcvRK7uint256Ev, symObjAddr: 0x5D90, symBinAddr: 0x100009650, symSize: 0x10 }
  - { offsetInCU: 0x49363, offset: 0x60927, size: 0x8, addend: 0x0, symName: __ZNKSt3__16vectorI15CQuantumKeyPairNS_9allocatorIS1_EEEixB7v160006Em, symObjAddr: 0x5DA0, symBinAddr: 0x100009660, symSize: 0x20 }
  - { offsetInCU: 0x4939A, offset: 0x6095E, size: 0x8, addend: 0x0, symName: __ZNSt3__112basic_stringIcNS_11char_traitsIcEENS_9allocatorIcEEEaSB7v160006EOS5_, symObjAddr: 0x5E10, symBinAddr: 0x1000096D0, symSize: 0x30 }
  - { offsetInCU: 0x493CF, offset: 0x60993, size: 0x8, addend: 0x0, symName: __ZNK15CQuantumKeyPair18GetDilithiumPubKeyEv, symObjAddr: 0x5E40, symBinAddr: 0x100009700, symSize: 0x30 }
  - { offsetInCU: 0x493F5, offset: 0x609B9, size: 0x8, addend: 0x0, symName: __ZNSt3__16vectorI8CQPubKeyNS_9allocatorIS1_EEE9push_backB7v160006ERKS1_, symObjAddr: 0x5EC0, symBinAddr: 0x100009780, symSize: 0x60 }
  - { offsetInCU: 0x4942C, offset: 0x609F0, size: 0x8, addend: 0x0, symName: __ZNSt3__16vectorI7uint160NS_9allocatorIS1_EEE9push_backB7v160006EOS1_, symObjAddr: 0x5F20, symBinAddr: 0x1000097E0, symSize: 0x60 }
  - { offsetInCU: 0x49463, offset: 0x60A27, size: 0x8, addend: 0x0, symName: __ZNK15CQuantumKeyPair14GetAddressHashEv, symObjAddr: 0x5F80, symBinAddr: 0x100009840, symSize: 0x30 }
  - { offsetInCU: 0x49489, offset: 0x60A4D, size: 0x8, addend: 0x0, symName: __ZN15CQuantumWitnessC1Ev, symObjAddr: 0x5FB0, symBinAddr: 0x100009870, symSize: 0x20 }
  - { offsetInCU: 0x494B3, offset: 0x60A77, size: 0x8, addend: 0x0, symName: __ZN20CAggregatedSignatureaSERKS_, symObjAddr: 0x5FD0, symBinAddr: 0x100009890, symSize: 0x60 }
  - { offsetInCU: 0x494E4, offset: 0x60AA8, size: 0x8, addend: 0x0, symName: __ZNSt3__16vectorI8CQPubKeyNS_9allocatorIS1_EEEaSB7v160006ERKS4_, symObjAddr: 0x6030, symBinAddr: 0x1000098F0, symSize: 0x60 }
  - { offsetInCU: 0x4951B, offset: 0x60ADF, size: 0x8, addend: 0x0, symName: __ZNSt3__16vectorI7uint160NS_9allocatorIS1_EEEaSB7v160006ERKS4_, symObjAddr: 0x6090, symBinAddr: 0x100009950, symSize: 0x60 }
  - { offsetInCU: 0x49552, offset: 0x60B16, size: 0x8, addend: 0x0, symName: __ZNSt3__16vectorI5CTxInNS_9allocatorIS1_EEE5beginB7v160006Ev, symObjAddr: 0x60F0, symBinAddr: 0x1000099B0, symSize: 0x30 }
  - { offsetInCU: 0x4957A, offset: 0x60B3E, size: 0x8, addend: 0x0, symName: __ZNSt3__16vectorI5CTxInNS_9allocatorIS1_EEE3endB7v160006Ev, symObjAddr: 0x6120, symBinAddr: 0x1000099E0, symSize: 0x30 }
  - { offsetInCU: 0x495A2, offset: 0x60B66, size: 0x8, addend: 0x0, symName: __ZNKSt3__111__wrap_iterIP5CTxInEdeB7v160006Ev, symObjAddr: 0x6180, symBinAddr: 0x100009A40, symSize: 0x20 }
  - { offsetInCU: 0x495CD, offset: 0x60B91, size: 0x8, addend: 0x0, symName: __ZN14CScriptWitnessaSERKS_, symObjAddr: 0x61A0, symBinAddr: 0x100009A60, symSize: 0x30 }
  - { offsetInCU: 0x495FF, offset: 0x60BC3, size: 0x8, addend: 0x0, symName: __ZNSt3__111__wrap_iterIP5CTxInEppB7v160006Ev, symObjAddr: 0x61D0, symBinAddr: 0x100009A90, symSize: 0x20 }
  - { offsetInCU: 0x49625, offset: 0x60BE9, size: 0x8, addend: 0x0, symName: __ZN15CQuantumWitnessD1Ev, symObjAddr: 0x61F0, symBinAddr: 0x100009AB0, symSize: 0x20 }
  - { offsetInCU: 0x49651, offset: 0x60C15, size: 0x8, addend: 0x0, symName: __ZN20CAggregatedSignatureD1Ev, symObjAddr: 0x6210, symBinAddr: 0x100009AD0, symSize: 0x20 }
  - { offsetInCU: 0x4967D, offset: 0x60C41, size: 0x8, addend: 0x0, symName: __ZNSt3__16vectorI7uint160NS_9allocatorIS1_EEED1B7v160006Ev, symObjAddr: 0x6230, symBinAddr: 0x100009AF0, symSize: 0x20 }
  - { offsetInCU: 0x496A7, offset: 0x60C6B, size: 0x8, addend: 0x0, symName: __ZNSt3__16vectorI8CQPubKeyNS_9allocatorIS1_EEED1B7v160006Ev, symObjAddr: 0x6250, symBinAddr: 0x100009B10, symSize: 0x20 }
  - { offsetInCU: 0x496D1, offset: 0x60C95, size: 0x8, addend: 0x0, symName: __ZN20CDilithiumAggregatorD1Ev, symObjAddr: 0x6270, symBinAddr: 0x100009B30, symSize: 0x20 }
  - { offsetInCU: 0x496FB, offset: 0x60CBF, size: 0x8, addend: 0x0, symName: __ZN26CQuantumTransactionBuilder5ClearEv, symObjAddr: 0x6290, symBinAddr: 0x100009B50, symSize: 0x50 }
  - { offsetInCU: 0x49724, offset: 0x60CE8, size: 0x8, addend: 0x0, symName: __ZNSt3__16vectorI5CTxInNS_9allocatorIS1_EEE5clearB7v160006Ev, symObjAddr: 0x62E0, symBinAddr: 0x100009BA0, symSize: 0x50 }
  - { offsetInCU: 0x49759, offset: 0x60D1D, size: 0x8, addend: 0x0, symName: __ZNSt3__16vectorI6CTxOutNS_9allocatorIS1_EEE5clearB7v160006Ev, symObjAddr: 0x6330, symBinAddr: 0x100009BF0, symSize: 0x50 }
  - { offsetInCU: 0x4978E, offset: 0x60D52, size: 0x8, addend: 0x0, symName: __ZNSt3__16vectorI15CQuantumKeyPairNS_9allocatorIS1_EEE5clearB7v160006Ev, symObjAddr: 0x6380, symBinAddr: 0x100009C40, symSize: 0x50 }
  - { offsetInCU: 0x497C3, offset: 0x60D87, size: 0x8, addend: 0x0, symName: __ZNSt3__16vectorIxNS_9allocatorIxEEE5clearB7v160006Ev, symObjAddr: 0x63D0, symBinAddr: 0x100009C90, symSize: 0x50 }
  - { offsetInCU: 0x497F8, offset: 0x60DBC, size: 0x8, addend: 0x0, symName: __ZNK26CQuantumTransactionBuilder19GetTotalInputAmountEv, symObjAddr: 0x6420, symBinAddr: 0x100009CE0, symSize: 0x90 }
  - { offsetInCU: 0x49882, offset: 0x60E46, size: 0x8, addend: 0x0, symName: __ZNKSt3__16vectorIxNS_9allocatorIxEEE5beginB7v160006Ev, symObjAddr: 0x64B0, symBinAddr: 0x100009D70, symSize: 0x30 }
  - { offsetInCU: 0x498AA, offset: 0x60E6E, size: 0x8, addend: 0x0, symName: __ZNKSt3__16vectorIxNS_9allocatorIxEEE3endB7v160006Ev, symObjAddr: 0x64E0, symBinAddr: 0x100009DA0, symSize: 0x30 }
  - { offsetInCU: 0x498D2, offset: 0x60E96, size: 0x8, addend: 0x0, symName: __ZNKSt3__111__wrap_iterIPKxEdeB7v160006Ev, symObjAddr: 0x6540, symBinAddr: 0x100009E00, symSize: 0x20 }
  - { offsetInCU: 0x498F8, offset: 0x60EBC, size: 0x8, addend: 0x0, symName: __ZNSt3__111__wrap_iterIPKxEppB7v160006Ev, symObjAddr: 0x6560, symBinAddr: 0x100009E20, symSize: 0x20 }
  - { offsetInCU: 0x4991E, offset: 0x60EE2, size: 0x8, addend: 0x0, symName: __ZNK26CQuantumTransactionBuilder20GetTotalOutputAmountEv, symObjAddr: 0x6580, symBinAddr: 0x100009E40, symSize: 0x90 }
  - { offsetInCU: 0x499A8, offset: 0x60F6C, size: 0x8, addend: 0x0, symName: __ZNKSt3__16vectorI6CTxOutNS_9allocatorIS1_EEE5beginB7v160006Ev, symObjAddr: 0x6610, symBinAddr: 0x100009ED0, symSize: 0x30 }
  - { offsetInCU: 0x499D0, offset: 0x60F94, size: 0x8, addend: 0x0, symName: __ZNKSt3__16vectorI6CTxOutNS_9allocatorIS1_EEE3endB7v160006Ev, symObjAddr: 0x6640, symBinAddr: 0x100009F00, symSize: 0x30 }
  - { offsetInCU: 0x499F8, offset: 0x60FBC, size: 0x8, addend: 0x0, symName: __ZNKSt3__111__wrap_iterIPK6CTxOutEdeB7v160006Ev, symObjAddr: 0x66A0, symBinAddr: 0x100009F60, symSize: 0x20 }
  - { offsetInCU: 0x49A1E, offset: 0x60FE2, size: 0x8, addend: 0x0, symName: __ZNSt3__111__wrap_iterIPK6CTxOutEppB7v160006Ev, symObjAddr: 0x66C0, symBinAddr: 0x100009F80, symSize: 0x20 }
  - { offsetInCU: 0x49AE4, offset: 0x610A8, size: 0x8, addend: 0x0, symName: __ZN28CQuantumTransactionValidator19ValidateTransactionERK12CTransactionRNSt3__112basic_stringIcNS3_11char_traitsIcEENS3_9allocatorIcEEEE, symObjAddr: 0x66E0, symBinAddr: 0x100009FA0, symSize: 0x1B0 }
  - { offsetInCU: 0x49B2F, offset: 0x610F3, size: 0x8, addend: 0x0, symName: __ZNKSt3__16vectorI5CTxInNS_9allocatorIS1_EEEixB7v160006Em, symObjAddr: 0x6890, symBinAddr: 0x10000A150, symSize: 0x20 }
  - { offsetInCU: 0x49B66, offset: 0x6112A, size: 0x8, addend: 0x0, symName: __ZN28CQuantumTransactionValidator29ValidateAggregatedTransactionERK12CTransactionRNSt3__112basic_stringIcNS3_11char_traitsIcEENS3_9allocatorIcEEEE, symObjAddr: 0x68B0, symBinAddr: 0x10000A170, symSize: 0x330 }
  - { offsetInCU: 0x49BDA, offset: 0x6119E, size: 0x8, addend: 0x0, symName: __ZNK12CTransaction7GetHashEv, symObjAddr: 0x6C10, symBinAddr: 0x10000A4D0, symSize: 0x20 }
  - { offsetInCU: 0x49C00, offset: 0x611C4, size: 0x8, addend: 0x0, symName: __ZN28CQuantumTransactionValidator22ValidateQuantumWitnessERK15CQuantumWitnessRKNSt3__16vectorI5CTxInNS3_9allocatorIS5_EEEERK7uint256RNS3_12basic_stringIcNS3_11char_traitsIcEENS6_IcEEEE, symObjAddr: 0x6C30, symBinAddr: 0x10000A4F0, symSize: 0x270 }
  - { offsetInCU: 0x49C80, offset: 0x61244, size: 0x8, addend: 0x0, symName: __ZN28CQuantumTransactionValidator18ExtractAddressHashERK7CScriptR7uint160, symObjAddr: 0x6EA0, symBinAddr: 0x10000A760, symSize: 0xB0 }
  - { offsetInCU: 0x49CB6, offset: 0x6127A, size: 0x8, addend: 0x0, symName: __ZNKSt3__16vectorI7uint160NS_9allocatorIS1_EEEixB7v160006Em, symObjAddr: 0x6F50, symBinAddr: 0x10000A810, symSize: 0x20 }
  - { offsetInCU: 0x49CED, offset: 0x612B1, size: 0x8, addend: 0x0, symName: __ZN28CQuantumTransactionValidator21VerifyAddressKeyMatchERK7uint160RK8CQPubKey, symObjAddr: 0x6F70, symBinAddr: 0x10000A830, symSize: 0x70 }
  - { offsetInCU: 0x49D32, offset: 0x612F6, size: 0x8, addend: 0x0, symName: __ZNKSt3__16vectorI8CQPubKeyNS_9allocatorIS1_EEEixB7v160006Em, symObjAddr: 0x6FE0, symBinAddr: 0x10000A8A0, symSize: 0x20 }
  - { offsetInCU: 0x49D69, offset: 0x6132D, size: 0x8, addend: 0x0, symName: __ZNK9prevectorILj28EhjiE4sizeEv, symObjAddr: 0x7000, symBinAddr: 0x10000A8C0, symSize: 0x50 }
  - { offsetInCU: 0x49D8F, offset: 0x61353, size: 0x8, addend: 0x0, symName: __ZNK9prevectorILj28EhjiEixEj, symObjAddr: 0x7050, symBinAddr: 0x10000A910, symSize: 0x30 }
  - { offsetInCU: 0x49DC4, offset: 0x61388, size: 0x8, addend: 0x0, symName: __ZN9base_blobILj160EE5beginEv, symObjAddr: 0x7080, symBinAddr: 0x10000A940, symSize: 0x20 }
  - { offsetInCU: 0x49DE9, offset: 0x613AD, size: 0x8, addend: 0x0, symName: __ZeqRK9base_blobILj160EES2_, symObjAddr: 0x7100, symBinAddr: 0x10000A9C0, symSize: 0x30 }
  - { offsetInCU: 0x49E24, offset: 0x613E8, size: 0x8, addend: 0x0, symName: __ZN7CScriptlsE10opcodetype, symObjAddr: 0x71A0, symBinAddr: 0x10000AA60, symSize: 0xD0 }
  - { offsetInCU: 0x49E59, offset: 0x6141D, size: 0x8, addend: 0x0, symName: __ZN7CScriptlsENSt3__14spanIKhLm18446744073709551615EEE, symObjAddr: 0x7270, symBinAddr: 0x10000AB30, symSize: 0x60 }
  - { offsetInCU: 0x49E8E, offset: 0x61452, size: 0x8, addend: 0x0, symName: __ZNK9base_blobILj160EE5beginEv, symObjAddr: 0x72D0, symBinAddr: 0x10000AB90, symSize: 0x20 }
  - { offsetInCU: 0x49EB4, offset: 0x61478, size: 0x8, addend: 0x0, symName: __ZNK9base_blobILj160EE3endEv, symObjAddr: 0x72F0, symBinAddr: 0x10000ABB0, symSize: 0x20 }
  - { offsetInCU: 0x49EDA, offset: 0x6149E, size: 0x8, addend: 0x0, symName: __ZNSt3__16vectorIhNS_9allocatorIhEEEC1IPKhLi0EEET_S7_, symObjAddr: 0x7310, symBinAddr: 0x10000ABD0, symSize: 0x30 }
  - { offsetInCU: 0x49F33, offset: 0x614F7, size: 0x8, addend: 0x0, symName: __ZNSt3__14spanIKhLm18446744073709551615EEC1B7v160006INS_6vectorIhNS_9allocatorIhEEEEEEOT_, symObjAddr: 0x7340, symBinAddr: 0x10000AC00, symSize: 0x30 }
  - { offsetInCU: 0x49F7F, offset: 0x61543, size: 0x8, addend: 0x0, symName: __ZN6bech3212DecodeResultD1Ev, symObjAddr: 0x7470, symBinAddr: 0x10000AD30, symSize: 0x20 }
  - { offsetInCU: 0x4A3A2, offset: 0x61966, size: 0x8, addend: 0x0, symName: __ZN21CQuantumWalletManager18GenerateNewKeyPairEv, symObjAddr: 0x7500, symBinAddr: 0x10000ADC0, symSize: 0xB0 }
  - { offsetInCU: 0x4A3DB, offset: 0x6199F, size: 0x8, addend: 0x0, symName: __ZN21CQuantumWalletManager10AddKeyPairERK15CQuantumKeyPair, symObjAddr: 0x75B0, symBinAddr: 0x10000AE70, symSize: 0x290 }
  - { offsetInCU: 0x4A432, offset: 0x619F6, size: 0x8, addend: 0x0, symName: __ZNSt3__13mapI7uint160mNS_4lessIS1_EENS_9allocatorINS_4pairIKS1_mEEEEE4findB7v160006ERS6_, symObjAddr: 0x7870, symBinAddr: 0x10000B130, symSize: 0x40 }
  - { offsetInCU: 0x4A467, offset: 0x61A2B, size: 0x8, addend: 0x0, symName: __ZNSt3__13mapI7uint160mNS_4lessIS1_EENS_9allocatorINS_4pairIKS1_mEEEEE3endB7v160006Ev, symObjAddr: 0x78B0, symBinAddr: 0x10000B170, symSize: 0x30 }
  - { offsetInCU: 0x4A48D, offset: 0x61A51, size: 0x8, addend: 0x0, symName: __ZNSt3__13mapI7uint160mNS_4lessIS1_EENS_9allocatorINS_4pairIKS1_mEEEEEixERS6_, symObjAddr: 0x78E0, symBinAddr: 0x10000B1A0, symSize: 0x70 }
  - { offsetInCU: 0x4A4C4, offset: 0x61A88, size: 0x8, addend: 0x0, symName: __ZNK21CQuantumWalletManager19GetKeyPairByAddressERK7uint160, symObjAddr: 0x7950, symBinAddr: 0x10000B210, symSize: 0x90 }
  - { offsetInCU: 0x4A50B, offset: 0x61ACF, size: 0x8, addend: 0x0, symName: __ZNKSt3__13mapI7uint160mNS_4lessIS1_EENS_9allocatorINS_4pairIKS1_mEEEEE4findB7v160006ERS6_, symObjAddr: 0x79E0, symBinAddr: 0x10000B2A0, symSize: 0x40 }
  - { offsetInCU: 0x4A540, offset: 0x61B04, size: 0x8, addend: 0x0, symName: __ZNKSt3__13mapI7uint160mNS_4lessIS1_EENS_9allocatorINS_4pairIKS1_mEEEEE3endB7v160006Ev, symObjAddr: 0x7A50, symBinAddr: 0x10000B310, symSize: 0x30 }
  - { offsetInCU: 0x4A566, offset: 0x61B2A, size: 0x8, addend: 0x0, symName: __ZNKSt3__120__map_const_iteratorINS_21__tree_const_iteratorINS_12__value_typeI7uint160mEEPNS_11__tree_nodeIS4_PvEElEEEptB7v160006Ev, symObjAddr: 0x7A80, symBinAddr: 0x10000B340, symSize: 0x30 }
  - { offsetInCU: 0x4A58C, offset: 0x61B50, size: 0x8, addend: 0x0, symName: __ZNK21CQuantumWalletManager15GetAllAddressesEv, symObjAddr: 0x7AB0, symBinAddr: 0x10000B370, symSize: 0x140 }
  - { offsetInCU: 0x4A61B, offset: 0x61BDF, size: 0x8, addend: 0x0, symName: __ZNSt3__16vectorI7uint160NS_9allocatorIS1_EEE7reserveEm, symObjAddr: 0x7BF0, symBinAddr: 0x10000B4B0, symSize: 0xF0 }
  - { offsetInCU: 0x4A676, offset: 0x61C3A, size: 0x8, addend: 0x0, symName: __ZNKSt3__16vectorI15CQuantumKeyPairNS_9allocatorIS1_EEE5beginB7v160006Ev, symObjAddr: 0x7CE0, symBinAddr: 0x10000B5A0, symSize: 0x30 }
  - { offsetInCU: 0x4A69E, offset: 0x61C62, size: 0x8, addend: 0x0, symName: __ZNKSt3__16vectorI15CQuantumKeyPairNS_9allocatorIS1_EEE3endB7v160006Ev, symObjAddr: 0x7D10, symBinAddr: 0x10000B5D0, symSize: 0x30 }
  - { offsetInCU: 0x4A6C6, offset: 0x61C8A, size: 0x8, addend: 0x0, symName: __ZNKSt3__111__wrap_iterIPK15CQuantumKeyPairEdeB7v160006Ev, symObjAddr: 0x7D70, symBinAddr: 0x10000B630, symSize: 0x20 }
  - { offsetInCU: 0x4A6EC, offset: 0x61CB0, size: 0x8, addend: 0x0, symName: __ZNSt3__111__wrap_iterIPK15CQuantumKeyPairEppB7v160006Ev, symObjAddr: 0x7D90, symBinAddr: 0x10000B650, symSize: 0x20 }
  - { offsetInCU: 0x4A712, offset: 0x61CD6, size: 0x8, addend: 0x0, symName: __ZN21CQuantumWalletManager17CreateTransactionERKNSt3__16vectorI9COutPointNS0_9allocatorIS2_EEEERKNS1_INS0_4pairI7uint160xEENS3_ISA_EEEER19CMutableTransactionRNS0_12basic_stringIcNS0_11char_traitsIcEENS3_IcEEEE, symObjAddr: 0x7DB0, symBinAddr: 0x10000B670, symSize: 0x390 }
  - { offsetInCU: 0x4A865, offset: 0x61E29, size: 0x8, addend: 0x0, symName: __ZN26CQuantumTransactionBuilderC1Ev, symObjAddr: 0x8140, symBinAddr: 0x10000BA00, symSize: 0x20 }
  - { offsetInCU: 0x4A88F, offset: 0x61E53, size: 0x8, addend: 0x0, symName: __ZNKSt3__16vectorI9COutPointNS_9allocatorIS1_EEE5beginB7v160006Ev, symObjAddr: 0x8160, symBinAddr: 0x10000BA20, symSize: 0x30 }
  - { offsetInCU: 0x4A8B7, offset: 0x61E7B, size: 0x8, addend: 0x0, symName: __ZNKSt3__16vectorI9COutPointNS_9allocatorIS1_EEE3endB7v160006Ev, symObjAddr: 0x8190, symBinAddr: 0x10000BA50, symSize: 0x30 }
  - { offsetInCU: 0x4A8DF, offset: 0x61EA3, size: 0x8, addend: 0x0, symName: __ZNKSt3__111__wrap_iterIPK9COutPointEdeB7v160006Ev, symObjAddr: 0x81F0, symBinAddr: 0x10000BAB0, symSize: 0x20 }
  - { offsetInCU: 0x4A905, offset: 0x61EC9, size: 0x8, addend: 0x0, symName: __ZNKSt3__16vectorI15CQuantumKeyPairNS_9allocatorIS1_EEE5emptyB7v160006Ev, symObjAddr: 0x8210, symBinAddr: 0x10000BAD0, symSize: 0x20 }
  - { offsetInCU: 0x4A92B, offset: 0x61EEF, size: 0x8, addend: 0x0, symName: __ZNSt3__16vectorI15CQuantumKeyPairNS_9allocatorIS1_EEEixB7v160006Em, symObjAddr: 0x8230, symBinAddr: 0x10000BAF0, symSize: 0x20 }
  - { offsetInCU: 0x4A962, offset: 0x61F26, size: 0x8, addend: 0x0, symName: __ZNSt3__111__wrap_iterIPK9COutPointEppB7v160006Ev, symObjAddr: 0x8250, symBinAddr: 0x10000BB10, symSize: 0x20 }
  - { offsetInCU: 0x4A988, offset: 0x61F4C, size: 0x8, addend: 0x0, symName: __ZNKSt3__16vectorINS_4pairI7uint160xEENS_9allocatorIS3_EEE5beginB7v160006Ev, symObjAddr: 0x8270, symBinAddr: 0x10000BB30, symSize: 0x30 }
  - { offsetInCU: 0x4A9B0, offset: 0x61F74, size: 0x8, addend: 0x0, symName: __ZNKSt3__16vectorINS_4pairI7uint160xEENS_9allocatorIS3_EEE3endB7v160006Ev, symObjAddr: 0x82A0, symBinAddr: 0x10000BB60, symSize: 0x30 }
  - { offsetInCU: 0x4A9D8, offset: 0x61F9C, size: 0x8, addend: 0x0, symName: __ZNKSt3__111__wrap_iterIPKNS_4pairI7uint160xEEEdeB7v160006Ev, symObjAddr: 0x8300, symBinAddr: 0x10000BBC0, symSize: 0x20 }
  - { offsetInCU: 0x4A9FE, offset: 0x61FC2, size: 0x8, addend: 0x0, symName: __ZNSt3__111__wrap_iterIPKNS_4pairI7uint160xEEEppB7v160006Ev, symObjAddr: 0x8320, symBinAddr: 0x10000BBE0, symSize: 0x20 }
  - { offsetInCU: 0x4AA24, offset: 0x61FE8, size: 0x8, addend: 0x0, symName: __ZN26CQuantumTransactionBuilderD1Ev, symObjAddr: 0x8340, symBinAddr: 0x10000BC00, symSize: 0x20 }
  - { offsetInCU: 0x4AA50, offset: 0x62014, size: 0x8, addend: 0x0, symName: __ZN21CQuantumWalletManager15SignTransactionER19CMutableTransactionRNSt3__112basic_stringIcNS2_11char_traitsIcEENS2_9allocatorIcEEEE, symObjAddr: 0x8360, symBinAddr: 0x10000BC20, symSize: 0x200 }
  - { offsetInCU: 0x4AAC6, offset: 0x6208A, size: 0x8, addend: 0x0, symName: __ZNSt3__16vectorI5CTxInNS_9allocatorIS1_EEEixB7v160006Em, symObjAddr: 0x8560, symBinAddr: 0x10000BE20, symSize: 0x20 }
  - { offsetInCU: 0x4AAFD, offset: 0x620C1, size: 0x8, addend: 0x0, symName: __ZNK21CQuantumWalletManager10SaveToFileERKNSt3__112basic_stringIcNS0_11char_traitsIcEENS0_9allocatorIcEEEE, symObjAddr: 0x8580, symBinAddr: 0x10000BE40, symSize: 0x2A0 }
  - { offsetInCU: 0x4AC69, offset: 0x6222D, size: 0x8, addend: 0x0, symName: __ZNSt3__114basic_ofstreamIcNS_11char_traitsIcEEEC1ERKNS_12basic_stringIcS2_NS_9allocatorIcEEEEj, symObjAddr: 0x8820, symBinAddr: 0x10000C0E0, symSize: 0x160 }
  - { offsetInCU: 0x4ACB3, offset: 0x62277, size: 0x8, addend: 0x0, symName: __ZNKSt3__114basic_ofstreamIcNS_11char_traitsIcEEE7is_openEv, symObjAddr: 0x8980, symBinAddr: 0x10000C240, symSize: 0x30 }
  - { offsetInCU: 0x4ACE0, offset: 0x622A4, size: 0x8, addend: 0x0, symName: __ZNSt3__114basic_ofstreamIcNS_11char_traitsIcEEED1Ev, symObjAddr: 0x89B0, symBinAddr: 0x10000C270, symSize: 0x40 }
  - { offsetInCU: 0x4AD0D, offset: 0x622D1, size: 0x8, addend: 0x0, symName: __ZN21CQuantumWalletManager12LoadFromFileERKNSt3__112basic_stringIcNS0_11char_traitsIcEENS0_9allocatorIcEEEE, symObjAddr: 0x89F0, symBinAddr: 0x10000C2B0, symSize: 0x2D0 }
  - { offsetInCU: 0x4AE43, offset: 0x62407, size: 0x8, addend: 0x0, symName: __ZNSt3__114basic_ifstreamIcNS_11char_traitsIcEEEC1ERKNS_12basic_stringIcS2_NS_9allocatorIcEEEEj, symObjAddr: 0x8CC0, symBinAddr: 0x10000C580, symSize: 0x160 }
  - { offsetInCU: 0x4AE8D, offset: 0x62451, size: 0x8, addend: 0x0, symName: __ZNKSt3__114basic_ifstreamIcNS_11char_traitsIcEEE7is_openEv, symObjAddr: 0x8E20, symBinAddr: 0x10000C6E0, symSize: 0x30 }
  - { offsetInCU: 0x4AEB5, offset: 0x62479, size: 0x8, addend: 0x0, symName: __ZN21CQuantumWalletManager5ClearEv, symObjAddr: 0x8E50, symBinAddr: 0x10000C710, symSize: 0x30 }
  - { offsetInCU: 0x4AEE0, offset: 0x624A4, size: 0x8, addend: 0x0, symName: __ZNSt3__114basic_ifstreamIcNS_11char_traitsIcEEED1Ev, symObjAddr: 0x8E80, symBinAddr: 0x10000C740, symSize: 0x40 }
  - { offsetInCU: 0x4AF12, offset: 0x624D6, size: 0x8, addend: 0x0, symName: __ZN7uint160C2Ev, symObjAddr: 0x91D0, symBinAddr: 0x10000C780, symSize: 0x20 }
  - { offsetInCU: 0x4AF3C, offset: 0x62500, size: 0x8, addend: 0x0, symName: __ZN9base_blobILj160EEC2Ev, symObjAddr: 0x91F0, symBinAddr: 0x10000C7A0, symSize: 0x30 }
  - { offsetInCU: 0x4AF66, offset: 0x6252A, size: 0x8, addend: 0x0, symName: __ZN4CKeyC2ERKS_, symObjAddr: 0x99C0, symBinAddr: 0x10000C7D0, symSize: 0x60 }
  - { offsetInCU: 0x4AF9E, offset: 0x62562, size: 0x8, addend: 0x0, symName: __ZN5CQKeyC2ERKS_, symObjAddr: 0x9A20, symBinAddr: 0x10000C830, symSize: 0x80 }
  - { offsetInCU: 0x4AFD6, offset: 0x6259A, size: 0x8, addend: 0x0, symName: __ZN4CKeyC2EOS_, symObjAddr: 0x9AA0, symBinAddr: 0x10000C8B0, symSize: 0x40 }
  - { offsetInCU: 0x4B00B, offset: 0x625CF, size: 0x8, addend: 0x0, symName: __ZNSt3__110unique_ptrINS_5arrayIhLm32EEE19SecureUniqueDeleterIS2_EEC1B7v160006EOS5_, symObjAddr: 0x9AE0, symBinAddr: 0x10000C8F0, symSize: 0x30 }
  - { offsetInCU: 0x4B043, offset: 0x62607, size: 0x8, addend: 0x0, symName: __ZNSt3__110unique_ptrINS_5arrayIhLm32EEE19SecureUniqueDeleterIS2_EEC2B7v160006EOS5_, symObjAddr: 0x9B10, symBinAddr: 0x10000C920, symSize: 0x60 }
  - { offsetInCU: 0x4B085, offset: 0x62649, size: 0x8, addend: 0x0, symName: __ZNSt3__117__compressed_pairIPNS_5arrayIhLm32EEE19SecureUniqueDeleterIS2_EEC1B7v160006IS3_S5_EEOT_OT0_, symObjAddr: 0x9BD0, symBinAddr: 0x10000C980, symSize: 0x30 }
  - { offsetInCU: 0x4B0DD, offset: 0x626A1, size: 0x8, addend: 0x0, symName: __ZNSt3__117__compressed_pairIPNS_5arrayIhLm32EEE19SecureUniqueDeleterIS2_EEC2B7v160006IS3_S5_EEOT_OT0_, symObjAddr: 0x9C00, symBinAddr: 0x10000C9B0, symSize: 0x40 }
  - { offsetInCU: 0x4B135, offset: 0x626F9, size: 0x8, addend: 0x0, symName: __ZNSt3__122__compressed_pair_elemIPNS_5arrayIhLm32EEELi0ELb0EEC2B7v160006IS3_vEEOT_, symObjAddr: 0x9C40, symBinAddr: 0x10000C9F0, symSize: 0x20 }
  - { offsetInCU: 0x4B177, offset: 0x6273B, size: 0x8, addend: 0x0, symName: __ZNSt3__122__compressed_pair_elemI19SecureUniqueDeleterINS_5arrayIhLm32EEEELi1ELb1EEC2B7v160006IS4_vEEOT_, symObjAddr: 0x9C60, symBinAddr: 0x10000CA10, symSize: 0x10 }
  - { offsetInCU: 0x4B1B9, offset: 0x6277D, size: 0x8, addend: 0x0, symName: __ZN5CQKeyC2EOS_, symObjAddr: 0x9C70, symBinAddr: 0x10000CA20, symSize: 0x60 }
  - { offsetInCU: 0x4B1EE, offset: 0x627B2, size: 0x8, addend: 0x0, symName: __ZNSt3__110unique_ptrINS_5arrayIhLm4032EEE19SecureUniqueDeleterIS2_EEC1B7v160006EOS5_, symObjAddr: 0x9CD0, symBinAddr: 0x10000CA80, symSize: 0x30 }
  - { offsetInCU: 0x4B226, offset: 0x627EA, size: 0x8, addend: 0x0, symName: __ZNSt3__110unique_ptrI8CQPubKeyNS_14default_deleteIS1_EEEC1B7v160006EOS4_, symObjAddr: 0x9D00, symBinAddr: 0x10000CAB0, symSize: 0x30 }
  - { offsetInCU: 0x4B25E, offset: 0x62822, size: 0x8, addend: 0x0, symName: __ZNSt3__110unique_ptrINS_5arrayIhLm4032EEE19SecureUniqueDeleterIS2_EEC2B7v160006EOS5_, symObjAddr: 0x9D30, symBinAddr: 0x10000CAE0, symSize: 0x60 }
  - { offsetInCU: 0x4B296, offset: 0x6285A, size: 0x8, addend: 0x0, symName: __ZNSt3__110unique_ptrINS_5arrayIhLm4032EEE19SecureUniqueDeleterIS2_EE7releaseB7v160006Ev, symObjAddr: 0x9D90, symBinAddr: 0x10000CB40, symSize: 0x40 }
  - { offsetInCU: 0x4B2CB, offset: 0x6288F, size: 0x8, addend: 0x0, symName: __ZNSt3__110unique_ptrINS_5arrayIhLm4032EEE19SecureUniqueDeleterIS2_EE11get_deleterB7v160006Ev, symObjAddr: 0x9DD0, symBinAddr: 0x10000CB80, symSize: 0x20 }
  - { offsetInCU: 0x4B2FB, offset: 0x628BF, size: 0x8, addend: 0x0, symName: __ZNSt3__117__compressed_pairIPNS_5arrayIhLm4032EEE19SecureUniqueDeleterIS2_EEC1B7v160006IS3_S5_EEOT_OT0_, symObjAddr: 0x9DF0, symBinAddr: 0x10000CBA0, symSize: 0x30 }
  - { offsetInCU: 0x4B353, offset: 0x62917, size: 0x8, addend: 0x0, symName: __ZNSt3__117__compressed_pairIPNS_5arrayIhLm4032EEE19SecureUniqueDeleterIS2_EEC2B7v160006IS3_S5_EEOT_OT0_, symObjAddr: 0x9E20, symBinAddr: 0x10000CBD0, symSize: 0x40 }
  - { offsetInCU: 0x4B3AB, offset: 0x6296F, size: 0x8, addend: 0x0, symName: __ZNSt3__122__compressed_pair_elemIPNS_5arrayIhLm4032EEELi0ELb0EEC2B7v160006IS3_vEEOT_, symObjAddr: 0x9E60, symBinAddr: 0x10000CC10, symSize: 0x20 }
  - { offsetInCU: 0x4B3ED, offset: 0x629B1, size: 0x8, addend: 0x0, symName: __ZNSt3__122__compressed_pair_elemI19SecureUniqueDeleterINS_5arrayIhLm4032EEEELi1ELb1EEC2B7v160006IS4_vEEOT_, symObjAddr: 0x9E80, symBinAddr: 0x10000CC30, symSize: 0x10 }
  - { offsetInCU: 0x4B42F, offset: 0x629F3, size: 0x8, addend: 0x0, symName: __ZNSt3__110unique_ptrI8CQPubKeyNS_14default_deleteIS1_EEEC2B7v160006EOS4_, symObjAddr: 0x9E90, symBinAddr: 0x10000CC40, symSize: 0x60 }
  - { offsetInCU: 0x4B467, offset: 0x62A2B, size: 0x8, addend: 0x0, symName: __ZNSt3__110unique_ptrI8CQPubKeyNS_14default_deleteIS1_EEE7releaseB7v160006Ev, symObjAddr: 0x9EF0, symBinAddr: 0x10000CCA0, symSize: 0x40 }
  - { offsetInCU: 0x4B49C, offset: 0x62A60, size: 0x8, addend: 0x0, symName: __ZNSt3__110unique_ptrI8CQPubKeyNS_14default_deleteIS1_EEE11get_deleterB7v160006Ev, symObjAddr: 0x9F30, symBinAddr: 0x10000CCE0, symSize: 0x20 }
  - { offsetInCU: 0x4B4CC, offset: 0x62A90, size: 0x8, addend: 0x0, symName: __ZNSt3__117__compressed_pairIP8CQPubKeyNS_14default_deleteIS1_EEEC1B7v160006IS2_S4_EEOT_OT0_, symObjAddr: 0x9F50, symBinAddr: 0x10000CD00, symSize: 0x30 }
  - { offsetInCU: 0x4B524, offset: 0x62AE8, size: 0x8, addend: 0x0, symName: __ZNSt3__117__compressed_pairIP8CQPubKeyNS_14default_deleteIS1_EEEC2B7v160006IS2_S4_EEOT_OT0_, symObjAddr: 0x9F80, symBinAddr: 0x10000CD30, symSize: 0x40 }
  - { offsetInCU: 0x4B57C, offset: 0x62B40, size: 0x8, addend: 0x0, symName: __ZNSt3__122__compressed_pair_elemIP8CQPubKeyLi0ELb0EEC2B7v160006IS2_vEEOT_, symObjAddr: 0x9FC0, symBinAddr: 0x10000CD70, symSize: 0x20 }
  - { offsetInCU: 0x4B5BE, offset: 0x62B82, size: 0x8, addend: 0x0, symName: __ZNSt3__122__compressed_pair_elemINS_14default_deleteI8CQPubKeyEELi1ELb1EEC2B7v160006IS3_vEEOT_, symObjAddr: 0x9FE0, symBinAddr: 0x10000CD90, symSize: 0x10 }
  - { offsetInCU: 0x4B600, offset: 0x62BC4, size: 0x8, addend: 0x0, symName: __ZNKSt3__110unique_ptrINS_5arrayIhLm32EEE19SecureUniqueDeleterIS2_EEdeB7v160006Ev, symObjAddr: 0xA070, symBinAddr: 0x10000CDA0, symSize: 0x20 }
  - { offsetInCU: 0x4B626, offset: 0x62BEA, size: 0x8, addend: 0x0, symName: __ZN5CQKey11MakeKeyDataEv, symObjAddr: 0xA340, symBinAddr: 0x10000CDC0, symSize: 0x70 }
  - { offsetInCU: 0x4B64C, offset: 0x62C10, size: 0x8, addend: 0x0, symName: __ZNKSt3__110unique_ptrINS_5arrayIhLm4032EEE19SecureUniqueDeleterIS2_EEdeB7v160006Ev, symObjAddr: 0xA3B0, symBinAddr: 0x10000CE30, symSize: 0x20 }
  - { offsetInCU: 0x4B672, offset: 0x62C36, size: 0x8, addend: 0x0, symName: __ZN5CQKey12ClearKeyDataEv, symObjAddr: 0xA3D0, symBinAddr: 0x10000CE50, symSize: 0x40 }
  - { offsetInCU: 0x4B698, offset: 0x62C5C, size: 0x8, addend: 0x0, symName: __ZNKSt3__110unique_ptrI8CQPubKeyNS_14default_deleteIS1_EEEcvbB7v160006Ev, symObjAddr: 0xA410, symBinAddr: 0x10000CE90, symSize: 0x30 }
  - { offsetInCU: 0x4B6BE, offset: 0x62C82, size: 0x8, addend: 0x0, symName: __ZNKSt3__110unique_ptrI8CQPubKeyNS_14default_deleteIS1_EEEdeB7v160006Ev, symObjAddr: 0xA4A0, symBinAddr: 0x10000CF20, symSize: 0x20 }
  - { offsetInCU: 0x4B6E4, offset: 0x62CA8, size: 0x8, addend: 0x0, symName: __ZNSt3__110unique_ptrI8CQPubKeyNS_14default_deleteIS1_EEEaSB7v160006EOS4_, symObjAddr: 0xA4C0, symBinAddr: 0x10000CF40, symSize: 0x50 }
  - { offsetInCU: 0x4B717, offset: 0x62CDB, size: 0x8, addend: 0x0, symName: __Z18make_secure_uniqueINSt3__15arrayIhLm4032EEEJEENS0_10unique_ptrIT_19SecureUniqueDeleterIS4_EEEDpOT0_, symObjAddr: 0xA540, symBinAddr: 0x10000CF90, symSize: 0x60 }
  - { offsetInCU: 0x4B753, offset: 0x62D17, size: 0x8, addend: 0x0, symName: __ZNSt3__110unique_ptrINS_5arrayIhLm4032EEE19SecureUniqueDeleterIS2_EEaSB7v160006EOS5_, symObjAddr: 0xA5A0, symBinAddr: 0x10000CFF0, symSize: 0x50 }
  - { offsetInCU: 0x4B787, offset: 0x62D4B, size: 0x8, addend: 0x0, symName: __ZN16secure_allocatorINSt3__15arrayIhLm4032EEEE8allocateEm, symObjAddr: 0xA5F0, symBinAddr: 0x10000D040, symSize: 0x70 }
  - { offsetInCU: 0x4B7CA, offset: 0x62D8E, size: 0x8, addend: 0x0, symName: __ZNSt3__110unique_ptrINS_5arrayIhLm4032EEE19SecureUniqueDeleterIS2_EEC1B7v160006ILb1EvEEPS2_, symObjAddr: 0xA660, symBinAddr: 0x10000D0B0, symSize: 0x30 }
  - { offsetInCU: 0x4B80D, offset: 0x62DD1, size: 0x8, addend: 0x0, symName: __ZNSt3__110unique_ptrINS_5arrayIhLm4032EEE19SecureUniqueDeleterIS2_EEC2B7v160006ILb1EvEEPS2_, symObjAddr: 0xA690, symBinAddr: 0x10000D0E0, symSize: 0x40 }
  - { offsetInCU: 0x4B850, offset: 0x62E14, size: 0x8, addend: 0x0, symName: __ZNSt3__117__compressed_pairIPNS_5arrayIhLm4032EEE19SecureUniqueDeleterIS2_EEC1B7v160006IRS3_NS_16__value_init_tagEEEOT_OT0_, symObjAddr: 0xA6D0, symBinAddr: 0x10000D120, symSize: 0x30 }
  - { offsetInCU: 0x4B8A8, offset: 0x62E6C, size: 0x8, addend: 0x0, symName: __ZNSt3__117__compressed_pairIPNS_5arrayIhLm4032EEE19SecureUniqueDeleterIS2_EEC2B7v160006IRS3_NS_16__value_init_tagEEEOT_OT0_, symObjAddr: 0xA700, symBinAddr: 0x10000D150, symSize: 0x40 }
  - { offsetInCU: 0x4B900, offset: 0x62EC4, size: 0x8, addend: 0x0, symName: __ZNSt3__122__compressed_pair_elemIPNS_5arrayIhLm4032EEELi0ELb0EEC2B7v160006IRS3_vEEOT_, symObjAddr: 0xA740, symBinAddr: 0x10000D190, symSize: 0x20 }
  - { offsetInCU: 0x4B942, offset: 0x62F06, size: 0x8, addend: 0x0, symName: __ZNKSt3__117__compressed_pairIP8CQPubKeyNS_14default_deleteIS1_EEE5firstB7v160006Ev, symObjAddr: 0xA760, symBinAddr: 0x10000D1B0, symSize: 0x20 }
  - { offsetInCU: 0x4B968, offset: 0x62F2C, size: 0x8, addend: 0x0, symName: __ZNKSt3__122__compressed_pair_elemIP8CQPubKeyLi0ELb0EE5__getB7v160006Ev, symObjAddr: 0xA780, symBinAddr: 0x10000D1D0, symSize: 0x10 }
  - { offsetInCU: 0x4B98E, offset: 0x62F52, size: 0x8, addend: 0x0, symName: __ZNSt3__110unique_ptrI8CQPubKeyNS_14default_deleteIS1_EEEC1B7v160006ILb1EvEEPS1_, symObjAddr: 0xA790, symBinAddr: 0x10000D1E0, symSize: 0x30 }
  - { offsetInCU: 0x4B9D1, offset: 0x62F95, size: 0x8, addend: 0x0, symName: __ZNSt3__110unique_ptrI8CQPubKeyNS_14default_deleteIS1_EEEC2B7v160006ILb1EvEEPS1_, symObjAddr: 0xA7C0, symBinAddr: 0x10000D210, symSize: 0x40 }
  - { offsetInCU: 0x4BA14, offset: 0x62FD8, size: 0x8, addend: 0x0, symName: __ZNSt3__117__compressed_pairIP8CQPubKeyNS_14default_deleteIS1_EEEC1B7v160006IRS2_NS_16__value_init_tagEEEOT_OT0_, symObjAddr: 0xA800, symBinAddr: 0x10000D250, symSize: 0x30 }
  - { offsetInCU: 0x4BA6C, offset: 0x63030, size: 0x8, addend: 0x0, symName: __ZNSt3__117__compressed_pairIP8CQPubKeyNS_14default_deleteIS1_EEEC2B7v160006IRS2_NS_16__value_init_tagEEEOT_OT0_, symObjAddr: 0xA830, symBinAddr: 0x10000D280, symSize: 0x40 }
  - { offsetInCU: 0x4BAC4, offset: 0x63088, size: 0x8, addend: 0x0, symName: __ZNSt3__122__compressed_pair_elemIP8CQPubKeyLi0ELb0EEC2B7v160006IRS2_vEEOT_, symObjAddr: 0xA870, symBinAddr: 0x10000D2C0, symSize: 0x20 }
  - { offsetInCU: 0x4BB06, offset: 0x630CA, size: 0x8, addend: 0x0, symName: __ZN8CHash256C2Ev, symObjAddr: 0xA890, symBinAddr: 0x10000D2E0, symSize: 0x20 }
  - { offsetInCU: 0x4BB32, offset: 0x630F6, size: 0x8, addend: 0x0, symName: __ZNKSt3__14spanIKhLm18446744073709551615EE4dataB7v160006Ev, symObjAddr: 0xA8B0, symBinAddr: 0x10000D300, symSize: 0x20 }
  - { offsetInCU: 0x4BB58, offset: 0x6311C, size: 0x8, addend: 0x0, symName: __ZNKSt3__14spanIKhLm18446744073709551615EE4sizeB7v160006Ev, symObjAddr: 0xA8D0, symBinAddr: 0x10000D320, symSize: 0x20 }
  - { offsetInCU: 0x4BB7E, offset: 0x63142, size: 0x8, addend: 0x0, symName: __ZNSt3__14spanIKhLm18446744073709551615EEC2B7v160006IPS1_EET_m, symObjAddr: 0xA8F0, symBinAddr: 0x10000D340, symSize: 0x40 }
  - { offsetInCU: 0x4BBCF, offset: 0x63193, size: 0x8, addend: 0x0, symName: __ZNSt3__14spanIKhLm18446744073709551615EEC2B7v160006IPhEET_m, symObjAddr: 0xA960, symBinAddr: 0x10000D3B0, symSize: 0x40 }
  - { offsetInCU: 0x4BC20, offset: 0x631E4, size: 0x8, addend: 0x0, symName: __ZN7uint256C2Ev, symObjAddr: 0xA9D0, symBinAddr: 0x10000D3F0, symSize: 0x20 }
  - { offsetInCU: 0x4BC4A, offset: 0x6320E, size: 0x8, addend: 0x0, symName: __ZN9base_blobILj256EEC2Ev, symObjAddr: 0xA9F0, symBinAddr: 0x10000D410, symSize: 0x30 }
  - { offsetInCU: 0x4BC74, offset: 0x63238, size: 0x8, addend: 0x0, symName: __ZNKSt3__14spanIhLm18446744073709551615EE4sizeB7v160006Ev, symObjAddr: 0xAA20, symBinAddr: 0x10000D440, symSize: 0x20 }
  - { offsetInCU: 0x4BC9A, offset: 0x6325E, size: 0x8, addend: 0x0, symName: __ZNKSt3__14spanIhLm18446744073709551615EE4dataB7v160006Ev, symObjAddr: 0xAA40, symBinAddr: 0x10000D460, symSize: 0x20 }
  - { offsetInCU: 0x4BCCA, offset: 0x6328E, size: 0x8, addend: 0x0, symName: __ZNKSt3__16__lessImmEclB7v160006ERKmS3_, symObjAddr: 0xAB30, symBinAddr: 0x10000D4D0, symSize: 0x30 }
  - { offsetInCU: 0x4BD0C, offset: 0x632D0, size: 0x8, addend: 0x0, symName: __ZN15CQuantumKeyPairD2Ev, symObjAddr: 0xAB60, symBinAddr: 0x10000D500, symSize: 0x30 }
  - { offsetInCU: 0x4BD36, offset: 0x632FA, size: 0x8, addend: 0x0, symName: __ZNKSt3__15arrayIhLm32EE4dataB7v160006Ev, symObjAddr: 0xAB90, symBinAddr: 0x10000D530, symSize: 0x10 }
  - { offsetInCU: 0x4BD5C, offset: 0x63320, size: 0x8, addend: 0x0, symName: __ZNSt3__112basic_stringIcNS_11char_traitsIcEENS_9allocatorIcEEEC2B7v160006IDnEEPKc, symObjAddr: 0xABA0, symBinAddr: 0x10000D540, symSize: 0x60 }
  - { offsetInCU: 0x4BD9F, offset: 0x63363, size: 0x8, addend: 0x0, symName: __ZNSt3__16vectorIhNS_9allocatorIhEEEC2B7v160006Ev, symObjAddr: 0xAD20, symBinAddr: 0x10000D5A0, symSize: 0x60 }
  - { offsetInCU: 0x4BDCE, offset: 0x63392, size: 0x8, addend: 0x0, symName: __ZNSt3__117__compressed_pairIPhNS_9allocatorIhEEEC1B7v160006IDnNS_18__default_init_tagEEEOT_OT0_, symObjAddr: 0xAD80, symBinAddr: 0x10000D600, symSize: 0x30 }
  - { offsetInCU: 0x4BE26, offset: 0x633EA, size: 0x8, addend: 0x0, symName: __ZNSt3__117__compressed_pairIPhNS_9allocatorIhEEEC2B7v160006IDnNS_18__default_init_tagEEEOT_OT0_, symObjAddr: 0xADC0, symBinAddr: 0x10000D640, symSize: 0x40 }
  - { offsetInCU: 0x4BE7E, offset: 0x63442, size: 0x8, addend: 0x0, symName: __ZNSt3__122__compressed_pair_elemIPhLi0ELb0EEC2B7v160006IDnvEEOT_, symObjAddr: 0xAE00, symBinAddr: 0x10000D680, symSize: 0x20 }
  - { offsetInCU: 0x4BEC0, offset: 0x63484, size: 0x8, addend: 0x0, symName: __ZNSt3__122__compressed_pair_elemINS_9allocatorIhEELi1ELb1EEC2B7v160006ENS_18__default_init_tagE, symObjAddr: 0xAE20, symBinAddr: 0x10000D6A0, symSize: 0x20 }
  - { offsetInCU: 0x4BEF5, offset: 0x634B9, size: 0x8, addend: 0x0, symName: __ZNSt3__19allocatorIhEC2B7v160006Ev, symObjAddr: 0xAE40, symBinAddr: 0x10000D6C0, symSize: 0x20 }
  - { offsetInCU: 0x4BF1F, offset: 0x634E3, size: 0x8, addend: 0x0, symName: __ZNSt3__116__non_trivial_ifILb1ENS_9allocatorIhEEEC2B7v160006Ev, symObjAddr: 0xAE60, symBinAddr: 0x10000D6E0, symSize: 0x10 }
  - { offsetInCU: 0x4BF49, offset: 0x6350D, size: 0x8, addend: 0x0, symName: __ZNSt3__16vectorIhNS_9allocatorIhEEE5beginB7v160006Ev, symObjAddr: 0xAEB0, symBinAddr: 0x10000D730, symSize: 0x30 }
  - { offsetInCU: 0x4BF71, offset: 0x63535, size: 0x8, addend: 0x0, symName: __ZNSt3__16vectorIhNS_9allocatorIhEEE9__end_capB7v160006Ev, symObjAddr: 0xAF10, symBinAddr: 0x10000D790, symSize: 0x20 }
  - { offsetInCU: 0x4BF97, offset: 0x6355B, size: 0x8, addend: 0x0, symName: __ZNSt3__16vectorIhNS_9allocatorIhEEE18__construct_at_endIPKhLi0EEEvT_S7_m, symObjAddr: 0xAF80, symBinAddr: 0x10000D800, symSize: 0x90 }
  - { offsetInCU: 0x4C00A, offset: 0x635CE, size: 0x8, addend: 0x0, symName: __ZNSt3__16vectorIhNS_9allocatorIhEEE12__move_rangeEPhS4_S4_, symObjAddr: 0xB010, symBinAddr: 0x10000D890, symSize: 0x110 }
  - { offsetInCU: 0x4C0C8, offset: 0x6368C, size: 0x8, addend: 0x0, symName: __ZNSt3__16vectorIhNS_9allocatorIhEEE7__allocB7v160006Ev, symObjAddr: 0xB160, symBinAddr: 0x10000D9E0, symSize: 0x20 }
  - { offsetInCU: 0x4C0EE, offset: 0x636B2, size: 0x8, addend: 0x0, symName: __ZNKSt3__16vectorIhNS_9allocatorIhEEE11__recommendB7v160006Em, symObjAddr: 0xB180, symBinAddr: 0x10000DA00, symSize: 0xA0 }
  - { offsetInCU: 0x4C143, offset: 0x63707, size: 0x8, addend: 0x0, symName: __ZNSt3__114__split_bufferIhRNS_9allocatorIhEEEC1EmmS3_, symObjAddr: 0xB220, symBinAddr: 0x10000DAA0, symSize: 0x40 }
  - { offsetInCU: 0x4C199, offset: 0x6375D, size: 0x8, addend: 0x0, symName: __ZNSt3__114__split_bufferIhRNS_9allocatorIhEEE18__construct_at_endIPKhEENS_9enable_ifIXsr27__is_cpp17_forward_iteratorIT_EE5valueEvE4typeES9_S9_, symObjAddr: 0xB260, symBinAddr: 0x10000DAE0, symSize: 0xD0 }
  - { offsetInCU: 0x4C1F5, offset: 0x637B9, size: 0x8, addend: 0x0, symName: __ZNSt3__114__split_bufferIhRNS_9allocatorIhEEED1Ev, symObjAddr: 0xB4A0, symBinAddr: 0x10000DD20, symSize: 0x20 }
  - { offsetInCU: 0x4C221, offset: 0x637E5, size: 0x8, addend: 0x0, symName: __ZNSt3__16vectorIhNS_9allocatorIhEEE11__make_iterB7v160006EPh, symObjAddr: 0xB4C0, symBinAddr: 0x10000DD40, symSize: 0x30 }
  - { offsetInCU: 0x4C256, offset: 0x6381A, size: 0x8, addend: 0x0, symName: __ZNKSt3__111__wrap_iterIPKhE4baseB7v160006Ev, symObjAddr: 0xB4F0, symBinAddr: 0x10000DD70, symSize: 0x20 }
  - { offsetInCU: 0x4C27C, offset: 0x63840, size: 0x8, addend: 0x0, symName: __ZNKSt3__111__wrap_iterIPhE4baseB7v160006Ev, symObjAddr: 0xB510, symBinAddr: 0x10000DD90, symSize: 0x20 }
  - { offsetInCU: 0x4C2A2, offset: 0x63866, size: 0x8, addend: 0x0, symName: __ZNSt3__117__compressed_pairIPhNS_9allocatorIhEEE5firstB7v160006Ev, symObjAddr: 0xB550, symBinAddr: 0x10000DDD0, symSize: 0x20 }
  - { offsetInCU: 0x4C2C8, offset: 0x6388C, size: 0x8, addend: 0x0, symName: __ZNSt3__122__compressed_pair_elemIPhLi0ELb0EE5__getB7v160006Ev, symObjAddr: 0xB570, symBinAddr: 0x10000DDF0, symSize: 0x10 }
  - { offsetInCU: 0x4C307, offset: 0x638CB, size: 0x8, addend: 0x0, symName: __ZNSt3__16vectorIhNS_9allocatorIhEEE21_ConstructTransactionC1B7v160006ERS3_m, symObjAddr: 0xB5B0, symBinAddr: 0x10000DE30, symSize: 0x30 }
  - { offsetInCU: 0x4C34F, offset: 0x63913, size: 0x8, addend: 0x0, symName: __ZNSt3__16vectorIhNS_9allocatorIhEEE21_ConstructTransactionD1B7v160006Ev, symObjAddr: 0xB610, symBinAddr: 0x10000DE90, symSize: 0x20 }
  - { offsetInCU: 0x4C379, offset: 0x6393D, size: 0x8, addend: 0x0, symName: __ZNSt3__16vectorIhNS_9allocatorIhEEE21_ConstructTransactionC2B7v160006ERS3_m, symObjAddr: 0xB630, symBinAddr: 0x10000DEB0, symSize: 0x40 }
  - { offsetInCU: 0x4C3C1, offset: 0x63985, size: 0x8, addend: 0x0, symName: __ZNSt3__16vectorIhNS_9allocatorIhEEE21_ConstructTransactionD2B7v160006Ev, symObjAddr: 0xB670, symBinAddr: 0x10000DEF0, symSize: 0x20 }
  - { offsetInCU: 0x4C3F0, offset: 0x639B4, size: 0x8, addend: 0x0, symName: __ZNSt3__116allocator_traitsINS_9allocatorIhEEE9constructB7v160006IhJhEvvEEvRS2_PT_DpOT0_, symObjAddr: 0xB690, symBinAddr: 0x10000DF10, symSize: 0x30 }
  - { offsetInCU: 0x4C467, offset: 0x63A2B, size: 0x8, addend: 0x0, symName: __ZNKSt3__123__move_backward_trivialclB7v160006IhhLi0EEENS_4pairIPT_PT0_EES4_S4_S6_, symObjAddr: 0xB8A0, symBinAddr: 0x10000E120, symSize: 0x40 }
  - { offsetInCU: 0x4C4CF, offset: 0x63A93, size: 0x8, addend: 0x0, symName: __ZNSt3__119__unwrap_range_implIPhS1_E8__unwrapB7v160006ES1_S1_, symObjAddr: 0xB9A0, symBinAddr: 0x10000E220, symSize: 0x50 }
  - { offsetInCU: 0x4C504, offset: 0x63AC8, size: 0x8, addend: 0x0, symName: __ZNSt3__14pairIPhS1_EC1B7v160006IS1_S1_LPv0EEEOT_OT0_, symObjAddr: 0xB9F0, symBinAddr: 0x10000E270, symSize: 0x30 }
  - { offsetInCU: 0x4C562, offset: 0x63B26, size: 0x8, addend: 0x0, symName: __ZNSt3__14pairIPhS1_EC2B7v160006IS1_S1_LPv0EEEOT_OT0_, symObjAddr: 0xBA20, symBinAddr: 0x10000E2A0, symSize: 0x30 }
  - { offsetInCU: 0x4C5C0, offset: 0x63B84, size: 0x8, addend: 0x0, symName: __ZNSt3__14pairIPhS1_EC1B7v160006IRS1_S4_LPv0EEEOT_OT0_, symObjAddr: 0xBAF0, symBinAddr: 0x10000E370, symSize: 0x30 }
  - { offsetInCU: 0x4C61E, offset: 0x63BE2, size: 0x8, addend: 0x0, symName: __ZNSt3__14pairIPhS1_EC2B7v160006IRS1_S4_LPv0EEEOT_OT0_, symObjAddr: 0xBB20, symBinAddr: 0x10000E3A0, symSize: 0x30 }
  - { offsetInCU: 0x4C67C, offset: 0x63C40, size: 0x8, addend: 0x0, symName: __ZNSt3__118__unwrap_iter_implIPhLb1EE8__unwrapB7v160006ES1_, symObjAddr: 0xBB50, symBinAddr: 0x10000E3D0, symSize: 0x20 }
  - { offsetInCU: 0x4C69E, offset: 0x63C62, size: 0x8, addend: 0x0, symName: __ZNSt3__119__unwrap_range_implIPhS1_E8__rewrapB7v160006ES1_S1_, symObjAddr: 0xBB70, symBinAddr: 0x10000E3F0, symSize: 0x30 }
  - { offsetInCU: 0x4C6CE, offset: 0x63C92, size: 0x8, addend: 0x0, symName: __ZNSt3__118__unwrap_iter_implIPhLb1EE8__rewrapB7v160006ES1_S1_, symObjAddr: 0xBBA0, symBinAddr: 0x10000E420, symSize: 0x40 }
  - { offsetInCU: 0x4C721, offset: 0x63CE5, size: 0x8, addend: 0x0, symName: __ZNKSt3__114__copy_trivialclB7v160006IKhhLi0EEENS_4pairIPT_PT0_EES5_S5_S7_, symObjAddr: 0xBD50, symBinAddr: 0x10000E5D0, symSize: 0x40 }
  - { offsetInCU: 0x4C7A2, offset: 0x63D66, size: 0x8, addend: 0x0, symName: __ZNSt3__119__unwrap_range_implIPKhS2_E8__unwrapB7v160006ES2_S2_, symObjAddr: 0xBDF0, symBinAddr: 0x10000E670, symSize: 0x50 }
  - { offsetInCU: 0x4C7D7, offset: 0x63D9B, size: 0x8, addend: 0x0, symName: __ZNSt3__14pairIPKhS2_EC1B7v160006IS2_S2_LPv0EEEOT_OT0_, symObjAddr: 0xBE60, symBinAddr: 0x10000E6E0, symSize: 0x30 }
  - { offsetInCU: 0x4C835, offset: 0x63DF9, size: 0x8, addend: 0x0, symName: __ZNSt3__118__unwrap_iter_implIPKhLb1EE8__unwrapB7v160006ES2_, symObjAddr: 0xBE90, symBinAddr: 0x10000E710, symSize: 0x20 }
  - { offsetInCU: 0x4C857, offset: 0x63E1B, size: 0x8, addend: 0x0, symName: __ZNSt3__14pairIPKhS2_EC2B7v160006IS2_S2_LPv0EEEOT_OT0_, symObjAddr: 0xBEB0, symBinAddr: 0x10000E730, symSize: 0x30 }
  - { offsetInCU: 0x4C8BA, offset: 0x63E7E, size: 0x8, addend: 0x0, symName: __ZNSt3__14pairIPKhPhEC1B7v160006IRS2_S3_LPv0EEEOT_OT0_, symObjAddr: 0xBF80, symBinAddr: 0x10000E800, symSize: 0x30 }
  - { offsetInCU: 0x4C918, offset: 0x63EDC, size: 0x8, addend: 0x0, symName: __ZNSt3__14pairIPKhPhEC2B7v160006IRS2_S3_LPv0EEEOT_OT0_, symObjAddr: 0xBFB0, symBinAddr: 0x10000E830, symSize: 0x30 }
  - { offsetInCU: 0x4C976, offset: 0x63F3A, size: 0x8, addend: 0x0, symName: __ZNSt3__14pairIPKhPhEC1B7v160006IS2_S3_LPv0EEEOT_OT0_, symObjAddr: 0xBFE0, symBinAddr: 0x10000E860, symSize: 0x30 }
  - { offsetInCU: 0x4C9D4, offset: 0x63F98, size: 0x8, addend: 0x0, symName: __ZNSt3__14pairIPKhPhEC2B7v160006IS2_S3_LPv0EEEOT_OT0_, symObjAddr: 0xC010, symBinAddr: 0x10000E890, symSize: 0x30 }
  - { offsetInCU: 0x4CA32, offset: 0x63FF6, size: 0x8, addend: 0x0, symName: __ZNSt3__119__unwrap_range_implIPKhS2_E8__rewrapB7v160006ES2_S2_, symObjAddr: 0xC040, symBinAddr: 0x10000E8C0, symSize: 0x30 }
  - { offsetInCU: 0x4CA62, offset: 0x64026, size: 0x8, addend: 0x0, symName: __ZNSt3__118__unwrap_iter_implIPKhLb1EE8__rewrapB7v160006ES2_S2_, symObjAddr: 0xC0B0, symBinAddr: 0x10000E930, symSize: 0x40 }
  - { offsetInCU: 0x4CA92, offset: 0x64056, size: 0x8, addend: 0x0, symName: __ZNSt3__117__compressed_pairIPhNS_9allocatorIhEEE6secondB7v160006Ev, symObjAddr: 0xC0F0, symBinAddr: 0x10000E970, symSize: 0x20 }
  - { offsetInCU: 0x4CAB8, offset: 0x6407C, size: 0x8, addend: 0x0, symName: __ZNSt3__122__compressed_pair_elemINS_9allocatorIhEELi1ELb1EE5__getB7v160006Ev, symObjAddr: 0xC110, symBinAddr: 0x10000E990, symSize: 0x10 }
  - { offsetInCU: 0x4CADE, offset: 0x640A2, size: 0x8, addend: 0x0, symName: __ZNKSt3__16vectorIhNS_9allocatorIhEEE8max_sizeEv, symObjAddr: 0xC120, symBinAddr: 0x10000E9A0, symSize: 0x60 }
  - { offsetInCU: 0x4CB06, offset: 0x640CA, size: 0x8, addend: 0x0, symName: __ZNKSt3__16vectorIhNS_9allocatorIhEEE20__throw_length_errorB7v160006Ev, symObjAddr: 0xC180, symBinAddr: 0x10000EA00, symSize: 0x20 }
  - { offsetInCU: 0x4CB2C, offset: 0x640F0, size: 0x8, addend: 0x0, symName: __ZNKSt3__16vectorIhNS_9allocatorIhEEE8capacityB7v160006Ev, symObjAddr: 0xC1A0, symBinAddr: 0x10000EA20, symSize: 0x30 }
  - { offsetInCU: 0x4CB5C, offset: 0x64120, size: 0x8, addend: 0x0, symName: __ZNSt3__116allocator_traitsINS_9allocatorIhEEE8max_sizeB7v160006IS2_vvEEmRKS2_, symObjAddr: 0xC200, symBinAddr: 0x10000EA80, symSize: 0x20 }
  - { offsetInCU: 0x4CB87, offset: 0x6414B, size: 0x8, addend: 0x0, symName: __ZNKSt3__16vectorIhNS_9allocatorIhEEE7__allocB7v160006Ev, symObjAddr: 0xC220, symBinAddr: 0x10000EAA0, symSize: 0x20 }
  - { offsetInCU: 0x4CBAD, offset: 0x64171, size: 0x8, addend: 0x0, symName: __ZNSt3__114numeric_limitsIlE3maxB7v160006Ev, symObjAddr: 0xC240, symBinAddr: 0x10000EAC0, symSize: 0x10 }
  - { offsetInCU: 0x4CBC1, offset: 0x64185, size: 0x8, addend: 0x0, symName: __ZNSt3__114numeric_limitsImE3maxB7v160006Ev, symObjAddr: 0xC250, symBinAddr: 0x10000EAD0, symSize: 0x10 }
  - { offsetInCU: 0x4CBD5, offset: 0x64199, size: 0x8, addend: 0x0, symName: __ZNSt3__123__libcpp_numeric_limitsImLb1EE3maxB7v160006Ev, symObjAddr: 0xC260, symBinAddr: 0x10000EAE0, symSize: 0x10 }
  - { offsetInCU: 0x4CBE9, offset: 0x641AD, size: 0x8, addend: 0x0, symName: __ZNKSt3__117__compressed_pairIPhNS_9allocatorIhEEE6secondB7v160006Ev, symObjAddr: 0xC270, symBinAddr: 0x10000EAF0, symSize: 0x20 }
  - { offsetInCU: 0x4CC0F, offset: 0x641D3, size: 0x8, addend: 0x0, symName: __ZNKSt3__122__compressed_pair_elemINS_9allocatorIhEELi1ELb1EE5__getB7v160006Ev, symObjAddr: 0xC290, symBinAddr: 0x10000EB10, symSize: 0x10 }
  - { offsetInCU: 0x4CC35, offset: 0x641F9, size: 0x8, addend: 0x0, symName: __ZNSt3__123__libcpp_numeric_limitsIlLb1EE3maxB7v160006Ev, symObjAddr: 0xC2A0, symBinAddr: 0x10000EB20, symSize: 0x10 }
  - { offsetInCU: 0x4CC49, offset: 0x6420D, size: 0x8, addend: 0x0, symName: __ZNSt12length_errorC1B7v160006EPKc, symObjAddr: 0xC320, symBinAddr: 0x10000EBA0, symSize: 0x30 }
  - { offsetInCU: 0x4CC81, offset: 0x64245, size: 0x8, addend: 0x0, symName: __ZNSt12length_errorC2B7v160006EPKc, symObjAddr: 0xC350, symBinAddr: 0x10000EBD0, symSize: 0x40 }
  - { offsetInCU: 0x4CCB9, offset: 0x6427D, size: 0x8, addend: 0x0, symName: __ZNKSt3__16vectorIhNS_9allocatorIhEEE9__end_capB7v160006Ev, symObjAddr: 0xC390, symBinAddr: 0x10000EC10, symSize: 0x20 }
  - { offsetInCU: 0x4CCDF, offset: 0x642A3, size: 0x8, addend: 0x0, symName: __ZNKSt3__117__compressed_pairIPhNS_9allocatorIhEEE5firstB7v160006Ev, symObjAddr: 0xC3B0, symBinAddr: 0x10000EC30, symSize: 0x20 }
  - { offsetInCU: 0x4CD05, offset: 0x642C9, size: 0x8, addend: 0x0, symName: __ZNKSt3__122__compressed_pair_elemIPhLi0ELb0EE5__getB7v160006Ev, symObjAddr: 0xC3D0, symBinAddr: 0x10000EC50, symSize: 0x10 }
  - { offsetInCU: 0x4CD2B, offset: 0x642EF, size: 0x8, addend: 0x0, symName: __ZNSt3__114__split_bufferIhRNS_9allocatorIhEEEC2EmmS3_, symObjAddr: 0xC430, symBinAddr: 0x10000ECB0, symSize: 0xC0 }
  - { offsetInCU: 0x4CD9E, offset: 0x64362, size: 0x8, addend: 0x0, symName: __ZNSt3__117__compressed_pairIPhRNS_9allocatorIhEEEC1B7v160006IDnS4_EEOT_OT0_, symObjAddr: 0xC4F0, symBinAddr: 0x10000ED70, symSize: 0x30 }
  - { offsetInCU: 0x4CDF6, offset: 0x643BA, size: 0x8, addend: 0x0, symName: __ZNSt3__114__split_bufferIhRNS_9allocatorIhEEE7__allocB7v160006Ev, symObjAddr: 0xC560, symBinAddr: 0x10000EDE0, symSize: 0x20 }
  - { offsetInCU: 0x4CE1C, offset: 0x643E0, size: 0x8, addend: 0x0, symName: __ZNSt3__114__split_bufferIhRNS_9allocatorIhEEE9__end_capB7v160006Ev, symObjAddr: 0xC580, symBinAddr: 0x10000EE00, symSize: 0x20 }
  - { offsetInCU: 0x4CE42, offset: 0x64406, size: 0x8, addend: 0x0, symName: __ZNSt3__117__compressed_pairIPhRNS_9allocatorIhEEEC2B7v160006IDnS4_EEOT_OT0_, symObjAddr: 0xC5A0, symBinAddr: 0x10000EE20, symSize: 0x40 }
  - { offsetInCU: 0x4CE9A, offset: 0x6445E, size: 0x8, addend: 0x0, symName: __ZNSt3__122__compressed_pair_elemIRNS_9allocatorIhEELi1ELb0EEC2B7v160006IS3_vEEOT_, symObjAddr: 0xC5E0, symBinAddr: 0x10000EE60, symSize: 0x20 }
  - { offsetInCU: 0x4CEDC, offset: 0x644A0, size: 0x8, addend: 0x0, symName: __ZNSt3__19allocatorIhE8allocateB7v160006Em, symObjAddr: 0xC600, symBinAddr: 0x10000EE80, symSize: 0x50 }
  - { offsetInCU: 0x4CF10, offset: 0x644D4, size: 0x8, addend: 0x0, symName: __ZNSt3__117__compressed_pairIPhRNS_9allocatorIhEEE6secondB7v160006Ev, symObjAddr: 0xC760, symBinAddr: 0x10000EFE0, symSize: 0x20 }
  - { offsetInCU: 0x4CF36, offset: 0x644FA, size: 0x8, addend: 0x0, symName: __ZNSt3__122__compressed_pair_elemIRNS_9allocatorIhEELi1ELb0EE5__getB7v160006Ev, symObjAddr: 0xC780, symBinAddr: 0x10000F000, symSize: 0x20 }
  - { offsetInCU: 0x4CF5C, offset: 0x64520, size: 0x8, addend: 0x0, symName: __ZNSt3__117__compressed_pairIPhRNS_9allocatorIhEEE5firstB7v160006Ev, symObjAddr: 0xC7A0, symBinAddr: 0x10000F020, symSize: 0x20 }
  - { offsetInCU: 0x4CF8C, offset: 0x64550, size: 0x8, addend: 0x0, symName: __ZNSt3__114__split_bufferIhRNS_9allocatorIhEEE21_ConstructTransactionC1B7v160006EPPhm, symObjAddr: 0xC7C0, symBinAddr: 0x10000F040, symSize: 0x30 }
  - { offsetInCU: 0x4CFD2, offset: 0x64596, size: 0x8, addend: 0x0, symName: __ZNSt3__116allocator_traitsINS_9allocatorIhEEE9constructB7v160006IhJRKhEvvEEvRS2_PT_DpOT0_, symObjAddr: 0xC7F0, symBinAddr: 0x10000F070, symSize: 0x30 }
  - { offsetInCU: 0x4D026, offset: 0x645EA, size: 0x8, addend: 0x0, symName: __ZNSt3__114__split_bufferIhRNS_9allocatorIhEEE21_ConstructTransactionD1B7v160006Ev, symObjAddr: 0xC820, symBinAddr: 0x10000F0A0, symSize: 0x20 }
  - { offsetInCU: 0x4D050, offset: 0x64614, size: 0x8, addend: 0x0, symName: __ZNSt3__114__split_bufferIhRNS_9allocatorIhEEE21_ConstructTransactionC2B7v160006EPPhm, symObjAddr: 0xC840, symBinAddr: 0x10000F0C0, symSize: 0x40 }
  - { offsetInCU: 0x4D096, offset: 0x6465A, size: 0x8, addend: 0x0, symName: __ZNSt3__114__split_bufferIhRNS_9allocatorIhEEE21_ConstructTransactionD2B7v160006Ev, symObjAddr: 0xC8B0, symBinAddr: 0x10000F130, symSize: 0x20 }
  - { offsetInCU: 0x4D0C0, offset: 0x64684, size: 0x8, addend: 0x0, symName: __ZNKSt3__16vectorIhNS_9allocatorIhEEE17__annotate_deleteB7v160006Ev, symObjAddr: 0xC8D0, symBinAddr: 0x10000F150, symSize: 0xA0 }
  - { offsetInCU: 0x4D0E6, offset: 0x646AA, size: 0x8, addend: 0x0, symName: __ZNSt3__116reverse_iteratorIPhEC1B7v160006ES1_, symObjAddr: 0xC9E0, symBinAddr: 0x10000F260, symSize: 0x30 }
  - { offsetInCU: 0x4D11E, offset: 0x646E2, size: 0x8, addend: 0x0, symName: __ZNKSt3__116reverse_iteratorIPhE4baseB7v160006Ev, symObjAddr: 0xCA10, symBinAddr: 0x10000F290, symSize: 0x20 }
  - { offsetInCU: 0x4D144, offset: 0x64708, size: 0x8, addend: 0x0, symName: __ZNKSt3__16vectorIhNS_9allocatorIhEEE14__annotate_newB7v160006Em, symObjAddr: 0xCAA0, symBinAddr: 0x10000F320, symSize: 0xA0 }
  - { offsetInCU: 0x4D179, offset: 0x6473D, size: 0x8, addend: 0x0, symName: __ZNKSt3__16vectorIhNS_9allocatorIhEEE31__annotate_contiguous_containerB7v160006EPKvS5_S5_S5_, symObjAddr: 0xCB50, symBinAddr: 0x10000F3D0, symSize: 0x20 }
  - { offsetInCU: 0x4D1F2, offset: 0x647B6, size: 0x8, addend: 0x0, symName: __ZNKSt3__111__move_loopINS_17_ClassicAlgPolicyEEclB7v160006INS_16reverse_iteratorIPhEES6_S6_EENS_4pairIT_T1_EES8_T0_S9_, symObjAddr: 0xCF80, symBinAddr: 0x10000F800, symSize: 0xA0 }
  - { offsetInCU: 0x4D25D, offset: 0x64821, size: 0x8, addend: 0x0, symName: __ZNSt3__119__unwrap_range_implINS_16reverse_iteratorIPhEES3_E8__unwrapB7v160006ES3_S3_, symObjAddr: 0xD160, symBinAddr: 0x10000F9E0, symSize: 0x90 }
  - { offsetInCU: 0x4D292, offset: 0x64856, size: 0x8, addend: 0x0, symName: __ZNSt3__14pairINS_16reverse_iteratorIPhEES3_EC1B7v160006IS3_S3_LPv0EEEOT_OT0_, symObjAddr: 0xD1F0, symBinAddr: 0x10000FA70, symSize: 0x30 }
  - { offsetInCU: 0x4D2F0, offset: 0x648B4, size: 0x8, addend: 0x0, symName: __ZNSt3__14pairINS_16reverse_iteratorIPhEES3_EC2B7v160006IS3_S3_LPv0EEEOT_OT0_, symObjAddr: 0xD220, symBinAddr: 0x10000FAA0, symSize: 0x40 }
  - { offsetInCU: 0x4D34E, offset: 0x64912, size: 0x8, addend: 0x0, symName: __ZNSt3__18_IterOpsINS_17_ClassicAlgPolicyEE11__iter_moveB7v160006IRNS_16reverse_iteratorIPhEEEENS_9enable_ifIXsr12is_referenceIDTdeclsr3stdE7declvalIRT_EEEEE5valueEDTclsr3stdE4movedeclsr3stdE7declvalISA_EEEEE4typeEOS9_, symObjAddr: 0xD2A0, symBinAddr: 0x10000FB20, symSize: 0x20 }
  - { offsetInCU: 0x4D379, offset: 0x6493D, size: 0x8, addend: 0x0, symName: __ZNKSt3__116reverse_iteratorIPhEdeB7v160006Ev, symObjAddr: 0xD2C0, symBinAddr: 0x10000FB40, symSize: 0x30 }
  - { offsetInCU: 0x4D3AE, offset: 0x64972, size: 0x8, addend: 0x0, symName: __ZNSt3__116reverse_iteratorIPhEppB7v160006Ev, symObjAddr: 0xD2F0, symBinAddr: 0x10000FB70, symSize: 0x20 }
  - { offsetInCU: 0x4D3D4, offset: 0x64998, size: 0x8, addend: 0x0, symName: __ZNSt3__18_IterOpsINS_17_ClassicAlgPolicyEE25__validate_iter_referenceB7v160006IRNS_16reverse_iteratorIPhEEEEvv, symObjAddr: 0xD310, symBinAddr: 0x10000FB90, symSize: 0x10 }
  - { offsetInCU: 0x4D3F1, offset: 0x649B5, size: 0x8, addend: 0x0, symName: __ZNSt3__118__unwrap_iter_implINS_16reverse_iteratorIPhEELb0EE8__unwrapB7v160006ES3_, symObjAddr: 0xD320, symBinAddr: 0x10000FBA0, symSize: 0x20 }
  - { offsetInCU: 0x4D413, offset: 0x649D7, size: 0x8, addend: 0x0, symName: __ZNSt3__119__unwrap_range_implINS_16reverse_iteratorIPhEES3_E8__rewrapB7v160006ES3_S3_, symObjAddr: 0xD340, symBinAddr: 0x10000FBC0, symSize: 0x60 }
  - { offsetInCU: 0x4D443, offset: 0x64A07, size: 0x8, addend: 0x0, symName: __ZNSt3__118__unwrap_iter_implINS_16reverse_iteratorIPhEELb0EE8__rewrapB7v160006ES3_S3_, symObjAddr: 0xD3A0, symBinAddr: 0x10000FC20, symSize: 0x30 }
  - { offsetInCU: 0x4D470, offset: 0x64A34, size: 0x8, addend: 0x0, symName: __ZNSt3__116reverse_iteratorIPhEC2B7v160006ES1_, symObjAddr: 0xD3D0, symBinAddr: 0x10000FC50, symSize: 0x30 }
  - { offsetInCU: 0x4D4B2, offset: 0x64A76, size: 0x8, addend: 0x0, symName: __ZNKSt3__114__move_trivialclB7v160006IhhLi0EEENS_4pairIPT_PT0_EES4_S4_S6_, symObjAddr: 0xD570, symBinAddr: 0x10000FDF0, symSize: 0x40 }
  - { offsetInCU: 0x4D51A, offset: 0x64ADE, size: 0x8, addend: 0x0, symName: __ZNSt3__14pairIPhS1_EC1B7v160006IRS1_S1_LPv0EEEOT_OT0_, symObjAddr: 0xD650, symBinAddr: 0x10000FED0, symSize: 0x30 }
  - { offsetInCU: 0x4D578, offset: 0x64B3C, size: 0x8, addend: 0x0, symName: __ZNSt3__14pairIPhS1_EC2B7v160006IRS1_S1_LPv0EEEOT_OT0_, symObjAddr: 0xD680, symBinAddr: 0x10000FF00, symSize: 0x30 }
  - { offsetInCU: 0x4D5D6, offset: 0x64B9A, size: 0x8, addend: 0x0, symName: __ZNSt3__114__split_bufferIhRNS_9allocatorIhEEED2Ev, symObjAddr: 0xD6B0, symBinAddr: 0x10000FF30, symSize: 0x70 }
  - { offsetInCU: 0x4D602, offset: 0x64BC6, size: 0x8, addend: 0x0, symName: __ZNSt3__114__split_bufferIhRNS_9allocatorIhEEE5clearB7v160006Ev, symObjAddr: 0xD720, symBinAddr: 0x10000FFA0, symSize: 0x20 }
  - { offsetInCU: 0x4D628, offset: 0x64BEC, size: 0x8, addend: 0x0, symName: __ZNSt3__116allocator_traitsINS_9allocatorIhEEE10deallocateB7v160006ERS2_Phm, symObjAddr: 0xD740, symBinAddr: 0x10000FFC0, symSize: 0x30 }
  - { offsetInCU: 0x4D669, offset: 0x64C2D, size: 0x8, addend: 0x0, symName: __ZNKSt3__114__split_bufferIhRNS_9allocatorIhEEE8capacityB7v160006Ev, symObjAddr: 0xD770, symBinAddr: 0x10000FFF0, symSize: 0x30 }
  - { offsetInCU: 0x4D68F, offset: 0x64C53, size: 0x8, addend: 0x0, symName: __ZNSt3__114__split_bufferIhRNS_9allocatorIhEEE17__destruct_at_endB7v160006EPh, symObjAddr: 0xD7A0, symBinAddr: 0x100010020, symSize: 0x30 }
  - { offsetInCU: 0x4D6C3, offset: 0x64C87, size: 0x8, addend: 0x0, symName: __ZNSt3__114__split_bufferIhRNS_9allocatorIhEEE17__destruct_at_endB7v160006EPhNS_17integral_constantIbLb0EEE, symObjAddr: 0xD7D0, symBinAddr: 0x100010050, symSize: 0x80 }
  - { offsetInCU: 0x4D704, offset: 0x64CC8, size: 0x8, addend: 0x0, symName: __ZNSt3__116allocator_traitsINS_9allocatorIhEEE7destroyB7v160006IhvvEEvRS2_PT_, symObjAddr: 0xD850, symBinAddr: 0x1000100D0, symSize: 0x20 }
  - { offsetInCU: 0x4D73E, offset: 0x64D02, size: 0x8, addend: 0x0, symName: __ZNSt3__19allocatorIhE10deallocateB7v160006EPhm, symObjAddr: 0xD8A0, symBinAddr: 0x100010120, symSize: 0x40 }
  - { offsetInCU: 0x4D780, offset: 0x64D44, size: 0x8, addend: 0x0, symName: __ZNKSt3__114__split_bufferIhRNS_9allocatorIhEEE9__end_capB7v160006Ev, symObjAddr: 0xD9E0, symBinAddr: 0x100010260, symSize: 0x20 }
  - { offsetInCU: 0x4D7A6, offset: 0x64D6A, size: 0x8, addend: 0x0, symName: __ZNKSt3__117__compressed_pairIPhRNS_9allocatorIhEEE5firstB7v160006Ev, symObjAddr: 0xDA00, symBinAddr: 0x100010280, symSize: 0x20 }
  - { offsetInCU: 0x4D7CC, offset: 0x64D90, size: 0x8, addend: 0x0, symName: __ZNSt3__111__wrap_iterIPhEC1B7v160006EPKvS1_, symObjAddr: 0xDA20, symBinAddr: 0x1000102A0, symSize: 0x30 }
  - { offsetInCU: 0x4D812, offset: 0x64DD6, size: 0x8, addend: 0x0, symName: __ZNSt3__111__wrap_iterIPhEC2B7v160006EPKvS1_, symObjAddr: 0xDA50, symBinAddr: 0x1000102D0, symSize: 0x20 }
  - { offsetInCU: 0x4D858, offset: 0x64E1C, size: 0x8, addend: 0x0, symName: __ZNSt3__111__wrap_iterIPKhEC2B7v160006IPhEERKNS0_IT_EEPNS_9enable_ifIXsr14is_convertibleIS6_S2_EE5valueEvE4typeE, symObjAddr: 0xDA70, symBinAddr: 0x1000102F0, symSize: 0x40 }
  - { offsetInCU: 0x4D8A4, offset: 0x64E68, size: 0x8, addend: 0x0, symName: __ZNSt3__16vectorIhNS_9allocatorIhEEE22__construct_one_at_endB7v160006IJhEEEvDpOT_, symObjAddr: 0xDAB0, symBinAddr: 0x100010330, symSize: 0x90 }
  - { offsetInCU: 0x4D8F3, offset: 0x64EB7, size: 0x8, addend: 0x0, symName: __ZNSt3__16vectorIhNS_9allocatorIhEEE21__push_back_slow_pathIhEEvOT_, symObjAddr: 0xDB40, symBinAddr: 0x1000103C0, symSize: 0xD0 }
  - { offsetInCU: 0x4D951, offset: 0x64F15, size: 0x8, addend: 0x0, symName: __ZNSt3__16vectorIhNS_9allocatorIhEEED2B7v160006Ev, symObjAddr: 0xDD40, symBinAddr: 0x1000105C0, symSize: 0x40 }
  - { offsetInCU: 0x4D97B, offset: 0x64F3F, size: 0x8, addend: 0x0, symName: __ZNSt3__16vectorIhNS_9allocatorIhEEE16__destroy_vectorC1ERS3_, symObjAddr: 0xDD80, symBinAddr: 0x100010600, symSize: 0x30 }
  - { offsetInCU: 0x4D9B4, offset: 0x64F78, size: 0x8, addend: 0x0, symName: __ZNSt3__16vectorIhNS_9allocatorIhEEE16__destroy_vectorclB7v160006Ev, symObjAddr: 0xDDB0, symBinAddr: 0x100010630, symSize: 0x90 }
  - { offsetInCU: 0x4D9DA, offset: 0x64F9E, size: 0x8, addend: 0x0, symName: __ZNSt3__16vectorIhNS_9allocatorIhEEE16__destroy_vectorC2ERS3_, symObjAddr: 0xDE40, symBinAddr: 0x1000106C0, symSize: 0x20 }
  - { offsetInCU: 0x4DA13, offset: 0x64FD7, size: 0x8, addend: 0x0, symName: __ZNSt3__16vectorIhNS_9allocatorIhEEE7__clearB7v160006Ev, symObjAddr: 0xDE70, symBinAddr: 0x1000106F0, symSize: 0x20 }
  - { offsetInCU: 0x4DA39, offset: 0x64FFD, size: 0x8, addend: 0x0, symName: __ZNSt3__16vectorIhNS_9allocatorIhEEE22__base_destruct_at_endB7v160006EPh, symObjAddr: 0xDE90, symBinAddr: 0x100010710, symSize: 0x80 }
  - { offsetInCU: 0x4DA7D, offset: 0x65041, size: 0x8, addend: 0x0, symName: __ZN14CScriptWitnessC2Ev, symObjAddr: 0xDF10, symBinAddr: 0x100010790, symSize: 0x20 }
  - { offsetInCU: 0x4DAA7, offset: 0x6506B, size: 0x8, addend: 0x0, symName: __ZNSt3__16vectorINS0_IhNS_9allocatorIhEEEENS1_IS3_EEEC1B7v160006Ev, symObjAddr: 0xDF30, symBinAddr: 0x1000107B0, symSize: 0x20 }
  - { offsetInCU: 0x4DAD1, offset: 0x65095, size: 0x8, addend: 0x0, symName: __ZNSt3__16vectorINS0_IhNS_9allocatorIhEEEENS1_IS3_EEEC2B7v160006Ev, symObjAddr: 0xDF50, symBinAddr: 0x1000107D0, symSize: 0x60 }
  - { offsetInCU: 0x4DAFB, offset: 0x650BF, size: 0x8, addend: 0x0, symName: __ZNSt3__117__compressed_pairIPNS_6vectorIhNS_9allocatorIhEEEENS2_IS4_EEEC1B7v160006IDnNS_18__default_init_tagEEEOT_OT0_, symObjAddr: 0xDFB0, symBinAddr: 0x100010830, symSize: 0x30 }
  - { offsetInCU: 0x4DB53, offset: 0x65117, size: 0x8, addend: 0x0, symName: __ZNSt3__117__compressed_pairIPNS_6vectorIhNS_9allocatorIhEEEENS2_IS4_EEEC2B7v160006IDnNS_18__default_init_tagEEEOT_OT0_, symObjAddr: 0xDFF0, symBinAddr: 0x100010870, symSize: 0x40 }
  - { offsetInCU: 0x4DBAB, offset: 0x6516F, size: 0x8, addend: 0x0, symName: __ZNSt3__122__compressed_pair_elemIPNS_6vectorIhNS_9allocatorIhEEEELi0ELb0EEC2B7v160006IDnvEEOT_, symObjAddr: 0xE030, symBinAddr: 0x1000108B0, symSize: 0x20 }
  - { offsetInCU: 0x4DBED, offset: 0x651B1, size: 0x8, addend: 0x0, symName: __ZNSt3__122__compressed_pair_elemINS_9allocatorINS_6vectorIhNS1_IhEEEEEELi1ELb1EEC2B7v160006ENS_18__default_init_tagE, symObjAddr: 0xE050, symBinAddr: 0x1000108D0, symSize: 0x20 }
  - { offsetInCU: 0x4DC22, offset: 0x651E6, size: 0x8, addend: 0x0, symName: __ZNSt3__19allocatorINS_6vectorIhNS0_IhEEEEEC2B7v160006Ev, symObjAddr: 0xE070, symBinAddr: 0x1000108F0, symSize: 0x20 }
  - { offsetInCU: 0x4DC4C, offset: 0x65210, size: 0x8, addend: 0x0, symName: __ZNSt3__116__non_trivial_ifILb1ENS_9allocatorINS_6vectorIhNS1_IhEEEEEEEC2B7v160006Ev, symObjAddr: 0xE090, symBinAddr: 0x100010910, symSize: 0x10 }
  - { offsetInCU: 0x4DC76, offset: 0x6523A, size: 0x8, addend: 0x0, symName: __ZN12VectorWriterC2ERNSt3__16vectorIhNS0_9allocatorIhEEEEm, symObjAddr: 0xE0A0, symBinAddr: 0x100010920, symSize: 0x70 }
  - { offsetInCU: 0x4DCBC, offset: 0x65280, size: 0x8, addend: 0x0, symName: __ZNSt3__16vectorIhNS_9allocatorIhEEE6resizeEm, symObjAddr: 0xE110, symBinAddr: 0x100010990, symSize: 0x70 }
  - { offsetInCU: 0x4DD02, offset: 0x652C6, size: 0x8, addend: 0x0, symName: __ZNSt3__16vectorIhNS_9allocatorIhEEE8__appendEm, symObjAddr: 0xE180, symBinAddr: 0x100010A00, symSize: 0xF0 }
  - { offsetInCU: 0x4DD5D, offset: 0x65321, size: 0x8, addend: 0x0, symName: __ZNSt3__16vectorIhNS_9allocatorIhEEE17__destruct_at_endB7v160006EPh, symObjAddr: 0xE270, symBinAddr: 0x100010AF0, symSize: 0x60 }
  - { offsetInCU: 0x4DDA1, offset: 0x65365, size: 0x8, addend: 0x0, symName: __ZNSt3__16vectorIhNS_9allocatorIhEEE18__construct_at_endEm, symObjAddr: 0xE2D0, symBinAddr: 0x100010B50, symSize: 0xC0 }
  - { offsetInCU: 0x4DE13, offset: 0x653D7, size: 0x8, addend: 0x0, symName: __ZNSt3__114__split_bufferIhRNS_9allocatorIhEEE18__construct_at_endEm, symObjAddr: 0xE390, symBinAddr: 0x100010C10, symSize: 0xB0 }
  - { offsetInCU: 0x4DE57, offset: 0x6541B, size: 0x8, addend: 0x0, symName: __ZNSt3__116allocator_traitsINS_9allocatorIhEEE9constructB7v160006IhJEvvEEvRS2_PT_DpOT0_, symObjAddr: 0xE440, symBinAddr: 0x100010CC0, symSize: 0x20 }
  - { offsetInCU: 0x4DE96, offset: 0x6545A, size: 0x8, addend: 0x0, symName: __ZNSt3__16vectorIhNS_9allocatorIhEEE27__invalidate_iterators_pastB7v160006EPh, symObjAddr: 0xE480, symBinAddr: 0x100010D00, symSize: 0x10 }
  - { offsetInCU: 0x4DECD, offset: 0x65491, size: 0x8, addend: 0x0, symName: __ZNKSt3__16vectorIhNS_9allocatorIhEEE17__annotate_shrinkB7v160006Em, symObjAddr: 0xE490, symBinAddr: 0x100010D10, symSize: 0x90 }
  - { offsetInCU: 0x4DF02, offset: 0x654C6, size: 0x8, addend: 0x0, symName: __ZNSt3__16vectorINS0_IhNS_9allocatorIhEEEENS1_IS3_EEE9__end_capB7v160006Ev, symObjAddr: 0xE520, symBinAddr: 0x100010DA0, symSize: 0x20 }
  - { offsetInCU: 0x4DF28, offset: 0x654EC, size: 0x8, addend: 0x0, symName: __ZNSt3__16vectorINS0_IhNS_9allocatorIhEEEENS1_IS3_EEE22__construct_one_at_endB7v160006IJRKS3_EEEvDpOT_, symObjAddr: 0xE540, symBinAddr: 0x100010DC0, symSize: 0x90 }
  - { offsetInCU: 0x4DF77, offset: 0x6553B, size: 0x8, addend: 0x0, symName: __ZNSt3__16vectorINS0_IhNS_9allocatorIhEEEENS1_IS3_EEE21__push_back_slow_pathIRKS3_EEvOT_, symObjAddr: 0xE5D0, symBinAddr: 0x100010E50, symSize: 0xD0 }
  - { offsetInCU: 0x4DFD5, offset: 0x65599, size: 0x8, addend: 0x0, symName: __ZNSt3__117__compressed_pairIPNS_6vectorIhNS_9allocatorIhEEEENS2_IS4_EEE5firstB7v160006Ev, symObjAddr: 0xE6A0, symBinAddr: 0x100010F20, symSize: 0x20 }
  - { offsetInCU: 0x4DFFB, offset: 0x655BF, size: 0x8, addend: 0x0, symName: __ZNSt3__122__compressed_pair_elemIPNS_6vectorIhNS_9allocatorIhEEEELi0ELb0EE5__getB7v160006Ev, symObjAddr: 0xE6C0, symBinAddr: 0x100010F40, symSize: 0x10 }
  - { offsetInCU: 0x4E03A, offset: 0x655FE, size: 0x8, addend: 0x0, symName: __ZNSt3__16vectorINS0_IhNS_9allocatorIhEEEENS1_IS3_EEE21_ConstructTransactionC1B7v160006ERS5_m, symObjAddr: 0xE6D0, symBinAddr: 0x100010F50, symSize: 0x30 }
  - { offsetInCU: 0x4E082, offset: 0x65646, size: 0x8, addend: 0x0, symName: __ZNSt3__116allocator_traitsINS_9allocatorINS_6vectorIhNS1_IhEEEEEEE9constructB7v160006IS4_JRKS4_EvvEEvRS5_PT_DpOT0_, symObjAddr: 0xE700, symBinAddr: 0x100010F80, symSize: 0x30 }
  - { offsetInCU: 0x4E0D6, offset: 0x6569A, size: 0x8, addend: 0x0, symName: __ZNSt3__16vectorINS0_IhNS_9allocatorIhEEEENS1_IS3_EEE7__allocB7v160006Ev, symObjAddr: 0xE730, symBinAddr: 0x100010FB0, symSize: 0x20 }
  - { offsetInCU: 0x4E0FC, offset: 0x656C0, size: 0x8, addend: 0x0, symName: __ZNSt3__16vectorINS0_IhNS_9allocatorIhEEEENS1_IS3_EEE21_ConstructTransactionD1B7v160006Ev, symObjAddr: 0xE760, symBinAddr: 0x100010FE0, symSize: 0x20 }
  - { offsetInCU: 0x4E126, offset: 0x656EA, size: 0x8, addend: 0x0, symName: __ZNSt3__16vectorINS0_IhNS_9allocatorIhEEEENS1_IS3_EEE21_ConstructTransactionC2B7v160006ERS5_m, symObjAddr: 0xE780, symBinAddr: 0x100011000, symSize: 0x40 }
  - { offsetInCU: 0x4E16E, offset: 0x65732, size: 0x8, addend: 0x0, symName: __ZNSt3__16vectorIhNS_9allocatorIhEEEC1ERKS3_, symObjAddr: 0xE800, symBinAddr: 0x100011080, symSize: 0x30 }
  - { offsetInCU: 0x4E1A9, offset: 0x6576D, size: 0x8, addend: 0x0, symName: __ZNSt3__16vectorIhNS_9allocatorIhEEEC2ERKS3_, symObjAddr: 0xE830, symBinAddr: 0x1000110B0, symSize: 0x110 }
  - { offsetInCU: 0x4E209, offset: 0x657CD, size: 0x8, addend: 0x0, symName: __ZNSt3__116allocator_traitsINS_9allocatorIhEEE37select_on_container_copy_constructionB7v160006IS2_vvEES2_RKS2_, symObjAddr: 0xE940, symBinAddr: 0x1000111C0, symSize: 0x10 }
  - { offsetInCU: 0x4E23C, offset: 0x65800, size: 0x8, addend: 0x0, symName: __ZNSt3__117__compressed_pairIPhNS_9allocatorIhEEEC1B7v160006IDnS3_EEOT_OT0_, symObjAddr: 0xE950, symBinAddr: 0x1000111D0, symSize: 0x30 }
  - { offsetInCU: 0x4E294, offset: 0x65858, size: 0x8, addend: 0x0, symName: __ZNSt3__16vectorIhNS_9allocatorIhEEE11__vallocateB7v160006Em, symObjAddr: 0xE9C0, symBinAddr: 0x100011240, symSize: 0xA0 }
  - { offsetInCU: 0x4E2D8, offset: 0x6589C, size: 0x8, addend: 0x0, symName: __ZNSt3__16vectorIhNS_9allocatorIhEEE18__construct_at_endIPhLi0EEEvT_S6_m, symObjAddr: 0xEA60, symBinAddr: 0x1000112E0, symSize: 0x90 }
  - { offsetInCU: 0x4E34B, offset: 0x6590F, size: 0x8, addend: 0x0, symName: __ZNSt3__128__exception_guard_exceptionsINS_6vectorIhNS_9allocatorIhEEE16__destroy_vectorEE10__completeB7v160006Ev, symObjAddr: 0xEAF0, symBinAddr: 0x100011370, symSize: 0x20 }
  - { offsetInCU: 0x4E371, offset: 0x65935, size: 0x8, addend: 0x0, symName: __ZNSt3__128__exception_guard_exceptionsINS_6vectorIhNS_9allocatorIhEEE16__destroy_vectorEED1B7v160006Ev, symObjAddr: 0xEB10, symBinAddr: 0x100011390, symSize: 0x20 }
  - { offsetInCU: 0x4E39B, offset: 0x6595F, size: 0x8, addend: 0x0, symName: __ZNSt3__117__compressed_pairIPhNS_9allocatorIhEEEC2B7v160006IDnS3_EEOT_OT0_, symObjAddr: 0xEB30, symBinAddr: 0x1000113B0, symSize: 0x40 }
  - { offsetInCU: 0x4E3F3, offset: 0x659B7, size: 0x8, addend: 0x0, symName: __ZNSt3__122__compressed_pair_elemINS_9allocatorIhEELi1ELb1EEC2B7v160006IS2_vEEOT_, symObjAddr: 0xEB70, symBinAddr: 0x1000113F0, symSize: 0x10 }
  - { offsetInCU: 0x4E435, offset: 0x659F9, size: 0x8, addend: 0x0, symName: __ZNSt3__128__exception_guard_exceptionsINS_6vectorIhNS_9allocatorIhEEE16__destroy_vectorEEC1B7v160006ES5_, symObjAddr: 0xEB80, symBinAddr: 0x100011400, symSize: 0x30 }
  - { offsetInCU: 0x4E46D, offset: 0x65A31, size: 0x8, addend: 0x0, symName: __ZNSt3__128__exception_guard_exceptionsINS_6vectorIhNS_9allocatorIhEEE16__destroy_vectorEEC2B7v160006ES5_, symObjAddr: 0xEBB0, symBinAddr: 0x100011430, symSize: 0x20 }
  - { offsetInCU: 0x4E4A5, offset: 0x65A69, size: 0x8, addend: 0x0, symName: __ZNSt3__129_AllocatorDestroyRangeReverseINS_9allocatorIhEEPhEC1B7v160006ERS2_RS3_S6_, symObjAddr: 0xED30, symBinAddr: 0x1000115B0, symSize: 0x40 }
  - { offsetInCU: 0x4E4FC, offset: 0x65AC0, size: 0x8, addend: 0x0, symName: __ZNSt3__116allocator_traitsINS_9allocatorIhEEE9constructB7v160006IhJRhEvvEEvRS2_PT_DpOT0_, symObjAddr: 0xED70, symBinAddr: 0x1000115F0, symSize: 0x30 }
  - { offsetInCU: 0x4E550, offset: 0x65B14, size: 0x8, addend: 0x0, symName: __ZNSt3__128__exception_guard_exceptionsINS_29_AllocatorDestroyRangeReverseINS_9allocatorIhEEPhEEE10__completeB7v160006Ev, symObjAddr: 0xEDA0, symBinAddr: 0x100011620, symSize: 0x20 }
  - { offsetInCU: 0x4E576, offset: 0x65B3A, size: 0x8, addend: 0x0, symName: __ZNSt3__128__exception_guard_exceptionsINS_29_AllocatorDestroyRangeReverseINS_9allocatorIhEEPhEEED1B7v160006Ev, symObjAddr: 0xEDC0, symBinAddr: 0x100011640, symSize: 0x20 }
  - { offsetInCU: 0x4E5A0, offset: 0x65B64, size: 0x8, addend: 0x0, symName: __ZNSt3__128__exception_guard_exceptionsINS_29_AllocatorDestroyRangeReverseINS_9allocatorIhEEPhEEEC1B7v160006ES5_, symObjAddr: 0xEDE0, symBinAddr: 0x100011660, symSize: 0x40 }
  - { offsetInCU: 0x4E5D8, offset: 0x65B9C, size: 0x8, addend: 0x0, symName: __ZNSt3__128__exception_guard_exceptionsINS_29_AllocatorDestroyRangeReverseINS_9allocatorIhEEPhEEEC2B7v160006ES5_, symObjAddr: 0xEE20, symBinAddr: 0x1000116A0, symSize: 0x30 }
  - { offsetInCU: 0x4E610, offset: 0x65BD4, size: 0x8, addend: 0x0, symName: __ZNSt3__129_AllocatorDestroyRangeReverseINS_9allocatorIhEEPhEC2B7v160006ERS2_RS3_S6_, symObjAddr: 0xEE50, symBinAddr: 0x1000116D0, symSize: 0x40 }
  - { offsetInCU: 0x4E667, offset: 0x65C2B, size: 0x8, addend: 0x0, symName: __ZNSt3__128__exception_guard_exceptionsINS_29_AllocatorDestroyRangeReverseINS_9allocatorIhEEPhEEED2B7v160006Ev, symObjAddr: 0xEEC0, symBinAddr: 0x100011740, symSize: 0x40 }
  - { offsetInCU: 0x4E691, offset: 0x65C55, size: 0x8, addend: 0x0, symName: __ZNKSt3__129_AllocatorDestroyRangeReverseINS_9allocatorIhEEPhEclB7v160006Ev, symObjAddr: 0xEF00, symBinAddr: 0x100011780, symSize: 0x60 }
  - { offsetInCU: 0x4E6BC, offset: 0x65C80, size: 0x8, addend: 0x0, symName: __ZNSt3__119__to_address_helperINS_16reverse_iteratorIPhEEvE6__callB7v160006ERKS3_, symObjAddr: 0xEFF0, symBinAddr: 0x100011870, symSize: 0x40 }
  - { offsetInCU: 0x4E6DE, offset: 0x65CA2, size: 0x8, addend: 0x0, symName: __ZNKSt3__116reverse_iteratorIPhEptB7v160006Ev, symObjAddr: 0xF030, symBinAddr: 0x1000118B0, symSize: 0x30 }
  - { offsetInCU: 0x4E704, offset: 0x65CC8, size: 0x8, addend: 0x0, symName: __ZNSt3__128__exception_guard_exceptionsINS_6vectorIhNS_9allocatorIhEEE16__destroy_vectorEED2B7v160006Ev, symObjAddr: 0xF120, symBinAddr: 0x1000119A0, symSize: 0x40 }
  - { offsetInCU: 0x4E72E, offset: 0x65CF2, size: 0x8, addend: 0x0, symName: __ZNSt3__117__compressed_pairIPNS_6vectorIhNS_9allocatorIhEEEENS2_IS4_EEE6secondB7v160006Ev, symObjAddr: 0xF160, symBinAddr: 0x1000119E0, symSize: 0x20 }
  - { offsetInCU: 0x4E754, offset: 0x65D18, size: 0x8, addend: 0x0, symName: __ZNSt3__122__compressed_pair_elemINS_9allocatorINS_6vectorIhNS1_IhEEEEEELi1ELb1EE5__getB7v160006Ev, symObjAddr: 0xF180, symBinAddr: 0x100011A00, symSize: 0x10 }
  - { offsetInCU: 0x4E77A, offset: 0x65D3E, size: 0x8, addend: 0x0, symName: __ZNSt3__16vectorINS0_IhNS_9allocatorIhEEEENS1_IS3_EEE21_ConstructTransactionD2B7v160006Ev, symObjAddr: 0xF190, symBinAddr: 0x100011A10, symSize: 0x20 }
  - { offsetInCU: 0x4E7A4, offset: 0x65D68, size: 0x8, addend: 0x0, symName: __ZNKSt3__16vectorINS0_IhNS_9allocatorIhEEEENS1_IS3_EEE11__recommendB7v160006Em, symObjAddr: 0xF1B0, symBinAddr: 0x100011A30, symSize: 0xA0 }
  - { offsetInCU: 0x4E7F9, offset: 0x65DBD, size: 0x8, addend: 0x0, symName: __ZNSt3__114__split_bufferINS_6vectorIhNS_9allocatorIhEEEERNS2_IS4_EEEC1EmmS6_, symObjAddr: 0xF250, symBinAddr: 0x100011AD0, symSize: 0x40 }
  - { offsetInCU: 0x4E84F, offset: 0x65E13, size: 0x8, addend: 0x0, symName: __ZNSt3__114__split_bufferINS_6vectorIhNS_9allocatorIhEEEERNS2_IS4_EEED1Ev, symObjAddr: 0xF3C0, symBinAddr: 0x100011C40, symSize: 0x20 }
  - { offsetInCU: 0x4E87B, offset: 0x65E3F, size: 0x8, addend: 0x0, symName: __ZNKSt3__16vectorINS0_IhNS_9allocatorIhEEEENS1_IS3_EEE8max_sizeEv, symObjAddr: 0xF3E0, symBinAddr: 0x100011C60, symSize: 0x60 }
  - { offsetInCU: 0x4E8A3, offset: 0x65E67, size: 0x8, addend: 0x0, symName: __ZNKSt3__16vectorINS0_IhNS_9allocatorIhEEEENS1_IS3_EEE20__throw_length_errorB7v160006Ev, symObjAddr: 0xF440, symBinAddr: 0x100011CC0, symSize: 0x20 }
  - { offsetInCU: 0x4E8C9, offset: 0x65E8D, size: 0x8, addend: 0x0, symName: __ZNKSt3__16vectorINS0_IhNS_9allocatorIhEEEENS1_IS3_EEE8capacityB7v160006Ev, symObjAddr: 0xF460, symBinAddr: 0x100011CE0, symSize: 0x40 }
  - { offsetInCU: 0x4E8F9, offset: 0x65EBD, size: 0x8, addend: 0x0, symName: __ZNSt3__116allocator_traitsINS_9allocatorINS_6vectorIhNS1_IhEEEEEEE8max_sizeB7v160006IS5_vvEEmRKS5_, symObjAddr: 0xF4A0, symBinAddr: 0x100011D20, symSize: 0x30 }
  - { offsetInCU: 0x4E924, offset: 0x65EE8, size: 0x8, addend: 0x0, symName: __ZNKSt3__16vectorINS0_IhNS_9allocatorIhEEEENS1_IS3_EEE7__allocB7v160006Ev, symObjAddr: 0xF4D0, symBinAddr: 0x100011D50, symSize: 0x20 }
  - { offsetInCU: 0x4E94A, offset: 0x65F0E, size: 0x8, addend: 0x0, symName: __ZNKSt3__117__compressed_pairIPNS_6vectorIhNS_9allocatorIhEEEENS2_IS4_EEE6secondB7v160006Ev, symObjAddr: 0xF4F0, symBinAddr: 0x100011D70, symSize: 0x20 }
  - { offsetInCU: 0x4E970, offset: 0x65F34, size: 0x8, addend: 0x0, symName: __ZNKSt3__122__compressed_pair_elemINS_9allocatorINS_6vectorIhNS1_IhEEEEEELi1ELb1EE5__getB7v160006Ev, symObjAddr: 0xF510, symBinAddr: 0x100011D90, symSize: 0x10 }
  - { offsetInCU: 0x4E996, offset: 0x65F5A, size: 0x8, addend: 0x0, symName: __ZNKSt3__16vectorINS0_IhNS_9allocatorIhEEEENS1_IS3_EEE9__end_capB7v160006Ev, symObjAddr: 0xF520, symBinAddr: 0x100011DA0, symSize: 0x20 }
  - { offsetInCU: 0x4E9BC, offset: 0x65F80, size: 0x8, addend: 0x0, symName: __ZNKSt3__117__compressed_pairIPNS_6vectorIhNS_9allocatorIhEEEENS2_IS4_EEE5firstB7v160006Ev, symObjAddr: 0xF540, symBinAddr: 0x100011DC0, symSize: 0x20 }
  - { offsetInCU: 0x4E9E2, offset: 0x65FA6, size: 0x8, addend: 0x0, symName: __ZNKSt3__122__compressed_pair_elemIPNS_6vectorIhNS_9allocatorIhEEEELi0ELb0EE5__getB7v160006Ev, symObjAddr: 0xF560, symBinAddr: 0x100011DE0, symSize: 0x10 }
  - { offsetInCU: 0x4EA08, offset: 0x65FCC, size: 0x8, addend: 0x0, symName: __ZNSt3__114__split_bufferINS_6vectorIhNS_9allocatorIhEEEERNS2_IS4_EEEC2EmmS6_, symObjAddr: 0xF570, symBinAddr: 0x100011DF0, symSize: 0xC0 }
  - { offsetInCU: 0x4EA7B, offset: 0x6603F, size: 0x8, addend: 0x0, symName: __ZNSt3__117__compressed_pairIPNS_6vectorIhNS_9allocatorIhEEEERNS2_IS4_EEEC1B7v160006IDnS7_EEOT_OT0_, symObjAddr: 0xF630, symBinAddr: 0x100011EB0, symSize: 0x30 }
  - { offsetInCU: 0x4EAD3, offset: 0x66097, size: 0x8, addend: 0x0, symName: __ZNSt3__114__split_bufferINS_6vectorIhNS_9allocatorIhEEEERNS2_IS4_EEE7__allocB7v160006Ev, symObjAddr: 0xF6A0, symBinAddr: 0x100011F20, symSize: 0x20 }
  - { offsetInCU: 0x4EAF9, offset: 0x660BD, size: 0x8, addend: 0x0, symName: __ZNSt3__114__split_bufferINS_6vectorIhNS_9allocatorIhEEEERNS2_IS4_EEE9__end_capB7v160006Ev, symObjAddr: 0xF6C0, symBinAddr: 0x100011F40, symSize: 0x20 }
  - { offsetInCU: 0x4EB1F, offset: 0x660E3, size: 0x8, addend: 0x0, symName: __ZNSt3__117__compressed_pairIPNS_6vectorIhNS_9allocatorIhEEEERNS2_IS4_EEEC2B7v160006IDnS7_EEOT_OT0_, symObjAddr: 0xF6E0, symBinAddr: 0x100011F60, symSize: 0x40 }
  - { offsetInCU: 0x4EB77, offset: 0x6613B, size: 0x8, addend: 0x0, symName: __ZNSt3__122__compressed_pair_elemIRNS_9allocatorINS_6vectorIhNS1_IhEEEEEELi1ELb0EEC2B7v160006IS6_vEEOT_, symObjAddr: 0xF720, symBinAddr: 0x100011FA0, symSize: 0x20 }
  - { offsetInCU: 0x4EBB9, offset: 0x6617D, size: 0x8, addend: 0x0, symName: __ZNSt3__19allocatorINS_6vectorIhNS0_IhEEEEE8allocateB7v160006Em, symObjAddr: 0xF740, symBinAddr: 0x100011FC0, symSize: 0x50 }
  - { offsetInCU: 0x4EBED, offset: 0x661B1, size: 0x8, addend: 0x0, symName: __ZNSt3__117__compressed_pairIPNS_6vectorIhNS_9allocatorIhEEEERNS2_IS4_EEE6secondB7v160006Ev, symObjAddr: 0xF790, symBinAddr: 0x100012010, symSize: 0x20 }
  - { offsetInCU: 0x4EC13, offset: 0x661D7, size: 0x8, addend: 0x0, symName: __ZNSt3__122__compressed_pair_elemIRNS_9allocatorINS_6vectorIhNS1_IhEEEEEELi1ELb0EE5__getB7v160006Ev, symObjAddr: 0xF7B0, symBinAddr: 0x100012030, symSize: 0x20 }
  - { offsetInCU: 0x4EC39, offset: 0x661FD, size: 0x8, addend: 0x0, symName: __ZNSt3__117__compressed_pairIPNS_6vectorIhNS_9allocatorIhEEEERNS2_IS4_EEE5firstB7v160006Ev, symObjAddr: 0xF7D0, symBinAddr: 0x100012050, symSize: 0x20 }
  - { offsetInCU: 0x4EC5F, offset: 0x66223, size: 0x8, addend: 0x0, symName: __ZNKSt3__16vectorINS0_IhNS_9allocatorIhEEEENS1_IS3_EEE17__annotate_deleteB7v160006Ev, symObjAddr: 0xF7F0, symBinAddr: 0x100012070, symSize: 0xB0 }
  - { offsetInCU: 0x4EC85, offset: 0x66249, size: 0x8, addend: 0x0, symName: __ZNSt3__116reverse_iteratorIPNS_6vectorIhNS_9allocatorIhEEEEEC1B7v160006ES5_, symObjAddr: 0xFA20, symBinAddr: 0x1000122A0, symSize: 0x30 }
  - { offsetInCU: 0x4ECBD, offset: 0x66281, size: 0x8, addend: 0x0, symName: __ZNKSt3__116reverse_iteratorIPNS_6vectorIhNS_9allocatorIhEEEEE4baseB7v160006Ev, symObjAddr: 0xFA50, symBinAddr: 0x1000122D0, symSize: 0x20 }
  - { offsetInCU: 0x4ECE3, offset: 0x662A7, size: 0x8, addend: 0x0, symName: __ZNKSt3__16vectorINS0_IhNS_9allocatorIhEEEENS1_IS3_EEE14__annotate_newB7v160006Em, symObjAddr: 0xFAB0, symBinAddr: 0x100012330, symSize: 0xA0 }
  - { offsetInCU: 0x4ED18, offset: 0x662DC, size: 0x8, addend: 0x0, symName: __ZNKSt3__16vectorINS0_IhNS_9allocatorIhEEEENS1_IS3_EEE31__annotate_contiguous_containerB7v160006EPKvS7_S7_S7_, symObjAddr: 0xFB60, symBinAddr: 0x1000123E0, symSize: 0x20 }
  - { offsetInCU: 0x4ED6E, offset: 0x66332, size: 0x8, addend: 0x0, symName: __ZNKSt3__16vectorINS0_IhNS_9allocatorIhEEEENS1_IS3_EEE4dataB7v160006Ev, symObjAddr: 0xFB80, symBinAddr: 0x100012400, symSize: 0x20 }
  - { offsetInCU: 0x4ED94, offset: 0x66358, size: 0x8, addend: 0x0, symName: __ZNSt3__129_AllocatorDestroyRangeReverseINS_9allocatorINS_6vectorIhNS1_IhEEEEEENS_16reverse_iteratorIPS4_EEEC1B7v160006ERS5_RS8_SB_, symObjAddr: 0xFC00, symBinAddr: 0x100012480, symSize: 0x40 }
  - { offsetInCU: 0x4EDEB, offset: 0x663AF, size: 0x8, addend: 0x0, symName: __ZNSt3__116allocator_traitsINS_9allocatorINS_6vectorIhNS1_IhEEEEEEE9constructB7v160006IS4_JS4_EvvEEvRS5_PT_DpOT0_, symObjAddr: 0xFC80, symBinAddr: 0x100012500, symSize: 0x30 }
  - { offsetInCU: 0x4EE3F, offset: 0x66403, size: 0x8, addend: 0x0, symName: __ZNKSt3__116reverse_iteratorIPNS_6vectorIhNS_9allocatorIhEEEEEdeB7v160006Ev, symObjAddr: 0xFCD0, symBinAddr: 0x100012550, symSize: 0x30 }
  - { offsetInCU: 0x4EE74, offset: 0x66438, size: 0x8, addend: 0x0, symName: __ZNSt3__116reverse_iteratorIPNS_6vectorIhNS_9allocatorIhEEEEEppB7v160006Ev, symObjAddr: 0xFD00, symBinAddr: 0x100012580, symSize: 0x20 }
  - { offsetInCU: 0x4EE9A, offset: 0x6645E, size: 0x8, addend: 0x0, symName: __ZNSt3__128__exception_guard_exceptionsINS_29_AllocatorDestroyRangeReverseINS_9allocatorINS_6vectorIhNS2_IhEEEEEENS_16reverse_iteratorIPS5_EEEEE10__completeB7v160006Ev, symObjAddr: 0xFD20, symBinAddr: 0x1000125A0, symSize: 0x20 }
  - { offsetInCU: 0x4EEC0, offset: 0x66484, size: 0x8, addend: 0x0, symName: __ZNSt3__128__exception_guard_exceptionsINS_29_AllocatorDestroyRangeReverseINS_9allocatorINS_6vectorIhNS2_IhEEEEEENS_16reverse_iteratorIPS5_EEEEED1B7v160006Ev, symObjAddr: 0xFD40, symBinAddr: 0x1000125C0, symSize: 0x20 }
  - { offsetInCU: 0x4EEEA, offset: 0x664AE, size: 0x8, addend: 0x0, symName: __ZNSt3__128__exception_guard_exceptionsINS_29_AllocatorDestroyRangeReverseINS_9allocatorINS_6vectorIhNS2_IhEEEEEENS_16reverse_iteratorIPS5_EEEEEC1B7v160006ESA_, symObjAddr: 0xFD60, symBinAddr: 0x1000125E0, symSize: 0x40 }
  - { offsetInCU: 0x4EF22, offset: 0x664E6, size: 0x8, addend: 0x0, symName: __ZNSt3__128__exception_guard_exceptionsINS_29_AllocatorDestroyRangeReverseINS_9allocatorINS_6vectorIhNS2_IhEEEEEENS_16reverse_iteratorIPS5_EEEEEC2B7v160006ESA_, symObjAddr: 0xFDA0, symBinAddr: 0x100012620, symSize: 0x30 }
  - { offsetInCU: 0x4EF5A, offset: 0x6651E, size: 0x8, addend: 0x0, symName: __ZNSt3__129_AllocatorDestroyRangeReverseINS_9allocatorINS_6vectorIhNS1_IhEEEEEENS_16reverse_iteratorIPS4_EEEC2B7v160006ERS5_RS8_SB_, symObjAddr: 0xFDD0, symBinAddr: 0x100012650, symSize: 0x40 }
  - { offsetInCU: 0x4EFB1, offset: 0x66575, size: 0x8, addend: 0x0, symName: __ZNSt3__16vectorIhNS_9allocatorIhEEEC1B7v160006EOS3_, symObjAddr: 0xFE50, symBinAddr: 0x1000126D0, symSize: 0x30 }
  - { offsetInCU: 0x4EFEC, offset: 0x665B0, size: 0x8, addend: 0x0, symName: __ZNSt3__16vectorIhNS_9allocatorIhEEEC2B7v160006EOS3_, symObjAddr: 0xFE80, symBinAddr: 0x100012700, symSize: 0xE0 }
  - { offsetInCU: 0x4F02C, offset: 0x665F0, size: 0x8, addend: 0x0, symName: __ZNSt3__119__to_address_helperINS_16reverse_iteratorIPNS_6vectorIhNS_9allocatorIhEEEEEEvE6__callB7v160006ERKS7_, symObjAddr: 0xFF70, symBinAddr: 0x1000127F0, symSize: 0x40 }
  - { offsetInCU: 0x4F04E, offset: 0x66612, size: 0x8, addend: 0x0, symName: __ZNKSt3__116reverse_iteratorIPNS_6vectorIhNS_9allocatorIhEEEEEptB7v160006Ev, symObjAddr: 0xFFB0, symBinAddr: 0x100012830, symSize: 0x30 }
  - { offsetInCU: 0x4F074, offset: 0x66638, size: 0x8, addend: 0x0, symName: __ZNSt3__128__exception_guard_exceptionsINS_29_AllocatorDestroyRangeReverseINS_9allocatorINS_6vectorIhNS2_IhEEEEEENS_16reverse_iteratorIPS5_EEEEED2B7v160006Ev, symObjAddr: 0x100A0, symBinAddr: 0x100012920, symSize: 0x40 }
  - { offsetInCU: 0x4F09E, offset: 0x66662, size: 0x8, addend: 0x0, symName: __ZNKSt3__129_AllocatorDestroyRangeReverseINS_9allocatorINS_6vectorIhNS1_IhEEEEEENS_16reverse_iteratorIPS4_EEEclB7v160006Ev, symObjAddr: 0x100E0, symBinAddr: 0x100012960, symSize: 0xF0 }
  - { offsetInCU: 0x4F0C5, offset: 0x66689, size: 0x8, addend: 0x0, symName: __ZNSt3__116reverse_iteratorINS0_IPNS_6vectorIhNS_9allocatorIhEEEEEEEC1B7v160006ES6_, symObjAddr: 0x10240, symBinAddr: 0x100012AC0, symSize: 0x30 }
  - { offsetInCU: 0x4F0FD, offset: 0x666C1, size: 0x8, addend: 0x0, symName: __ZNSt3__116allocator_traitsINS_9allocatorINS_6vectorIhNS1_IhEEEEEEE7destroyB7v160006IS4_vvEEvRS5_PT_, symObjAddr: 0x102C0, symBinAddr: 0x100012B40, symSize: 0x20 }
  - { offsetInCU: 0x4F137, offset: 0x666FB, size: 0x8, addend: 0x0, symName: __ZNSt3__116reverse_iteratorINS0_IPNS_6vectorIhNS_9allocatorIhEEEEEEEppB7v160006Ev, symObjAddr: 0x10300, symBinAddr: 0x100012B80, symSize: 0x30 }
  - { offsetInCU: 0x4F15D, offset: 0x66721, size: 0x8, addend: 0x0, symName: __ZNKSt3__116reverse_iteratorINS0_IPNS_6vectorIhNS_9allocatorIhEEEEEEE4baseB7v160006Ev, symObjAddr: 0x10330, symBinAddr: 0x100012BB0, symSize: 0x20 }
  - { offsetInCU: 0x4F188, offset: 0x6674C, size: 0x8, addend: 0x0, symName: __ZNSt3__119__to_address_helperINS_16reverse_iteratorINS1_IPNS_6vectorIhNS_9allocatorIhEEEEEEEEvE6__callB7v160006ERKS8_, symObjAddr: 0x10390, symBinAddr: 0x100012C10, symSize: 0x40 }
  - { offsetInCU: 0x4F1AA, offset: 0x6676E, size: 0x8, addend: 0x0, symName: __ZNKSt3__116reverse_iteratorINS0_IPNS_6vectorIhNS_9allocatorIhEEEEEEEptB7v160006Ev, symObjAddr: 0x103D0, symBinAddr: 0x100012C50, symSize: 0x50 }
  - { offsetInCU: 0x4F1D0, offset: 0x66794, size: 0x8, addend: 0x0, symName: __ZNSt3__116reverse_iteratorIPNS_6vectorIhNS_9allocatorIhEEEEEpLB7v160006El, symObjAddr: 0x10500, symBinAddr: 0x100012D80, symSize: 0x30 }
  - { offsetInCU: 0x4F204, offset: 0x667C8, size: 0x8, addend: 0x0, symName: __ZNSt3__116reverse_iteratorIPNS_6vectorIhNS_9allocatorIhEEEEEmmB7v160006Ev, symObjAddr: 0x10530, symBinAddr: 0x100012DB0, symSize: 0x20 }
  - { offsetInCU: 0x4F22A, offset: 0x667EE, size: 0x8, addend: 0x0, symName: __ZNSt3__116reverse_iteratorINS0_IPNS_6vectorIhNS_9allocatorIhEEEEEEEC2B7v160006ES6_, symObjAddr: 0x10550, symBinAddr: 0x100012DD0, symSize: 0x40 }
  - { offsetInCU: 0x4F262, offset: 0x66826, size: 0x8, addend: 0x0, symName: __ZNSt3__116reverse_iteratorIPNS_6vectorIhNS_9allocatorIhEEEEEC2B7v160006ES5_, symObjAddr: 0x10590, symBinAddr: 0x100012E10, symSize: 0x30 }
  - { offsetInCU: 0x4F29A, offset: 0x6685E, size: 0x8, addend: 0x0, symName: __ZNSt3__114__split_bufferINS_6vectorIhNS_9allocatorIhEEEERNS2_IS4_EEED2Ev, symObjAddr: 0x105C0, symBinAddr: 0x100012E40, symSize: 0x70 }
  - { offsetInCU: 0x4F2C6, offset: 0x6688A, size: 0x8, addend: 0x0, symName: __ZNSt3__114__split_bufferINS_6vectorIhNS_9allocatorIhEEEERNS2_IS4_EEE5clearB7v160006Ev, symObjAddr: 0x10630, symBinAddr: 0x100012EB0, symSize: 0x20 }
  - { offsetInCU: 0x4F2EC, offset: 0x668B0, size: 0x8, addend: 0x0, symName: __ZNSt3__116allocator_traitsINS_9allocatorINS_6vectorIhNS1_IhEEEEEEE10deallocateB7v160006ERS5_PS4_m, symObjAddr: 0x10650, symBinAddr: 0x100012ED0, symSize: 0x30 }
  - { offsetInCU: 0x4F32D, offset: 0x668F1, size: 0x8, addend: 0x0, symName: __ZNKSt3__114__split_bufferINS_6vectorIhNS_9allocatorIhEEEERNS2_IS4_EEE8capacityB7v160006Ev, symObjAddr: 0x10680, symBinAddr: 0x100012F00, symSize: 0x40 }
  - { offsetInCU: 0x4F353, offset: 0x66917, size: 0x8, addend: 0x0, symName: __ZNSt3__114__split_bufferINS_6vectorIhNS_9allocatorIhEEEERNS2_IS4_EEE17__destruct_at_endB7v160006EPS4_, symObjAddr: 0x106C0, symBinAddr: 0x100012F40, symSize: 0x30 }
  - { offsetInCU: 0x4F387, offset: 0x6694B, size: 0x8, addend: 0x0, symName: __ZNSt3__114__split_bufferINS_6vectorIhNS_9allocatorIhEEEERNS2_IS4_EEE17__destruct_at_endB7v160006EPS4_NS_17integral_constantIbLb0EEE, symObjAddr: 0x106F0, symBinAddr: 0x100012F70, symSize: 0x80 }
  - { offsetInCU: 0x4F3C8, offset: 0x6698C, size: 0x8, addend: 0x0, symName: __ZNSt3__19allocatorINS_6vectorIhNS0_IhEEEEE10deallocateB7v160006EPS3_m, symObjAddr: 0x10770, symBinAddr: 0x100012FF0, symSize: 0x50 }
  - { offsetInCU: 0x4F40A, offset: 0x669CE, size: 0x8, addend: 0x0, symName: __ZNKSt3__114__split_bufferINS_6vectorIhNS_9allocatorIhEEEERNS2_IS4_EEE9__end_capB7v160006Ev, symObjAddr: 0x107C0, symBinAddr: 0x100013040, symSize: 0x20 }
  - { offsetInCU: 0x4F430, offset: 0x669F4, size: 0x8, addend: 0x0, symName: __ZNKSt3__117__compressed_pairIPNS_6vectorIhNS_9allocatorIhEEEERNS2_IS4_EEE5firstB7v160006Ev, symObjAddr: 0x107E0, symBinAddr: 0x100013060, symSize: 0x20 }
  - { offsetInCU: 0x4F456, offset: 0x66A1A, size: 0x8, addend: 0x0, symName: __ZNSt3__16vectorIhNS_9allocatorIhEEEC2Em, symObjAddr: 0x10800, symBinAddr: 0x100013080, symSize: 0xE0 }
  - { offsetInCU: 0x4F4A6, offset: 0x66A6A, size: 0x8, addend: 0x0, symName: __ZNSt3__117basic_string_viewIcNS_11char_traitsIcEEEC2B7v160006EPKc, symObjAddr: 0x108E0, symBinAddr: 0x100013160, symSize: 0x40 }
  - { offsetInCU: 0x4F4DF, offset: 0x66AA3, size: 0x8, addend: 0x0, symName: __ZNSt3__16vectorINS0_IhNS_9allocatorIhEEEENS1_IS3_EEE7__clearB7v160006Ev, symObjAddr: 0x10940, symBinAddr: 0x1000131C0, symSize: 0x20 }
  - { offsetInCU: 0x4F505, offset: 0x66AC9, size: 0x8, addend: 0x0, symName: __ZNKSt3__16vectorINS0_IhNS_9allocatorIhEEEENS1_IS3_EEE17__annotate_shrinkB7v160006Em, symObjAddr: 0x10960, symBinAddr: 0x1000131E0, symSize: 0xA0 }
  - { offsetInCU: 0x4F53A, offset: 0x66AFE, size: 0x8, addend: 0x0, symName: __ZNSt3__16vectorINS0_IhNS_9allocatorIhEEEENS1_IS3_EEE22__base_destruct_at_endB7v160006EPS3_, symObjAddr: 0x10A00, symBinAddr: 0x100013280, symSize: 0x80 }
  - { offsetInCU: 0x4F57E, offset: 0x66B42, size: 0x8, addend: 0x0, symName: __ZN14CScriptWitnessD2Ev, symObjAddr: 0x10A80, symBinAddr: 0x100013300, symSize: 0x20 }
  - { offsetInCU: 0x4F5AB, offset: 0x66B6F, size: 0x8, addend: 0x0, symName: __ZNSt3__16vectorINS0_IhNS_9allocatorIhEEEENS1_IS3_EEED1B7v160006Ev, symObjAddr: 0x10AA0, symBinAddr: 0x100013320, symSize: 0x20 }
  - { offsetInCU: 0x4F5D5, offset: 0x66B99, size: 0x8, addend: 0x0, symName: __ZNSt3__16vectorINS0_IhNS_9allocatorIhEEEENS1_IS3_EEED2B7v160006Ev, symObjAddr: 0x10AC0, symBinAddr: 0x100013340, symSize: 0x40 }
  - { offsetInCU: 0x4F5FF, offset: 0x66BC3, size: 0x8, addend: 0x0, symName: __ZNSt3__16vectorINS0_IhNS_9allocatorIhEEEENS1_IS3_EEE16__destroy_vectorC1ERS5_, symObjAddr: 0x10B00, symBinAddr: 0x100013380, symSize: 0x30 }
  - { offsetInCU: 0x4F638, offset: 0x66BFC, size: 0x8, addend: 0x0, symName: __ZNSt3__16vectorINS0_IhNS_9allocatorIhEEEENS1_IS3_EEE16__destroy_vectorclB7v160006Ev, symObjAddr: 0x10B30, symBinAddr: 0x1000133B0, symSize: 0x90 }
  - { offsetInCU: 0x4F65E, offset: 0x66C22, size: 0x8, addend: 0x0, symName: __ZNSt3__16vectorINS0_IhNS_9allocatorIhEEEENS1_IS3_EEE16__destroy_vectorC2ERS5_, symObjAddr: 0x10BC0, symBinAddr: 0x100013440, symSize: 0x20 }
  - { offsetInCU: 0x4F697, offset: 0x66C5B, size: 0x8, addend: 0x0, symName: __ZNSt3__14spanIKhLm18446744073709551615EEC2B7v160006IRKNS_6vectorIhNS_9allocatorIhEEEEEEOT_, symObjAddr: 0x10BF0, symBinAddr: 0x100013470, symSize: 0x60 }
  - { offsetInCU: 0x4F6DE, offset: 0x66CA2, size: 0x8, addend: 0x0, symName: __ZNKSt3__16ranges6__data4__fnclB7v160006IRKNS_6vectorIhNS_9allocatorIhEEEEEEDaOT_, symObjAddr: 0x10C50, symBinAddr: 0x1000134D0, symSize: 0x20 }
  - { offsetInCU: 0x4F720, offset: 0x66CE4, size: 0x8, addend: 0x0, symName: __ZNKSt3__16ranges6__size4__fnclB7v160006IRKNS_6vectorIhNS_9allocatorIhEEEEEEDaOT_, symObjAddr: 0x10C70, symBinAddr: 0x1000134F0, symSize: 0x20 }
  - { offsetInCU: 0x4F75D, offset: 0x66D21, size: 0x8, addend: 0x0, symName: __ZN10SpanReaderC2ENSt3__14spanIKhLm18446744073709551615EEE, symObjAddr: 0x10C90, symBinAddr: 0x100013510, symSize: 0x30 }
  - { offsetInCU: 0x4F795, offset: 0x66D59, size: 0x8, addend: 0x0, symName: __ZNKSt3__16vectorI8CQPubKeyNS_9allocatorIS1_EEE11__make_iterB7v160006EPKS1_, symObjAddr: 0x10CC0, symBinAddr: 0x100013540, symSize: 0x30 }
  - { offsetInCU: 0x4F7CA, offset: 0x66D8E, size: 0x8, addend: 0x0, symName: __ZNSt3__111__wrap_iterIPK8CQPubKeyEC1B7v160006EPKvS3_, symObjAddr: 0x10CF0, symBinAddr: 0x100013570, symSize: 0x30 }
  - { offsetInCU: 0x4F810, offset: 0x66DD4, size: 0x8, addend: 0x0, symName: __ZNSt3__111__wrap_iterIPK8CQPubKeyEC2B7v160006EPKvS3_, symObjAddr: 0x10D20, symBinAddr: 0x1000135A0, symSize: 0x20 }
  - { offsetInCU: 0x4F856, offset: 0x66E1A, size: 0x8, addend: 0x0, symName: __ZNKSt3__111__wrap_iterIPK8CQPubKeyE4baseB7v160006Ev, symObjAddr: 0x10D80, symBinAddr: 0x100013600, symSize: 0x20 }
  - { offsetInCU: 0x4F87C, offset: 0x66E40, size: 0x8, addend: 0x0, symName: __ZN5CTxInC2Ev, symObjAddr: 0x10DA0, symBinAddr: 0x100013620, symSize: 0x50 }
  - { offsetInCU: 0x4F8A6, offset: 0x66E6A, size: 0x8, addend: 0x0, symName: __ZN9COutPointC1Ev, symObjAddr: 0x10DF0, symBinAddr: 0x100013670, symSize: 0x20 }
  - { offsetInCU: 0x4F8D0, offset: 0x66E94, size: 0x8, addend: 0x0, symName: __ZN9COutPointC2Ev, symObjAddr: 0x10E10, symBinAddr: 0x100013690, symSize: 0x30 }
  - { offsetInCU: 0x4F8FA, offset: 0x66EBE, size: 0x8, addend: 0x0, symName: __ZN22transaction_identifierILb0EEC1Ev, symObjAddr: 0x10E40, symBinAddr: 0x1000136C0, symSize: 0x20 }
  - { offsetInCU: 0x4F924, offset: 0x66EE8, size: 0x8, addend: 0x0, symName: __ZN22transaction_identifierILb0EEC2Ev, symObjAddr: 0x10E60, symBinAddr: 0x1000136E0, symSize: 0x30 }
  - { offsetInCU: 0x4F94E, offset: 0x66F12, size: 0x8, addend: 0x0, symName: __ZN7CScriptC2Ev, symObjAddr: 0x10E90, symBinAddr: 0x100013710, symSize: 0x20 }
  - { offsetInCU: 0x4F978, offset: 0x66F3C, size: 0x8, addend: 0x0, symName: __ZN9prevectorILj28EhjiEC2Ev, symObjAddr: 0x10EB0, symBinAddr: 0x100013730, symSize: 0x40 }
  - { offsetInCU: 0x4F9A2, offset: 0x66F66, size: 0x8, addend: 0x0, symName: __ZN9prevectorILj28EhjiEaSEOS0_, symObjAddr: 0x10EF0, symBinAddr: 0x100013770, symSize: 0xA0 }
  - { offsetInCU: 0x4F9D6, offset: 0x66F9A, size: 0x8, addend: 0x0, symName: __ZNK9prevectorILj28EhjiE9is_directEv, symObjAddr: 0x10F90, symBinAddr: 0x100013810, symSize: 0x20 }
  - { offsetInCU: 0x4F9FC, offset: 0x66FC0, size: 0x8, addend: 0x0, symName: __ZN7CScriptD2Ev, symObjAddr: 0x10FB0, symBinAddr: 0x100013830, symSize: 0x20 }
  - { offsetInCU: 0x4FA29, offset: 0x66FED, size: 0x8, addend: 0x0, symName: __ZN9prevectorILj28EhjiED2Ev, symObjAddr: 0x10FD0, symBinAddr: 0x100013850, symSize: 0x50 }
  - { offsetInCU: 0x4FA53, offset: 0x67017, size: 0x8, addend: 0x0, symName: __ZNSt3__16vectorI5CTxInNS_9allocatorIS1_EEE9__end_capB7v160006Ev, symObjAddr: 0x11020, symBinAddr: 0x1000138A0, symSize: 0x20 }
  - { offsetInCU: 0x4FA7E, offset: 0x67042, size: 0x8, addend: 0x0, symName: __ZNSt3__16vectorI5CTxInNS_9allocatorIS1_EEE22__construct_one_at_endB7v160006IJRKS1_EEEvDpOT_, symObjAddr: 0x11040, symBinAddr: 0x1000138C0, symSize: 0x90 }
  - { offsetInCU: 0x4FACD, offset: 0x67091, size: 0x8, addend: 0x0, symName: __ZNSt3__16vectorI5CTxInNS_9allocatorIS1_EEE21__push_back_slow_pathIRKS1_EEvOT_, symObjAddr: 0x110D0, symBinAddr: 0x100013950, symSize: 0xD0 }
  - { offsetInCU: 0x4FB2B, offset: 0x670EF, size: 0x8, addend: 0x0, symName: __ZNSt3__117__compressed_pairIP5CTxInNS_9allocatorIS1_EEE5firstB7v160006Ev, symObjAddr: 0x111A0, symBinAddr: 0x100013A20, symSize: 0x20 }
  - { offsetInCU: 0x4FB51, offset: 0x67115, size: 0x8, addend: 0x0, symName: __ZNSt3__122__compressed_pair_elemIP5CTxInLi0ELb0EE5__getB7v160006Ev, symObjAddr: 0x111C0, symBinAddr: 0x100013A40, symSize: 0x10 }
  - { offsetInCU: 0x4FB90, offset: 0x67154, size: 0x8, addend: 0x0, symName: __ZNSt3__16vectorI5CTxInNS_9allocatorIS1_EEE21_ConstructTransactionC1B7v160006ERS4_m, symObjAddr: 0x111D0, symBinAddr: 0x100013A50, symSize: 0x30 }
  - { offsetInCU: 0x4FBD8, offset: 0x6719C, size: 0x8, addend: 0x0, symName: __ZNSt3__116allocator_traitsINS_9allocatorI5CTxInEEE9constructB7v160006IS2_JRKS2_EvvEEvRS3_PT_DpOT0_, symObjAddr: 0x11200, symBinAddr: 0x100013A80, symSize: 0x30 }
  - { offsetInCU: 0x4FC2C, offset: 0x671F0, size: 0x8, addend: 0x0, symName: __ZNSt3__16vectorI5CTxInNS_9allocatorIS1_EEE7__allocB7v160006Ev, symObjAddr: 0x11230, symBinAddr: 0x100013AB0, symSize: 0x20 }
  - { offsetInCU: 0x4FC52, offset: 0x67216, size: 0x8, addend: 0x0, symName: __ZNSt3__16vectorI5CTxInNS_9allocatorIS1_EEE21_ConstructTransactionD1B7v160006Ev, symObjAddr: 0x11260, symBinAddr: 0x100013AE0, symSize: 0x20 }
  - { offsetInCU: 0x4FC7C, offset: 0x67240, size: 0x8, addend: 0x0, symName: __ZNSt3__16vectorI5CTxInNS_9allocatorIS1_EEE21_ConstructTransactionC2B7v160006ERS4_m, symObjAddr: 0x11280, symBinAddr: 0x100013B00, symSize: 0x40 }
  - { offsetInCU: 0x4FCC4, offset: 0x67288, size: 0x8, addend: 0x0, symName: __ZN5CTxInC1ERKS_, symObjAddr: 0x11300, symBinAddr: 0x100013B80, symSize: 0x30 }
  - { offsetInCU: 0x4FCF9, offset: 0x672BD, size: 0x8, addend: 0x0, symName: __ZN5CTxInC2ERKS_, symObjAddr: 0x11330, symBinAddr: 0x100013BB0, symSize: 0x90 }
  - { offsetInCU: 0x4FD2E, offset: 0x672F2, size: 0x8, addend: 0x0, symName: __ZN7CScriptC1ERKS_, symObjAddr: 0x113C0, symBinAddr: 0x100013C40, symSize: 0x30 }
  - { offsetInCU: 0x4FD64, offset: 0x67328, size: 0x8, addend: 0x0, symName: __ZN14CScriptWitnessC1ERKS_, symObjAddr: 0x113F0, symBinAddr: 0x100013C70, symSize: 0x30 }
  - { offsetInCU: 0x4FD9A, offset: 0x6735E, size: 0x8, addend: 0x0, symName: __ZN7CScriptC2ERKS_, symObjAddr: 0x11420, symBinAddr: 0x100013CA0, symSize: 0x30 }
  - { offsetInCU: 0x4FDD0, offset: 0x67394, size: 0x8, addend: 0x0, symName: __ZN9prevectorILj28EhjiEC2ERKS0_, symObjAddr: 0x11450, symBinAddr: 0x100013CD0, symSize: 0xA0 }
  - { offsetInCU: 0x4FE25, offset: 0x673E9, size: 0x8, addend: 0x0, symName: __ZN9prevectorILj28EhjiE15change_capacityEj, symObjAddr: 0x114F0, symBinAddr: 0x100013D70, symSize: 0x1E0 }
  - { offsetInCU: 0x4FECF, offset: 0x67493, size: 0x8, addend: 0x0, symName: __ZN9prevectorILj28EhjiE4fillINS0_14const_iteratorEEEvPhT_S4_, symObjAddr: 0x116D0, symBinAddr: 0x100013F50, symSize: 0x80 }
  - { offsetInCU: 0x4FF28, offset: 0x674EC, size: 0x8, addend: 0x0, symName: __ZN9prevectorILj28EhjiE8item_ptrEi, symObjAddr: 0x11750, symBinAddr: 0x100013FD0, symSize: 0x60 }
  - { offsetInCU: 0x4FF5C, offset: 0x67520, size: 0x8, addend: 0x0, symName: __ZNK9prevectorILj28EhjiE5beginEv, symObjAddr: 0x117B0, symBinAddr: 0x100014030, symSize: 0x30 }
  - { offsetInCU: 0x4FF82, offset: 0x67546, size: 0x8, addend: 0x0, symName: __ZNK9prevectorILj28EhjiE3endEv, symObjAddr: 0x117E0, symBinAddr: 0x100014060, symSize: 0x40 }
  - { offsetInCU: 0x4FFA8, offset: 0x6756C, size: 0x8, addend: 0x0, symName: __ZN9prevectorILj28EhjiE12indirect_ptrEi, symObjAddr: 0x11820, symBinAddr: 0x1000140A0, symSize: 0x20 }
  - { offsetInCU: 0x4FFDC, offset: 0x675A0, size: 0x8, addend: 0x0, symName: __ZN9prevectorILj28EhjiE10direct_ptrEi, symObjAddr: 0x11840, symBinAddr: 0x1000140C0, symSize: 0x20 }
  - { offsetInCU: 0x50010, offset: 0x675D4, size: 0x8, addend: 0x0, symName: __ZNK9prevectorILj28EhjiE14const_iteratorneES1_, symObjAddr: 0x11860, symBinAddr: 0x1000140E0, symSize: 0x30 }
  - { offsetInCU: 0x50044, offset: 0x67608, size: 0x8, addend: 0x0, symName: __ZNK9prevectorILj28EhjiE14const_iteratordeEv, symObjAddr: 0x11890, symBinAddr: 0x100014110, symSize: 0x20 }
  - { offsetInCU: 0x5006A, offset: 0x6762E, size: 0x8, addend: 0x0, symName: __ZN9prevectorILj28EhjiE14const_iteratorppEv, symObjAddr: 0x118B0, symBinAddr: 0x100014130, symSize: 0x20 }
  - { offsetInCU: 0x50090, offset: 0x67654, size: 0x8, addend: 0x0, symName: __ZNK9prevectorILj28EhjiE8item_ptrEi, symObjAddr: 0x118D0, symBinAddr: 0x100014150, symSize: 0x60 }
  - { offsetInCU: 0x500C4, offset: 0x67688, size: 0x8, addend: 0x0, symName: __ZN9prevectorILj28EhjiE14const_iteratorC1EPKh, symObjAddr: 0x11930, symBinAddr: 0x1000141B0, symSize: 0x30 }
  - { offsetInCU: 0x500FC, offset: 0x676C0, size: 0x8, addend: 0x0, symName: __ZNK9prevectorILj28EhjiE10direct_ptrEi, symObjAddr: 0x11960, symBinAddr: 0x1000141E0, symSize: 0x20 }
  - { offsetInCU: 0x50130, offset: 0x676F4, size: 0x8, addend: 0x0, symName: __ZNK9prevectorILj28EhjiE12indirect_ptrEi, symObjAddr: 0x11980, symBinAddr: 0x100014200, symSize: 0x20 }
  - { offsetInCU: 0x50164, offset: 0x67728, size: 0x8, addend: 0x0, symName: __ZN9prevectorILj28EhjiE14const_iteratorC2EPKh, symObjAddr: 0x119A0, symBinAddr: 0x100014220, symSize: 0x20 }
  - { offsetInCU: 0x5019C, offset: 0x67760, size: 0x8, addend: 0x0, symName: __ZN14CScriptWitnessC2ERKS_, symObjAddr: 0x119C0, symBinAddr: 0x100014240, symSize: 0x30 }
  - { offsetInCU: 0x501D2, offset: 0x67796, size: 0x8, addend: 0x0, symName: __ZNSt3__16vectorINS0_IhNS_9allocatorIhEEEENS1_IS3_EEEC1ERKS5_, symObjAddr: 0x119F0, symBinAddr: 0x100014270, symSize: 0x30 }
  - { offsetInCU: 0x5020D, offset: 0x677D1, size: 0x8, addend: 0x0, symName: __ZNSt3__16vectorINS0_IhNS_9allocatorIhEEEENS1_IS3_EEEC2ERKS5_, symObjAddr: 0x11A20, symBinAddr: 0x1000142A0, symSize: 0x110 }
  - { offsetInCU: 0x5026D, offset: 0x67831, size: 0x8, addend: 0x0, symName: __ZNSt3__116allocator_traitsINS_9allocatorINS_6vectorIhNS1_IhEEEEEEE37select_on_container_copy_constructionB7v160006IS5_vvEES5_RKS5_, symObjAddr: 0x11B30, symBinAddr: 0x1000143B0, symSize: 0x10 }
  - { offsetInCU: 0x502A0, offset: 0x67864, size: 0x8, addend: 0x0, symName: __ZNSt3__117__compressed_pairIPNS_6vectorIhNS_9allocatorIhEEEENS2_IS4_EEEC1B7v160006IDnS6_EEOT_OT0_, symObjAddr: 0x11B40, symBinAddr: 0x1000143C0, symSize: 0x30 }
  - { offsetInCU: 0x502F8, offset: 0x678BC, size: 0x8, addend: 0x0, symName: __ZNSt3__16vectorINS0_IhNS_9allocatorIhEEEENS1_IS3_EEE11__vallocateB7v160006Em, symObjAddr: 0x11BB0, symBinAddr: 0x100014430, symSize: 0xA0 }
  - { offsetInCU: 0x5033C, offset: 0x67900, size: 0x8, addend: 0x0, symName: __ZNSt3__16vectorINS0_IhNS_9allocatorIhEEEENS1_IS3_EEE18__construct_at_endIPS3_Li0EEEvT_S8_m, symObjAddr: 0x11C50, symBinAddr: 0x1000144D0, symSize: 0x90 }
  - { offsetInCU: 0x503AF, offset: 0x67973, size: 0x8, addend: 0x0, symName: __ZNSt3__128__exception_guard_exceptionsINS_6vectorINS1_IhNS_9allocatorIhEEEENS2_IS4_EEE16__destroy_vectorEE10__completeB7v160006Ev, symObjAddr: 0x11CE0, symBinAddr: 0x100014560, symSize: 0x20 }
  - { offsetInCU: 0x503D5, offset: 0x67999, size: 0x8, addend: 0x0, symName: __ZNSt3__128__exception_guard_exceptionsINS_6vectorINS1_IhNS_9allocatorIhEEEENS2_IS4_EEE16__destroy_vectorEED1B7v160006Ev, symObjAddr: 0x11D00, symBinAddr: 0x100014580, symSize: 0x20 }
  - { offsetInCU: 0x503FF, offset: 0x679C3, size: 0x8, addend: 0x0, symName: __ZNSt3__117__compressed_pairIPNS_6vectorIhNS_9allocatorIhEEEENS2_IS4_EEEC2B7v160006IDnS6_EEOT_OT0_, symObjAddr: 0x11D20, symBinAddr: 0x1000145A0, symSize: 0x40 }
  - { offsetInCU: 0x50457, offset: 0x67A1B, size: 0x8, addend: 0x0, symName: __ZNSt3__122__compressed_pair_elemINS_9allocatorINS_6vectorIhNS1_IhEEEEEELi1ELb1EEC2B7v160006IS5_vEEOT_, symObjAddr: 0x11D60, symBinAddr: 0x1000145E0, symSize: 0x10 }
  - { offsetInCU: 0x50499, offset: 0x67A5D, size: 0x8, addend: 0x0, symName: __ZNSt3__128__exception_guard_exceptionsINS_6vectorINS1_IhNS_9allocatorIhEEEENS2_IS4_EEE16__destroy_vectorEEC1B7v160006ES7_, symObjAddr: 0x11D70, symBinAddr: 0x1000145F0, symSize: 0x30 }
  - { offsetInCU: 0x504D1, offset: 0x67A95, size: 0x8, addend: 0x0, symName: __ZNSt3__128__exception_guard_exceptionsINS_6vectorINS1_IhNS_9allocatorIhEEEENS2_IS4_EEE16__destroy_vectorEEC2B7v160006ES7_, symObjAddr: 0x11DA0, symBinAddr: 0x100014620, symSize: 0x20 }
  - { offsetInCU: 0x50509, offset: 0x67ACD, size: 0x8, addend: 0x0, symName: __ZNSt3__129_AllocatorDestroyRangeReverseINS_9allocatorINS_6vectorIhNS1_IhEEEEEEPS4_EC1B7v160006ERS5_RS6_S9_, symObjAddr: 0x11F20, symBinAddr: 0x1000147A0, symSize: 0x40 }
  - { offsetInCU: 0x50560, offset: 0x67B24, size: 0x8, addend: 0x0, symName: __ZNSt3__116allocator_traitsINS_9allocatorINS_6vectorIhNS1_IhEEEEEEE9constructB7v160006IS4_JRS4_EvvEEvRS5_PT_DpOT0_, symObjAddr: 0x11F60, symBinAddr: 0x1000147E0, symSize: 0x30 }
  - { offsetInCU: 0x505B4, offset: 0x67B78, size: 0x8, addend: 0x0, symName: __ZNSt3__128__exception_guard_exceptionsINS_29_AllocatorDestroyRangeReverseINS_9allocatorINS_6vectorIhNS2_IhEEEEEEPS5_EEE10__completeB7v160006Ev, symObjAddr: 0x11F90, symBinAddr: 0x100014810, symSize: 0x20 }
  - { offsetInCU: 0x505DA, offset: 0x67B9E, size: 0x8, addend: 0x0, symName: __ZNSt3__128__exception_guard_exceptionsINS_29_AllocatorDestroyRangeReverseINS_9allocatorINS_6vectorIhNS2_IhEEEEEEPS5_EEED1B7v160006Ev, symObjAddr: 0x11FB0, symBinAddr: 0x100014830, symSize: 0x20 }
  - { offsetInCU: 0x50604, offset: 0x67BC8, size: 0x8, addend: 0x0, symName: __ZNSt3__128__exception_guard_exceptionsINS_29_AllocatorDestroyRangeReverseINS_9allocatorINS_6vectorIhNS2_IhEEEEEEPS5_EEEC1B7v160006ES8_, symObjAddr: 0x11FD0, symBinAddr: 0x100014850, symSize: 0x40 }
  - { offsetInCU: 0x5063C, offset: 0x67C00, size: 0x8, addend: 0x0, symName: __ZNSt3__128__exception_guard_exceptionsINS_29_AllocatorDestroyRangeReverseINS_9allocatorINS_6vectorIhNS2_IhEEEEEEPS5_EEEC2B7v160006ES8_, symObjAddr: 0x12010, symBinAddr: 0x100014890, symSize: 0x30 }
  - { offsetInCU: 0x50674, offset: 0x67C38, size: 0x8, addend: 0x0, symName: __ZNSt3__129_AllocatorDestroyRangeReverseINS_9allocatorINS_6vectorIhNS1_IhEEEEEEPS4_EC2B7v160006ERS5_RS6_S9_, symObjAddr: 0x12040, symBinAddr: 0x1000148C0, symSize: 0x40 }
  - { offsetInCU: 0x506CB, offset: 0x67C8F, size: 0x8, addend: 0x0, symName: __ZNSt3__128__exception_guard_exceptionsINS_29_AllocatorDestroyRangeReverseINS_9allocatorINS_6vectorIhNS2_IhEEEEEEPS5_EEED2B7v160006Ev, symObjAddr: 0x120C0, symBinAddr: 0x100014940, symSize: 0x40 }
  - { offsetInCU: 0x506F5, offset: 0x67CB9, size: 0x8, addend: 0x0, symName: __ZNKSt3__129_AllocatorDestroyRangeReverseINS_9allocatorINS_6vectorIhNS1_IhEEEEEEPS4_EclB7v160006Ev, symObjAddr: 0x12100, symBinAddr: 0x100014980, symSize: 0x60 }
  - { offsetInCU: 0x5071B, offset: 0x67CDF, size: 0x8, addend: 0x0, symName: __ZNSt3__128__exception_guard_exceptionsINS_6vectorINS1_IhNS_9allocatorIhEEEENS2_IS4_EEE16__destroy_vectorEED2B7v160006Ev, symObjAddr: 0x121D0, symBinAddr: 0x100014A50, symSize: 0x40 }
  - { offsetInCU: 0x50745, offset: 0x67D09, size: 0x8, addend: 0x0, symName: __ZNSt3__117__compressed_pairIP5CTxInNS_9allocatorIS1_EEE6secondB7v160006Ev, symObjAddr: 0x12210, symBinAddr: 0x100014A90, symSize: 0x20 }
  - { offsetInCU: 0x5076B, offset: 0x67D2F, size: 0x8, addend: 0x0, symName: __ZNSt3__122__compressed_pair_elemINS_9allocatorI5CTxInEELi1ELb1EE5__getB7v160006Ev, symObjAddr: 0x12230, symBinAddr: 0x100014AB0, symSize: 0x10 }
  - { offsetInCU: 0x50791, offset: 0x67D55, size: 0x8, addend: 0x0, symName: __ZNSt3__16vectorI5CTxInNS_9allocatorIS1_EEE21_ConstructTransactionD2B7v160006Ev, symObjAddr: 0x12240, symBinAddr: 0x100014AC0, symSize: 0x20 }
  - { offsetInCU: 0x507BB, offset: 0x67D7F, size: 0x8, addend: 0x0, symName: __ZNKSt3__16vectorI5CTxInNS_9allocatorIS1_EEE11__recommendB7v160006Em, symObjAddr: 0x12260, symBinAddr: 0x100014AE0, symSize: 0xA0 }
  - { offsetInCU: 0x50810, offset: 0x67DD4, size: 0x8, addend: 0x0, symName: __ZNSt3__114__split_bufferI5CTxInRNS_9allocatorIS1_EEEC1EmmS4_, symObjAddr: 0x12300, symBinAddr: 0x100014B80, symSize: 0x40 }
  - { offsetInCU: 0x50866, offset: 0x67E2A, size: 0x8, addend: 0x0, symName: __ZNSt3__114__split_bufferI5CTxInRNS_9allocatorIS1_EEED1Ev, symObjAddr: 0x12470, symBinAddr: 0x100014CF0, symSize: 0x20 }
  - { offsetInCU: 0x50892, offset: 0x67E56, size: 0x8, addend: 0x0, symName: __ZNKSt3__16vectorI5CTxInNS_9allocatorIS1_EEE8max_sizeEv, symObjAddr: 0x12490, symBinAddr: 0x100014D10, symSize: 0x60 }
  - { offsetInCU: 0x508BA, offset: 0x67E7E, size: 0x8, addend: 0x0, symName: __ZNKSt3__16vectorI5CTxInNS_9allocatorIS1_EEE20__throw_length_errorB7v160006Ev, symObjAddr: 0x124F0, symBinAddr: 0x100014D70, symSize: 0x20 }
  - { offsetInCU: 0x508E0, offset: 0x67EA4, size: 0x8, addend: 0x0, symName: __ZNKSt3__16vectorI5CTxInNS_9allocatorIS1_EEE8capacityB7v160006Ev, symObjAddr: 0x12510, symBinAddr: 0x100014D90, symSize: 0x40 }
  - { offsetInCU: 0x50910, offset: 0x67ED4, size: 0x8, addend: 0x0, symName: __ZNSt3__116allocator_traitsINS_9allocatorI5CTxInEEE8max_sizeB7v160006IS3_vvEEmRKS3_, symObjAddr: 0x12550, symBinAddr: 0x100014DD0, symSize: 0x30 }
  - { offsetInCU: 0x5093B, offset: 0x67EFF, size: 0x8, addend: 0x0, symName: __ZNKSt3__16vectorI5CTxInNS_9allocatorIS1_EEE7__allocB7v160006Ev, symObjAddr: 0x12580, symBinAddr: 0x100014E00, symSize: 0x20 }
  - { offsetInCU: 0x50961, offset: 0x67F25, size: 0x8, addend: 0x0, symName: __ZNKSt3__117__compressed_pairIP5CTxInNS_9allocatorIS1_EEE6secondB7v160006Ev, symObjAddr: 0x125A0, symBinAddr: 0x100014E20, symSize: 0x20 }
  - { offsetInCU: 0x50987, offset: 0x67F4B, size: 0x8, addend: 0x0, symName: __ZNKSt3__122__compressed_pair_elemINS_9allocatorI5CTxInEELi1ELb1EE5__getB7v160006Ev, symObjAddr: 0x125C0, symBinAddr: 0x100014E40, symSize: 0x10 }
  - { offsetInCU: 0x509AD, offset: 0x67F71, size: 0x8, addend: 0x0, symName: __ZNKSt3__16vectorI5CTxInNS_9allocatorIS1_EEE9__end_capB7v160006Ev, symObjAddr: 0x125D0, symBinAddr: 0x100014E50, symSize: 0x20 }
  - { offsetInCU: 0x509D3, offset: 0x67F97, size: 0x8, addend: 0x0, symName: __ZNKSt3__117__compressed_pairIP5CTxInNS_9allocatorIS1_EEE5firstB7v160006Ev, symObjAddr: 0x125F0, symBinAddr: 0x100014E70, symSize: 0x20 }
  - { offsetInCU: 0x509F9, offset: 0x67FBD, size: 0x8, addend: 0x0, symName: __ZNKSt3__122__compressed_pair_elemIP5CTxInLi0ELb0EE5__getB7v160006Ev, symObjAddr: 0x12610, symBinAddr: 0x100014E90, symSize: 0x10 }
  - { offsetInCU: 0x50A1F, offset: 0x67FE3, size: 0x8, addend: 0x0, symName: __ZNSt3__114__split_bufferI5CTxInRNS_9allocatorIS1_EEEC2EmmS4_, symObjAddr: 0x12620, symBinAddr: 0x100014EA0, symSize: 0xC0 }
  - { offsetInCU: 0x50A92, offset: 0x68056, size: 0x8, addend: 0x0, symName: __ZNSt3__117__compressed_pairIP5CTxInRNS_9allocatorIS1_EEEC1B7v160006IDnS5_EEOT_OT0_, symObjAddr: 0x126E0, symBinAddr: 0x100014F60, symSize: 0x30 }
  - { offsetInCU: 0x50AEA, offset: 0x680AE, size: 0x8, addend: 0x0, symName: __ZNSt3__114__split_bufferI5CTxInRNS_9allocatorIS1_EEE7__allocB7v160006Ev, symObjAddr: 0x12750, symBinAddr: 0x100014FD0, symSize: 0x20 }
  - { offsetInCU: 0x50B10, offset: 0x680D4, size: 0x8, addend: 0x0, symName: __ZNSt3__114__split_bufferI5CTxInRNS_9allocatorIS1_EEE9__end_capB7v160006Ev, symObjAddr: 0x12770, symBinAddr: 0x100014FF0, symSize: 0x20 }
  - { offsetInCU: 0x50B36, offset: 0x680FA, size: 0x8, addend: 0x0, symName: __ZNSt3__117__compressed_pairIP5CTxInRNS_9allocatorIS1_EEEC2B7v160006IDnS5_EEOT_OT0_, symObjAddr: 0x12790, symBinAddr: 0x100015010, symSize: 0x40 }
  - { offsetInCU: 0x50B8E, offset: 0x68152, size: 0x8, addend: 0x0, symName: __ZNSt3__122__compressed_pair_elemIP5CTxInLi0ELb0EEC2B7v160006IDnvEEOT_, symObjAddr: 0x127D0, symBinAddr: 0x100015050, symSize: 0x20 }
  - { offsetInCU: 0x50BD0, offset: 0x68194, size: 0x8, addend: 0x0, symName: __ZNSt3__122__compressed_pair_elemIRNS_9allocatorI5CTxInEELi1ELb0EEC2B7v160006IS4_vEEOT_, symObjAddr: 0x127F0, symBinAddr: 0x100015070, symSize: 0x20 }
  - { offsetInCU: 0x50C12, offset: 0x681D6, size: 0x8, addend: 0x0, symName: __ZNSt3__19allocatorI5CTxInE8allocateB7v160006Em, symObjAddr: 0x12810, symBinAddr: 0x100015090, symSize: 0x50 }
  - { offsetInCU: 0x50C46, offset: 0x6820A, size: 0x8, addend: 0x0, symName: __ZNSt3__117__compressed_pairIP5CTxInRNS_9allocatorIS1_EEE6secondB7v160006Ev, symObjAddr: 0x12860, symBinAddr: 0x1000150E0, symSize: 0x20 }
  - { offsetInCU: 0x50C6C, offset: 0x68230, size: 0x8, addend: 0x0, symName: __ZNSt3__122__compressed_pair_elemIRNS_9allocatorI5CTxInEELi1ELb0EE5__getB7v160006Ev, symObjAddr: 0x12880, symBinAddr: 0x100015100, symSize: 0x20 }
  - { offsetInCU: 0x50C92, offset: 0x68256, size: 0x8, addend: 0x0, symName: __ZNSt3__117__compressed_pairIP5CTxInRNS_9allocatorIS1_EEE5firstB7v160006Ev, symObjAddr: 0x128A0, symBinAddr: 0x100015120, symSize: 0x20 }
  - { offsetInCU: 0x50CB8, offset: 0x6827C, size: 0x8, addend: 0x0, symName: __ZNKSt3__16vectorI5CTxInNS_9allocatorIS1_EEE17__annotate_deleteB7v160006Ev, symObjAddr: 0x128C0, symBinAddr: 0x100015140, symSize: 0xB0 }
  - { offsetInCU: 0x50CDE, offset: 0x682A2, size: 0x8, addend: 0x0, symName: __ZNSt3__116reverse_iteratorIP5CTxInEC1B7v160006ES2_, symObjAddr: 0x12AF0, symBinAddr: 0x100015370, symSize: 0x30 }
  - { offsetInCU: 0x50D16, offset: 0x682DA, size: 0x8, addend: 0x0, symName: __ZNKSt3__116reverse_iteratorIP5CTxInE4baseB7v160006Ev, symObjAddr: 0x12B20, symBinAddr: 0x1000153A0, symSize: 0x20 }
  - { offsetInCU: 0x50D3C, offset: 0x68300, size: 0x8, addend: 0x0, symName: __ZNKSt3__16vectorI5CTxInNS_9allocatorIS1_EEE14__annotate_newB7v160006Em, symObjAddr: 0x12B80, symBinAddr: 0x100015400, symSize: 0xA0 }
  - { offsetInCU: 0x50D71, offset: 0x68335, size: 0x8, addend: 0x0, symName: __ZNKSt3__16vectorI5CTxInNS_9allocatorIS1_EEE31__annotate_contiguous_containerB7v160006EPKvS6_S6_S6_, symObjAddr: 0x12C30, symBinAddr: 0x1000154B0, symSize: 0x20 }
  - { offsetInCU: 0x50DC7, offset: 0x6838B, size: 0x8, addend: 0x0, symName: __ZNKSt3__16vectorI5CTxInNS_9allocatorIS1_EEE4dataB7v160006Ev, symObjAddr: 0x12C50, symBinAddr: 0x1000154D0, symSize: 0x20 }
  - { offsetInCU: 0x50DED, offset: 0x683B1, size: 0x8, addend: 0x0, symName: __ZNSt3__129_AllocatorDestroyRangeReverseINS_9allocatorI5CTxInEENS_16reverse_iteratorIPS2_EEEC1B7v160006ERS3_RS6_S9_, symObjAddr: 0x12CD0, symBinAddr: 0x100015550, symSize: 0x40 }
  - { offsetInCU: 0x50E49, offset: 0x6840D, size: 0x8, addend: 0x0, symName: __ZNSt3__116allocator_traitsINS_9allocatorI5CTxInEEE9constructB7v160006IS2_JS2_EvvEEvRS3_PT_DpOT0_, symObjAddr: 0x12D50, symBinAddr: 0x1000155D0, symSize: 0x30 }
  - { offsetInCU: 0x50E9D, offset: 0x68461, size: 0x8, addend: 0x0, symName: __ZNKSt3__116reverse_iteratorIP5CTxInEdeB7v160006Ev, symObjAddr: 0x12DA0, symBinAddr: 0x100015620, symSize: 0x30 }
  - { offsetInCU: 0x50ED2, offset: 0x68496, size: 0x8, addend: 0x0, symName: __ZNSt3__116reverse_iteratorIP5CTxInEppB7v160006Ev, symObjAddr: 0x12DD0, symBinAddr: 0x100015650, symSize: 0x20 }
  - { offsetInCU: 0x50EF8, offset: 0x684BC, size: 0x8, addend: 0x0, symName: __ZNSt3__128__exception_guard_exceptionsINS_29_AllocatorDestroyRangeReverseINS_9allocatorI5CTxInEENS_16reverse_iteratorIPS3_EEEEE10__completeB7v160006Ev, symObjAddr: 0x12DF0, symBinAddr: 0x100015670, symSize: 0x20 }
  - { offsetInCU: 0x50F1E, offset: 0x684E2, size: 0x8, addend: 0x0, symName: __ZNSt3__128__exception_guard_exceptionsINS_29_AllocatorDestroyRangeReverseINS_9allocatorI5CTxInEENS_16reverse_iteratorIPS3_EEEEED1B7v160006Ev, symObjAddr: 0x12E10, symBinAddr: 0x100015690, symSize: 0x20 }
  - { offsetInCU: 0x50F48, offset: 0x6850C, size: 0x8, addend: 0x0, symName: __ZNSt3__128__exception_guard_exceptionsINS_29_AllocatorDestroyRangeReverseINS_9allocatorI5CTxInEENS_16reverse_iteratorIPS3_EEEEEC1B7v160006ES8_, symObjAddr: 0x12E30, symBinAddr: 0x1000156B0, symSize: 0x40 }
  - { offsetInCU: 0x50F80, offset: 0x68544, size: 0x8, addend: 0x0, symName: __ZNSt3__128__exception_guard_exceptionsINS_29_AllocatorDestroyRangeReverseINS_9allocatorI5CTxInEENS_16reverse_iteratorIPS3_EEEEEC2B7v160006ES8_, symObjAddr: 0x12E70, symBinAddr: 0x1000156F0, symSize: 0x30 }
  - { offsetInCU: 0x50FB8, offset: 0x6857C, size: 0x8, addend: 0x0, symName: __ZNSt3__129_AllocatorDestroyRangeReverseINS_9allocatorI5CTxInEENS_16reverse_iteratorIPS2_EEEC2B7v160006ERS3_RS6_S9_, symObjAddr: 0x12EA0, symBinAddr: 0x100015720, symSize: 0x40 }
  - { offsetInCU: 0x5100F, offset: 0x685D3, size: 0x8, addend: 0x0, symName: __ZN5CTxInC1EOS_, symObjAddr: 0x12F20, symBinAddr: 0x1000157A0, symSize: 0x30 }
  - { offsetInCU: 0x51044, offset: 0x68608, size: 0x8, addend: 0x0, symName: __ZN5CTxInC2EOS_, symObjAddr: 0x12F50, symBinAddr: 0x1000157D0, symSize: 0x60 }
  - { offsetInCU: 0x51079, offset: 0x6863D, size: 0x8, addend: 0x0, symName: __ZN7CScriptC1EOS_, symObjAddr: 0x12FB0, symBinAddr: 0x100015830, symSize: 0x30 }
  - { offsetInCU: 0x510B4, offset: 0x68678, size: 0x8, addend: 0x0, symName: __ZN14CScriptWitnessC1EOS_, symObjAddr: 0x12FE0, symBinAddr: 0x100015860, symSize: 0x30 }
  - { offsetInCU: 0x510EA, offset: 0x686AE, size: 0x8, addend: 0x0, symName: __ZN7CScriptC2EOS_, symObjAddr: 0x13010, symBinAddr: 0x100015890, symSize: 0x30 }
  - { offsetInCU: 0x51120, offset: 0x686E4, size: 0x8, addend: 0x0, symName: __ZN9prevectorILj28EhjiEC2EOS0_, symObjAddr: 0x13040, symBinAddr: 0x1000158C0, symSize: 0x50 }
  - { offsetInCU: 0x51158, offset: 0x6871C, size: 0x8, addend: 0x0, symName: __ZN14CScriptWitnessC2EOS_, symObjAddr: 0x13090, symBinAddr: 0x100015910, symSize: 0x30 }
  - { offsetInCU: 0x5118E, offset: 0x68752, size: 0x8, addend: 0x0, symName: __ZNSt3__16vectorINS0_IhNS_9allocatorIhEEEENS1_IS3_EEEC1B7v160006EOS5_, symObjAddr: 0x130C0, symBinAddr: 0x100015940, symSize: 0x30 }
  - { offsetInCU: 0x511C9, offset: 0x6878D, size: 0x8, addend: 0x0, symName: __ZNSt3__16vectorINS0_IhNS_9allocatorIhEEEENS1_IS3_EEEC2B7v160006EOS5_, symObjAddr: 0x130F0, symBinAddr: 0x100015970, symSize: 0xE0 }
  - { offsetInCU: 0x51209, offset: 0x687CD, size: 0x8, addend: 0x0, symName: __ZNSt3__119__to_address_helperINS_16reverse_iteratorIP5CTxInEEvE6__callB7v160006ERKS4_, symObjAddr: 0x131E0, symBinAddr: 0x100015A60, symSize: 0x40 }
  - { offsetInCU: 0x5122B, offset: 0x687EF, size: 0x8, addend: 0x0, symName: __ZNKSt3__116reverse_iteratorIP5CTxInEptB7v160006Ev, symObjAddr: 0x13220, symBinAddr: 0x100015AA0, symSize: 0x30 }
  - { offsetInCU: 0x51251, offset: 0x68815, size: 0x8, addend: 0x0, symName: __ZNSt3__128__exception_guard_exceptionsINS_29_AllocatorDestroyRangeReverseINS_9allocatorI5CTxInEENS_16reverse_iteratorIPS3_EEEEED2B7v160006Ev, symObjAddr: 0x13310, symBinAddr: 0x100015B90, symSize: 0x40 }
  - { offsetInCU: 0x5127B, offset: 0x6883F, size: 0x8, addend: 0x0, symName: __ZNKSt3__129_AllocatorDestroyRangeReverseINS_9allocatorI5CTxInEENS_16reverse_iteratorIPS2_EEEclB7v160006Ev, symObjAddr: 0x13350, symBinAddr: 0x100015BD0, symSize: 0xF0 }
  - { offsetInCU: 0x512A2, offset: 0x68866, size: 0x8, addend: 0x0, symName: __ZNSt3__116reverse_iteratorINS0_IP5CTxInEEEC1B7v160006ES3_, symObjAddr: 0x134B0, symBinAddr: 0x100015D30, symSize: 0x30 }
  - { offsetInCU: 0x512DA, offset: 0x6889E, size: 0x8, addend: 0x0, symName: __ZNSt3__116allocator_traitsINS_9allocatorI5CTxInEEE7destroyB7v160006IS2_vvEEvRS3_PT_, symObjAddr: 0x13530, symBinAddr: 0x100015DB0, symSize: 0x20 }
  - { offsetInCU: 0x51314, offset: 0x688D8, size: 0x8, addend: 0x0, symName: __ZNSt3__116reverse_iteratorINS0_IP5CTxInEEEppB7v160006Ev, symObjAddr: 0x13570, symBinAddr: 0x100015DF0, symSize: 0x30 }
  - { offsetInCU: 0x5133A, offset: 0x688FE, size: 0x8, addend: 0x0, symName: __ZNKSt3__116reverse_iteratorINS0_IP5CTxInEEE4baseB7v160006Ev, symObjAddr: 0x135A0, symBinAddr: 0x100015E20, symSize: 0x20 }
  - { offsetInCU: 0x51365, offset: 0x68929, size: 0x8, addend: 0x0, symName: __ZNSt3__119__to_address_helperINS_16reverse_iteratorINS1_IP5CTxInEEEEvE6__callB7v160006ERKS5_, symObjAddr: 0x13600, symBinAddr: 0x100015E80, symSize: 0x40 }
  - { offsetInCU: 0x51387, offset: 0x6894B, size: 0x8, addend: 0x0, symName: __ZNKSt3__116reverse_iteratorINS0_IP5CTxInEEEptB7v160006Ev, symObjAddr: 0x13640, symBinAddr: 0x100015EC0, symSize: 0x50 }
  - { offsetInCU: 0x513AD, offset: 0x68971, size: 0x8, addend: 0x0, symName: __ZNSt3__116reverse_iteratorIP5CTxInEpLB7v160006El, symObjAddr: 0x13770, symBinAddr: 0x100015FF0, symSize: 0x30 }
  - { offsetInCU: 0x513E1, offset: 0x689A5, size: 0x8, addend: 0x0, symName: __ZNSt3__116reverse_iteratorIP5CTxInEmmB7v160006Ev, symObjAddr: 0x137A0, symBinAddr: 0x100016020, symSize: 0x20 }
  - { offsetInCU: 0x51407, offset: 0x689CB, size: 0x8, addend: 0x0, symName: __ZNSt3__116reverse_iteratorINS0_IP5CTxInEEEC2B7v160006ES3_, symObjAddr: 0x137C0, symBinAddr: 0x100016040, symSize: 0x40 }
  - { offsetInCU: 0x5143F, offset: 0x68A03, size: 0x8, addend: 0x0, symName: __ZNSt3__116reverse_iteratorIP5CTxInEC2B7v160006ES2_, symObjAddr: 0x13800, symBinAddr: 0x100016080, symSize: 0x30 }
  - { offsetInCU: 0x51477, offset: 0x68A3B, size: 0x8, addend: 0x0, symName: __ZNSt3__114__split_bufferI5CTxInRNS_9allocatorIS1_EEED2Ev, symObjAddr: 0x13830, symBinAddr: 0x1000160B0, symSize: 0x70 }
  - { offsetInCU: 0x514A3, offset: 0x68A67, size: 0x8, addend: 0x0, symName: __ZNSt3__114__split_bufferI5CTxInRNS_9allocatorIS1_EEE5clearB7v160006Ev, symObjAddr: 0x138A0, symBinAddr: 0x100016120, symSize: 0x20 }
  - { offsetInCU: 0x514C9, offset: 0x68A8D, size: 0x8, addend: 0x0, symName: __ZNSt3__116allocator_traitsINS_9allocatorI5CTxInEEE10deallocateB7v160006ERS3_PS2_m, symObjAddr: 0x138C0, symBinAddr: 0x100016140, symSize: 0x30 }
  - { offsetInCU: 0x5150A, offset: 0x68ACE, size: 0x8, addend: 0x0, symName: __ZNKSt3__114__split_bufferI5CTxInRNS_9allocatorIS1_EEE8capacityB7v160006Ev, symObjAddr: 0x138F0, symBinAddr: 0x100016170, symSize: 0x40 }
  - { offsetInCU: 0x51530, offset: 0x68AF4, size: 0x8, addend: 0x0, symName: __ZNSt3__114__split_bufferI5CTxInRNS_9allocatorIS1_EEE17__destruct_at_endB7v160006EPS1_, symObjAddr: 0x13930, symBinAddr: 0x1000161B0, symSize: 0x30 }
  - { offsetInCU: 0x51564, offset: 0x68B28, size: 0x8, addend: 0x0, symName: __ZNSt3__114__split_bufferI5CTxInRNS_9allocatorIS1_EEE17__destruct_at_endB7v160006EPS1_NS_17integral_constantIbLb0EEE, symObjAddr: 0x13960, symBinAddr: 0x1000161E0, symSize: 0x80 }
  - { offsetInCU: 0x515A5, offset: 0x68B69, size: 0x8, addend: 0x0, symName: __ZNSt3__19allocatorI5CTxInE10deallocateB7v160006EPS1_m, symObjAddr: 0x139E0, symBinAddr: 0x100016260, symSize: 0x40 }
  - { offsetInCU: 0x515E7, offset: 0x68BAB, size: 0x8, addend: 0x0, symName: __ZNKSt3__114__split_bufferI5CTxInRNS_9allocatorIS1_EEE9__end_capB7v160006Ev, symObjAddr: 0x13A20, symBinAddr: 0x1000162A0, symSize: 0x20 }
  - { offsetInCU: 0x5160D, offset: 0x68BD1, size: 0x8, addend: 0x0, symName: __ZNKSt3__117__compressed_pairIP5CTxInRNS_9allocatorIS1_EEE5firstB7v160006Ev, symObjAddr: 0x13A40, symBinAddr: 0x1000162C0, symSize: 0x20 }
  - { offsetInCU: 0x51633, offset: 0x68BF7, size: 0x8, addend: 0x0, symName: __ZNSt3__16vectorI15CQuantumKeyPairNS_9allocatorIS1_EEE9__end_capB7v160006Ev, symObjAddr: 0x13A60, symBinAddr: 0x1000162E0, symSize: 0x20 }
  - { offsetInCU: 0x51659, offset: 0x68C1D, size: 0x8, addend: 0x0, symName: __ZNSt3__16vectorI15CQuantumKeyPairNS_9allocatorIS1_EEE22__construct_one_at_endB7v160006IJRKS1_EEEvDpOT_, symObjAddr: 0x13A80, symBinAddr: 0x100016300, symSize: 0x90 }
  - { offsetInCU: 0x516A8, offset: 0x68C6C, size: 0x8, addend: 0x0, symName: __ZNSt3__16vectorI15CQuantumKeyPairNS_9allocatorIS1_EEE21__push_back_slow_pathIRKS1_EEvOT_, symObjAddr: 0x13B10, symBinAddr: 0x100016390, symSize: 0xD0 }
  - { offsetInCU: 0x51706, offset: 0x68CCA, size: 0x8, addend: 0x0, symName: __ZNSt3__117__compressed_pairIP15CQuantumKeyPairNS_9allocatorIS1_EEE5firstB7v160006Ev, symObjAddr: 0x13BE0, symBinAddr: 0x100016460, symSize: 0x20 }
  - { offsetInCU: 0x5172C, offset: 0x68CF0, size: 0x8, addend: 0x0, symName: __ZNSt3__122__compressed_pair_elemIP15CQuantumKeyPairLi0ELb0EE5__getB7v160006Ev, symObjAddr: 0x13C00, symBinAddr: 0x100016480, symSize: 0x10 }
  - { offsetInCU: 0x5176B, offset: 0x68D2F, size: 0x8, addend: 0x0, symName: __ZNSt3__16vectorI15CQuantumKeyPairNS_9allocatorIS1_EEE21_ConstructTransactionC1B7v160006ERS4_m, symObjAddr: 0x13C10, symBinAddr: 0x100016490, symSize: 0x30 }
  - { offsetInCU: 0x517B3, offset: 0x68D77, size: 0x8, addend: 0x0, symName: __ZNSt3__116allocator_traitsINS_9allocatorI15CQuantumKeyPairEEE9constructB7v160006IS2_JRKS2_EvvEEvRS3_PT_DpOT0_, symObjAddr: 0x13C40, symBinAddr: 0x1000164C0, symSize: 0x30 }
  - { offsetInCU: 0x51807, offset: 0x68DCB, size: 0x8, addend: 0x0, symName: __ZNSt3__16vectorI15CQuantumKeyPairNS_9allocatorIS1_EEE7__allocB7v160006Ev, symObjAddr: 0x13C70, symBinAddr: 0x1000164F0, symSize: 0x20 }
  - { offsetInCU: 0x5182D, offset: 0x68DF1, size: 0x8, addend: 0x0, symName: __ZNSt3__16vectorI15CQuantumKeyPairNS_9allocatorIS1_EEE21_ConstructTransactionD1B7v160006Ev, symObjAddr: 0x13CA0, symBinAddr: 0x100016520, symSize: 0x20 }
  - { offsetInCU: 0x51857, offset: 0x68E1B, size: 0x8, addend: 0x0, symName: __ZNSt3__16vectorI15CQuantumKeyPairNS_9allocatorIS1_EEE21_ConstructTransactionC2B7v160006ERS4_m, symObjAddr: 0x13CC0, symBinAddr: 0x100016540, symSize: 0x40 }
  - { offsetInCU: 0x5189F, offset: 0x68E63, size: 0x8, addend: 0x0, symName: __ZNSt3__117__compressed_pairIP15CQuantumKeyPairNS_9allocatorIS1_EEE6secondB7v160006Ev, symObjAddr: 0x13D40, symBinAddr: 0x1000165C0, symSize: 0x20 }
  - { offsetInCU: 0x518C5, offset: 0x68E89, size: 0x8, addend: 0x0, symName: __ZNSt3__122__compressed_pair_elemINS_9allocatorI15CQuantumKeyPairEELi1ELb1EE5__getB7v160006Ev, symObjAddr: 0x13D60, symBinAddr: 0x1000165E0, symSize: 0x10 }
  - { offsetInCU: 0x518EB, offset: 0x68EAF, size: 0x8, addend: 0x0, symName: __ZNSt3__16vectorI15CQuantumKeyPairNS_9allocatorIS1_EEE21_ConstructTransactionD2B7v160006Ev, symObjAddr: 0x13D70, symBinAddr: 0x1000165F0, symSize: 0x20 }
  - { offsetInCU: 0x51915, offset: 0x68ED9, size: 0x8, addend: 0x0, symName: __ZNKSt3__16vectorI15CQuantumKeyPairNS_9allocatorIS1_EEE11__recommendB7v160006Em, symObjAddr: 0x13D90, symBinAddr: 0x100016610, symSize: 0xA0 }
  - { offsetInCU: 0x5196A, offset: 0x68F2E, size: 0x8, addend: 0x0, symName: __ZNSt3__114__split_bufferI15CQuantumKeyPairRNS_9allocatorIS1_EEEC1EmmS4_, symObjAddr: 0x13E30, symBinAddr: 0x1000166B0, symSize: 0x40 }
  - { offsetInCU: 0x519C0, offset: 0x68F84, size: 0x8, addend: 0x0, symName: __ZNSt3__114__split_bufferI15CQuantumKeyPairRNS_9allocatorIS1_EEED1Ev, symObjAddr: 0x13FA0, symBinAddr: 0x100016820, symSize: 0x20 }
  - { offsetInCU: 0x519EC, offset: 0x68FB0, size: 0x8, addend: 0x0, symName: __ZNKSt3__16vectorI15CQuantumKeyPairNS_9allocatorIS1_EEE8max_sizeEv, symObjAddr: 0x13FC0, symBinAddr: 0x100016840, symSize: 0x60 }
  - { offsetInCU: 0x51A14, offset: 0x68FD8, size: 0x8, addend: 0x0, symName: __ZNKSt3__16vectorI15CQuantumKeyPairNS_9allocatorIS1_EEE20__throw_length_errorB7v160006Ev, symObjAddr: 0x14020, symBinAddr: 0x1000168A0, symSize: 0x20 }
  - { offsetInCU: 0x51A3A, offset: 0x68FFE, size: 0x8, addend: 0x0, symName: __ZNKSt3__16vectorI15CQuantumKeyPairNS_9allocatorIS1_EEE8capacityB7v160006Ev, symObjAddr: 0x14040, symBinAddr: 0x1000168C0, symSize: 0x40 }
  - { offsetInCU: 0x51A6A, offset: 0x6902E, size: 0x8, addend: 0x0, symName: __ZNSt3__116allocator_traitsINS_9allocatorI15CQuantumKeyPairEEE8max_sizeB7v160006IS3_vvEEmRKS3_, symObjAddr: 0x14080, symBinAddr: 0x100016900, symSize: 0x30 }
  - { offsetInCU: 0x51A95, offset: 0x69059, size: 0x8, addend: 0x0, symName: __ZNKSt3__16vectorI15CQuantumKeyPairNS_9allocatorIS1_EEE7__allocB7v160006Ev, symObjAddr: 0x140B0, symBinAddr: 0x100016930, symSize: 0x20 }
  - { offsetInCU: 0x51ABB, offset: 0x6907F, size: 0x8, addend: 0x0, symName: __ZNKSt3__117__compressed_pairIP15CQuantumKeyPairNS_9allocatorIS1_EEE6secondB7v160006Ev, symObjAddr: 0x140D0, symBinAddr: 0x100016950, symSize: 0x20 }
  - { offsetInCU: 0x51AE1, offset: 0x690A5, size: 0x8, addend: 0x0, symName: __ZNKSt3__122__compressed_pair_elemINS_9allocatorI15CQuantumKeyPairEELi1ELb1EE5__getB7v160006Ev, symObjAddr: 0x140F0, symBinAddr: 0x100016970, symSize: 0x10 }
  - { offsetInCU: 0x51B07, offset: 0x690CB, size: 0x8, addend: 0x0, symName: __ZNKSt3__16vectorI15CQuantumKeyPairNS_9allocatorIS1_EEE9__end_capB7v160006Ev, symObjAddr: 0x14100, symBinAddr: 0x100016980, symSize: 0x20 }
  - { offsetInCU: 0x51B2D, offset: 0x690F1, size: 0x8, addend: 0x0, symName: __ZNKSt3__117__compressed_pairIP15CQuantumKeyPairNS_9allocatorIS1_EEE5firstB7v160006Ev, symObjAddr: 0x14120, symBinAddr: 0x1000169A0, symSize: 0x20 }
  - { offsetInCU: 0x51B53, offset: 0x69117, size: 0x8, addend: 0x0, symName: __ZNKSt3__122__compressed_pair_elemIP15CQuantumKeyPairLi0ELb0EE5__getB7v160006Ev, symObjAddr: 0x14140, symBinAddr: 0x1000169C0, symSize: 0x10 }
  - { offsetInCU: 0x51B79, offset: 0x6913D, size: 0x8, addend: 0x0, symName: __ZNSt3__114__split_bufferI15CQuantumKeyPairRNS_9allocatorIS1_EEEC2EmmS4_, symObjAddr: 0x14150, symBinAddr: 0x1000169D0, symSize: 0xC0 }
  - { offsetInCU: 0x51BEC, offset: 0x691B0, size: 0x8, addend: 0x0, symName: __ZNSt3__117__compressed_pairIP15CQuantumKeyPairRNS_9allocatorIS1_EEEC1B7v160006IDnS5_EEOT_OT0_, symObjAddr: 0x14210, symBinAddr: 0x100016A90, symSize: 0x30 }
  - { offsetInCU: 0x51C44, offset: 0x69208, size: 0x8, addend: 0x0, symName: __ZNSt3__114__split_bufferI15CQuantumKeyPairRNS_9allocatorIS1_EEE7__allocB7v160006Ev, symObjAddr: 0x14280, symBinAddr: 0x100016B00, symSize: 0x20 }
  - { offsetInCU: 0x51C6A, offset: 0x6922E, size: 0x8, addend: 0x0, symName: __ZNSt3__114__split_bufferI15CQuantumKeyPairRNS_9allocatorIS1_EEE9__end_capB7v160006Ev, symObjAddr: 0x142A0, symBinAddr: 0x100016B20, symSize: 0x20 }
  - { offsetInCU: 0x51C90, offset: 0x69254, size: 0x8, addend: 0x0, symName: __ZNSt3__117__compressed_pairIP15CQuantumKeyPairRNS_9allocatorIS1_EEEC2B7v160006IDnS5_EEOT_OT0_, symObjAddr: 0x142C0, symBinAddr: 0x100016B40, symSize: 0x40 }
  - { offsetInCU: 0x51CE8, offset: 0x692AC, size: 0x8, addend: 0x0, symName: __ZNSt3__122__compressed_pair_elemIP15CQuantumKeyPairLi0ELb0EEC2B7v160006IDnvEEOT_, symObjAddr: 0x14300, symBinAddr: 0x100016B80, symSize: 0x20 }
  - { offsetInCU: 0x51D2A, offset: 0x692EE, size: 0x8, addend: 0x0, symName: __ZNSt3__122__compressed_pair_elemIRNS_9allocatorI15CQuantumKeyPairEELi1ELb0EEC2B7v160006IS4_vEEOT_, symObjAddr: 0x14320, symBinAddr: 0x100016BA0, symSize: 0x20 }
  - { offsetInCU: 0x51D6C, offset: 0x69330, size: 0x8, addend: 0x0, symName: __ZNSt3__19allocatorI15CQuantumKeyPairE8allocateB7v160006Em, symObjAddr: 0x14340, symBinAddr: 0x100016BC0, symSize: 0x50 }
  - { offsetInCU: 0x51DA0, offset: 0x69364, size: 0x8, addend: 0x0, symName: __ZNSt3__117__compressed_pairIP15CQuantumKeyPairRNS_9allocatorIS1_EEE6secondB7v160006Ev, symObjAddr: 0x14390, symBinAddr: 0x100016C10, symSize: 0x20 }
  - { offsetInCU: 0x51DC6, offset: 0x6938A, size: 0x8, addend: 0x0, symName: __ZNSt3__122__compressed_pair_elemIRNS_9allocatorI15CQuantumKeyPairEELi1ELb0EE5__getB7v160006Ev, symObjAddr: 0x143B0, symBinAddr: 0x100016C30, symSize: 0x20 }
  - { offsetInCU: 0x51DEC, offset: 0x693B0, size: 0x8, addend: 0x0, symName: __ZNSt3__117__compressed_pairIP15CQuantumKeyPairRNS_9allocatorIS1_EEE5firstB7v160006Ev, symObjAddr: 0x143D0, symBinAddr: 0x100016C50, symSize: 0x20 }
  - { offsetInCU: 0x51E12, offset: 0x693D6, size: 0x8, addend: 0x0, symName: __ZNKSt3__16vectorI15CQuantumKeyPairNS_9allocatorIS1_EEE17__annotate_deleteB7v160006Ev, symObjAddr: 0x143F0, symBinAddr: 0x100016C70, symSize: 0xB0 }
  - { offsetInCU: 0x51E38, offset: 0x693FC, size: 0x8, addend: 0x0, symName: __ZNSt3__116reverse_iteratorIP15CQuantumKeyPairEC1B7v160006ES2_, symObjAddr: 0x14620, symBinAddr: 0x100016EA0, symSize: 0x30 }
  - { offsetInCU: 0x51E70, offset: 0x69434, size: 0x8, addend: 0x0, symName: __ZNKSt3__116reverse_iteratorIP15CQuantumKeyPairE4baseB7v160006Ev, symObjAddr: 0x14650, symBinAddr: 0x100016ED0, symSize: 0x20 }
  - { offsetInCU: 0x51E96, offset: 0x6945A, size: 0x8, addend: 0x0, symName: __ZNKSt3__16vectorI15CQuantumKeyPairNS_9allocatorIS1_EEE14__annotate_newB7v160006Em, symObjAddr: 0x146B0, symBinAddr: 0x100016F30, symSize: 0xA0 }
  - { offsetInCU: 0x51ECB, offset: 0x6948F, size: 0x8, addend: 0x0, symName: __ZNKSt3__16vectorI15CQuantumKeyPairNS_9allocatorIS1_EEE31__annotate_contiguous_containerB7v160006EPKvS6_S6_S6_, symObjAddr: 0x14760, symBinAddr: 0x100016FE0, symSize: 0x20 }
  - { offsetInCU: 0x51F21, offset: 0x694E5, size: 0x8, addend: 0x0, symName: __ZNKSt3__16vectorI15CQuantumKeyPairNS_9allocatorIS1_EEE4dataB7v160006Ev, symObjAddr: 0x14780, symBinAddr: 0x100017000, symSize: 0x20 }
  - { offsetInCU: 0x51F47, offset: 0x6950B, size: 0x8, addend: 0x0, symName: __ZNSt3__129_AllocatorDestroyRangeReverseINS_9allocatorI15CQuantumKeyPairEENS_16reverse_iteratorIPS2_EEEC1B7v160006ERS3_RS6_S9_, symObjAddr: 0x14800, symBinAddr: 0x100017080, symSize: 0x40 }
  - { offsetInCU: 0x51F9E, offset: 0x69562, size: 0x8, addend: 0x0, symName: __ZNSt3__116allocator_traitsINS_9allocatorI15CQuantumKeyPairEEE9constructB7v160006IS2_JS2_EvvEEvRS3_PT_DpOT0_, symObjAddr: 0x14880, symBinAddr: 0x100017100, symSize: 0x30 }
  - { offsetInCU: 0x51FF2, offset: 0x695B6, size: 0x8, addend: 0x0, symName: __ZNKSt3__116reverse_iteratorIP15CQuantumKeyPairEdeB7v160006Ev, symObjAddr: 0x148D0, symBinAddr: 0x100017150, symSize: 0x30 }
  - { offsetInCU: 0x52027, offset: 0x695EB, size: 0x8, addend: 0x0, symName: __ZNSt3__116reverse_iteratorIP15CQuantumKeyPairEppB7v160006Ev, symObjAddr: 0x14900, symBinAddr: 0x100017180, symSize: 0x20 }
  - { offsetInCU: 0x5204D, offset: 0x69611, size: 0x8, addend: 0x0, symName: __ZNSt3__128__exception_guard_exceptionsINS_29_AllocatorDestroyRangeReverseINS_9allocatorI15CQuantumKeyPairEENS_16reverse_iteratorIPS3_EEEEE10__completeB7v160006Ev, symObjAddr: 0x14920, symBinAddr: 0x1000171A0, symSize: 0x20 }
  - { offsetInCU: 0x52073, offset: 0x69637, size: 0x8, addend: 0x0, symName: __ZNSt3__128__exception_guard_exceptionsINS_29_AllocatorDestroyRangeReverseINS_9allocatorI15CQuantumKeyPairEENS_16reverse_iteratorIPS3_EEEEED1B7v160006Ev, symObjAddr: 0x14940, symBinAddr: 0x1000171C0, symSize: 0x20 }
  - { offsetInCU: 0x5209D, offset: 0x69661, size: 0x8, addend: 0x0, symName: __ZNSt3__128__exception_guard_exceptionsINS_29_AllocatorDestroyRangeReverseINS_9allocatorI15CQuantumKeyPairEENS_16reverse_iteratorIPS3_EEEEEC1B7v160006ES8_, symObjAddr: 0x14960, symBinAddr: 0x1000171E0, symSize: 0x40 }
  - { offsetInCU: 0x520D5, offset: 0x69699, size: 0x8, addend: 0x0, symName: __ZNSt3__128__exception_guard_exceptionsINS_29_AllocatorDestroyRangeReverseINS_9allocatorI15CQuantumKeyPairEENS_16reverse_iteratorIPS3_EEEEEC2B7v160006ES8_, symObjAddr: 0x149A0, symBinAddr: 0x100017220, symSize: 0x30 }
  - { offsetInCU: 0x5210D, offset: 0x696D1, size: 0x8, addend: 0x0, symName: __ZNSt3__129_AllocatorDestroyRangeReverseINS_9allocatorI15CQuantumKeyPairEENS_16reverse_iteratorIPS2_EEEC2B7v160006ERS3_RS6_S9_, symObjAddr: 0x149D0, symBinAddr: 0x100017250, symSize: 0x40 }
  - { offsetInCU: 0x52169, offset: 0x6972D, size: 0x8, addend: 0x0, symName: __ZNSt3__119__to_address_helperINS_16reverse_iteratorIP15CQuantumKeyPairEEvE6__callB7v160006ERKS4_, symObjAddr: 0x14A50, symBinAddr: 0x1000172D0, symSize: 0x40 }
  - { offsetInCU: 0x5218B, offset: 0x6974F, size: 0x8, addend: 0x0, symName: __ZNKSt3__116reverse_iteratorIP15CQuantumKeyPairEptB7v160006Ev, symObjAddr: 0x14A90, symBinAddr: 0x100017310, symSize: 0x30 }
  - { offsetInCU: 0x521B1, offset: 0x69775, size: 0x8, addend: 0x0, symName: __ZNSt3__128__exception_guard_exceptionsINS_29_AllocatorDestroyRangeReverseINS_9allocatorI15CQuantumKeyPairEENS_16reverse_iteratorIPS3_EEEEED2B7v160006Ev, symObjAddr: 0x14B80, symBinAddr: 0x100017400, symSize: 0x40 }
  - { offsetInCU: 0x521DB, offset: 0x6979F, size: 0x8, addend: 0x0, symName: __ZNKSt3__129_AllocatorDestroyRangeReverseINS_9allocatorI15CQuantumKeyPairEENS_16reverse_iteratorIPS2_EEEclB7v160006Ev, symObjAddr: 0x14BC0, symBinAddr: 0x100017440, symSize: 0xF0 }
  - { offsetInCU: 0x52202, offset: 0x697C6, size: 0x8, addend: 0x0, symName: __ZNSt3__116reverse_iteratorINS0_IP15CQuantumKeyPairEEEC1B7v160006ES3_, symObjAddr: 0x14D20, symBinAddr: 0x1000175A0, symSize: 0x30 }
  - { offsetInCU: 0x5223A, offset: 0x697FE, size: 0x8, addend: 0x0, symName: __ZNSt3__116allocator_traitsINS_9allocatorI15CQuantumKeyPairEEE7destroyB7v160006IS2_vvEEvRS3_PT_, symObjAddr: 0x14DA0, symBinAddr: 0x100017620, symSize: 0x20 }
  - { offsetInCU: 0x52274, offset: 0x69838, size: 0x8, addend: 0x0, symName: __ZNSt3__116reverse_iteratorINS0_IP15CQuantumKeyPairEEEppB7v160006Ev, symObjAddr: 0x14DE0, symBinAddr: 0x100017660, symSize: 0x30 }
  - { offsetInCU: 0x5229A, offset: 0x6985E, size: 0x8, addend: 0x0, symName: __ZNKSt3__116reverse_iteratorINS0_IP15CQuantumKeyPairEEE4baseB7v160006Ev, symObjAddr: 0x14E10, symBinAddr: 0x100017690, symSize: 0x20 }
  - { offsetInCU: 0x522C5, offset: 0x69889, size: 0x8, addend: 0x0, symName: __ZNSt3__119__to_address_helperINS_16reverse_iteratorINS1_IP15CQuantumKeyPairEEEEvE6__callB7v160006ERKS5_, symObjAddr: 0x14E70, symBinAddr: 0x1000176F0, symSize: 0x40 }
  - { offsetInCU: 0x522E7, offset: 0x698AB, size: 0x8, addend: 0x0, symName: __ZNKSt3__116reverse_iteratorINS0_IP15CQuantumKeyPairEEEptB7v160006Ev, symObjAddr: 0x14EB0, symBinAddr: 0x100017730, symSize: 0x50 }
  - { offsetInCU: 0x5230D, offset: 0x698D1, size: 0x8, addend: 0x0, symName: __ZNSt3__116reverse_iteratorIP15CQuantumKeyPairEpLB7v160006El, symObjAddr: 0x14FE0, symBinAddr: 0x100017860, symSize: 0x30 }
  - { offsetInCU: 0x52341, offset: 0x69905, size: 0x8, addend: 0x0, symName: __ZNSt3__116reverse_iteratorIP15CQuantumKeyPairEmmB7v160006Ev, symObjAddr: 0x15010, symBinAddr: 0x100017890, symSize: 0x20 }
  - { offsetInCU: 0x52367, offset: 0x6992B, size: 0x8, addend: 0x0, symName: __ZNSt3__116reverse_iteratorINS0_IP15CQuantumKeyPairEEEC2B7v160006ES3_, symObjAddr: 0x15030, symBinAddr: 0x1000178B0, symSize: 0x40 }
  - { offsetInCU: 0x5239F, offset: 0x69963, size: 0x8, addend: 0x0, symName: __ZNSt3__116reverse_iteratorIP15CQuantumKeyPairEC2B7v160006ES2_, symObjAddr: 0x15070, symBinAddr: 0x1000178F0, symSize: 0x30 }
  - { offsetInCU: 0x523D7, offset: 0x6999B, size: 0x8, addend: 0x0, symName: __ZNSt3__114__split_bufferI15CQuantumKeyPairRNS_9allocatorIS1_EEED2Ev, symObjAddr: 0x150A0, symBinAddr: 0x100017920, symSize: 0x70 }
  - { offsetInCU: 0x52403, offset: 0x699C7, size: 0x8, addend: 0x0, symName: __ZNSt3__114__split_bufferI15CQuantumKeyPairRNS_9allocatorIS1_EEE5clearB7v160006Ev, symObjAddr: 0x15110, symBinAddr: 0x100017990, symSize: 0x20 }
  - { offsetInCU: 0x52429, offset: 0x699ED, size: 0x8, addend: 0x0, symName: __ZNSt3__116allocator_traitsINS_9allocatorI15CQuantumKeyPairEEE10deallocateB7v160006ERS3_PS2_m, symObjAddr: 0x15130, symBinAddr: 0x1000179B0, symSize: 0x30 }
  - { offsetInCU: 0x5246A, offset: 0x69A2E, size: 0x8, addend: 0x0, symName: __ZNKSt3__114__split_bufferI15CQuantumKeyPairRNS_9allocatorIS1_EEE8capacityB7v160006Ev, symObjAddr: 0x15160, symBinAddr: 0x1000179E0, symSize: 0x40 }
  - { offsetInCU: 0x52490, offset: 0x69A54, size: 0x8, addend: 0x0, symName: __ZNSt3__114__split_bufferI15CQuantumKeyPairRNS_9allocatorIS1_EEE17__destruct_at_endB7v160006EPS1_, symObjAddr: 0x151A0, symBinAddr: 0x100017A20, symSize: 0x30 }
  - { offsetInCU: 0x524C4, offset: 0x69A88, size: 0x8, addend: 0x0, symName: __ZNSt3__114__split_bufferI15CQuantumKeyPairRNS_9allocatorIS1_EEE17__destruct_at_endB7v160006EPS1_NS_17integral_constantIbLb0EEE, symObjAddr: 0x151D0, symBinAddr: 0x100017A50, symSize: 0x80 }
  - { offsetInCU: 0x52505, offset: 0x69AC9, size: 0x8, addend: 0x0, symName: __ZNSt3__19allocatorI15CQuantumKeyPairE10deallocateB7v160006EPS1_m, symObjAddr: 0x15250, symBinAddr: 0x100017AD0, symSize: 0x40 }
  - { offsetInCU: 0x52547, offset: 0x69B0B, size: 0x8, addend: 0x0, symName: __ZNKSt3__114__split_bufferI15CQuantumKeyPairRNS_9allocatorIS1_EEE9__end_capB7v160006Ev, symObjAddr: 0x15290, symBinAddr: 0x100017B10, symSize: 0x20 }
  - { offsetInCU: 0x5256D, offset: 0x69B31, size: 0x8, addend: 0x0, symName: __ZNKSt3__117__compressed_pairIP15CQuantumKeyPairRNS_9allocatorIS1_EEE5firstB7v160006Ev, symObjAddr: 0x152B0, symBinAddr: 0x100017B30, symSize: 0x20 }
  - { offsetInCU: 0x52593, offset: 0x69B57, size: 0x8, addend: 0x0, symName: __ZNSt3__16vectorIxNS_9allocatorIxEEE9__end_capB7v160006Ev, symObjAddr: 0x152D0, symBinAddr: 0x100017B50, symSize: 0x20 }
  - { offsetInCU: 0x525B9, offset: 0x69B7D, size: 0x8, addend: 0x0, symName: __ZNSt3__16vectorIxNS_9allocatorIxEEE22__construct_one_at_endB7v160006IJRKxEEEvDpOT_, symObjAddr: 0x152F0, symBinAddr: 0x100017B70, symSize: 0x90 }
  - { offsetInCU: 0x52608, offset: 0x69BCC, size: 0x8, addend: 0x0, symName: __ZNSt3__16vectorIxNS_9allocatorIxEEE21__push_back_slow_pathIRKxEEvOT_, symObjAddr: 0x15380, symBinAddr: 0x100017C00, symSize: 0xD0 }
  - { offsetInCU: 0x52666, offset: 0x69C2A, size: 0x8, addend: 0x0, symName: __ZNSt3__117__compressed_pairIPxNS_9allocatorIxEEE5firstB7v160006Ev, symObjAddr: 0x15450, symBinAddr: 0x100017CD0, symSize: 0x20 }
  - { offsetInCU: 0x5268C, offset: 0x69C50, size: 0x8, addend: 0x0, symName: __ZNSt3__122__compressed_pair_elemIPxLi0ELb0EE5__getB7v160006Ev, symObjAddr: 0x15470, symBinAddr: 0x100017CF0, symSize: 0x10 }
  - { offsetInCU: 0x526CB, offset: 0x69C8F, size: 0x8, addend: 0x0, symName: __ZNSt3__16vectorIxNS_9allocatorIxEEE21_ConstructTransactionC1B7v160006ERS3_m, symObjAddr: 0x15480, symBinAddr: 0x100017D00, symSize: 0x30 }
  - { offsetInCU: 0x52713, offset: 0x69CD7, size: 0x8, addend: 0x0, symName: __ZNSt3__116allocator_traitsINS_9allocatorIxEEE9constructB7v160006IxJRKxEvvEEvRS2_PT_DpOT0_, symObjAddr: 0x154B0, symBinAddr: 0x100017D30, symSize: 0x30 }
  - { offsetInCU: 0x52767, offset: 0x69D2B, size: 0x8, addend: 0x0, symName: __ZNSt3__16vectorIxNS_9allocatorIxEEE7__allocB7v160006Ev, symObjAddr: 0x154E0, symBinAddr: 0x100017D60, symSize: 0x20 }
  - { offsetInCU: 0x5278D, offset: 0x69D51, size: 0x8, addend: 0x0, symName: __ZNSt3__16vectorIxNS_9allocatorIxEEE21_ConstructTransactionD1B7v160006Ev, symObjAddr: 0x15510, symBinAddr: 0x100017D90, symSize: 0x20 }
  - { offsetInCU: 0x527B7, offset: 0x69D7B, size: 0x8, addend: 0x0, symName: __ZNSt3__16vectorIxNS_9allocatorIxEEE21_ConstructTransactionC2B7v160006ERS3_m, symObjAddr: 0x15530, symBinAddr: 0x100017DB0, symSize: 0x40 }
  - { offsetInCU: 0x527FF, offset: 0x69DC3, size: 0x8, addend: 0x0, symName: __ZNSt3__117__compressed_pairIPxNS_9allocatorIxEEE6secondB7v160006Ev, symObjAddr: 0x155A0, symBinAddr: 0x100017E20, symSize: 0x20 }
  - { offsetInCU: 0x52825, offset: 0x69DE9, size: 0x8, addend: 0x0, symName: __ZNSt3__122__compressed_pair_elemINS_9allocatorIxEELi1ELb1EE5__getB7v160006Ev, symObjAddr: 0x155C0, symBinAddr: 0x100017E40, symSize: 0x10 }
  - { offsetInCU: 0x5284B, offset: 0x69E0F, size: 0x8, addend: 0x0, symName: __ZNSt3__16vectorIxNS_9allocatorIxEEE21_ConstructTransactionD2B7v160006Ev, symObjAddr: 0x155D0, symBinAddr: 0x100017E50, symSize: 0x20 }
  - { offsetInCU: 0x52875, offset: 0x69E39, size: 0x8, addend: 0x0, symName: __ZNKSt3__16vectorIxNS_9allocatorIxEEE11__recommendB7v160006Em, symObjAddr: 0x155F0, symBinAddr: 0x100017E70, symSize: 0xA0 }
  - { offsetInCU: 0x528CA, offset: 0x69E8E, size: 0x8, addend: 0x0, symName: __ZNKSt3__16vectorIxNS_9allocatorIxEEE4sizeB7v160006Ev, symObjAddr: 0x15690, symBinAddr: 0x100017F10, symSize: 0x20 }
  - { offsetInCU: 0x528F0, offset: 0x69EB4, size: 0x8, addend: 0x0, symName: __ZNSt3__114__split_bufferIxRNS_9allocatorIxEEEC1EmmS3_, symObjAddr: 0x156B0, symBinAddr: 0x100017F30, symSize: 0x40 }
  - { offsetInCU: 0x52946, offset: 0x69F0A, size: 0x8, addend: 0x0, symName: __ZNSt3__114__split_bufferIxRNS_9allocatorIxEEED1Ev, symObjAddr: 0x15820, symBinAddr: 0x1000180A0, symSize: 0x20 }
  - { offsetInCU: 0x52972, offset: 0x69F36, size: 0x8, addend: 0x0, symName: __ZNKSt3__16vectorIxNS_9allocatorIxEEE8max_sizeEv, symObjAddr: 0x15840, symBinAddr: 0x1000180C0, symSize: 0x60 }
  - { offsetInCU: 0x5299A, offset: 0x69F5E, size: 0x8, addend: 0x0, symName: __ZNKSt3__16vectorIxNS_9allocatorIxEEE20__throw_length_errorB7v160006Ev, symObjAddr: 0x158A0, symBinAddr: 0x100018120, symSize: 0x20 }
  - { offsetInCU: 0x529C0, offset: 0x69F84, size: 0x8, addend: 0x0, symName: __ZNKSt3__16vectorIxNS_9allocatorIxEEE8capacityB7v160006Ev, symObjAddr: 0x158C0, symBinAddr: 0x100018140, symSize: 0x30 }
  - { offsetInCU: 0x529F0, offset: 0x69FB4, size: 0x8, addend: 0x0, symName: __ZNSt3__116allocator_traitsINS_9allocatorIxEEE8max_sizeB7v160006IS2_vvEEmRKS2_, symObjAddr: 0x158F0, symBinAddr: 0x100018170, symSize: 0x20 }
  - { offsetInCU: 0x52A1B, offset: 0x69FDF, size: 0x8, addend: 0x0, symName: __ZNKSt3__16vectorIxNS_9allocatorIxEEE7__allocB7v160006Ev, symObjAddr: 0x15910, symBinAddr: 0x100018190, symSize: 0x20 }
  - { offsetInCU: 0x52A41, offset: 0x6A005, size: 0x8, addend: 0x0, symName: __ZNKSt3__117__compressed_pairIPxNS_9allocatorIxEEE6secondB7v160006Ev, symObjAddr: 0x15930, symBinAddr: 0x1000181B0, symSize: 0x20 }
  - { offsetInCU: 0x52A67, offset: 0x6A02B, size: 0x8, addend: 0x0, symName: __ZNKSt3__122__compressed_pair_elemINS_9allocatorIxEELi1ELb1EE5__getB7v160006Ev, symObjAddr: 0x15950, symBinAddr: 0x1000181D0, symSize: 0x10 }
  - { offsetInCU: 0x52A8D, offset: 0x6A051, size: 0x8, addend: 0x0, symName: __ZNKSt3__16vectorIxNS_9allocatorIxEEE9__end_capB7v160006Ev, symObjAddr: 0x15960, symBinAddr: 0x1000181E0, symSize: 0x20 }
  - { offsetInCU: 0x52AB3, offset: 0x6A077, size: 0x8, addend: 0x0, symName: __ZNKSt3__117__compressed_pairIPxNS_9allocatorIxEEE5firstB7v160006Ev, symObjAddr: 0x15980, symBinAddr: 0x100018200, symSize: 0x20 }
  - { offsetInCU: 0x52AD9, offset: 0x6A09D, size: 0x8, addend: 0x0, symName: __ZNKSt3__122__compressed_pair_elemIPxLi0ELb0EE5__getB7v160006Ev, symObjAddr: 0x159A0, symBinAddr: 0x100018220, symSize: 0x10 }
  - { offsetInCU: 0x52AFF, offset: 0x6A0C3, size: 0x8, addend: 0x0, symName: __ZNSt3__114__split_bufferIxRNS_9allocatorIxEEEC2EmmS3_, symObjAddr: 0x159B0, symBinAddr: 0x100018230, symSize: 0xD0 }
  - { offsetInCU: 0x52B72, offset: 0x6A136, size: 0x8, addend: 0x0, symName: __ZNSt3__117__compressed_pairIPxRNS_9allocatorIxEEEC1B7v160006IDnS4_EEOT_OT0_, symObjAddr: 0x15A80, symBinAddr: 0x100018300, symSize: 0x30 }
  - { offsetInCU: 0x52BCA, offset: 0x6A18E, size: 0x8, addend: 0x0, symName: __ZNSt3__114__split_bufferIxRNS_9allocatorIxEEE7__allocB7v160006Ev, symObjAddr: 0x15AF0, symBinAddr: 0x100018370, symSize: 0x20 }
  - { offsetInCU: 0x52BF0, offset: 0x6A1B4, size: 0x8, addend: 0x0, symName: __ZNSt3__114__split_bufferIxRNS_9allocatorIxEEE9__end_capB7v160006Ev, symObjAddr: 0x15B10, symBinAddr: 0x100018390, symSize: 0x20 }
  - { offsetInCU: 0x52C16, offset: 0x6A1DA, size: 0x8, addend: 0x0, symName: __ZNSt3__117__compressed_pairIPxRNS_9allocatorIxEEEC2B7v160006IDnS4_EEOT_OT0_, symObjAddr: 0x15B30, symBinAddr: 0x1000183B0, symSize: 0x40 }
  - { offsetInCU: 0x52C6E, offset: 0x6A232, size: 0x8, addend: 0x0, symName: __ZNSt3__122__compressed_pair_elemIPxLi0ELb0EEC2B7v160006IDnvEEOT_, symObjAddr: 0x15B70, symBinAddr: 0x1000183F0, symSize: 0x20 }
  - { offsetInCU: 0x52CB0, offset: 0x6A274, size: 0x8, addend: 0x0, symName: __ZNSt3__122__compressed_pair_elemIRNS_9allocatorIxEELi1ELb0EEC2B7v160006IS3_vEEOT_, symObjAddr: 0x15B90, symBinAddr: 0x100018410, symSize: 0x20 }
  - { offsetInCU: 0x52CF2, offset: 0x6A2B6, size: 0x8, addend: 0x0, symName: __ZNSt3__19allocatorIxE8allocateB7v160006Em, symObjAddr: 0x15BB0, symBinAddr: 0x100018430, symSize: 0x50 }
  - { offsetInCU: 0x52D26, offset: 0x6A2EA, size: 0x8, addend: 0x0, symName: __ZNSt3__117__compressed_pairIPxRNS_9allocatorIxEEE6secondB7v160006Ev, symObjAddr: 0x15C00, symBinAddr: 0x100018480, symSize: 0x20 }
  - { offsetInCU: 0x52D4C, offset: 0x6A310, size: 0x8, addend: 0x0, symName: __ZNSt3__122__compressed_pair_elemIRNS_9allocatorIxEELi1ELb0EE5__getB7v160006Ev, symObjAddr: 0x15C20, symBinAddr: 0x1000184A0, symSize: 0x20 }
  - { offsetInCU: 0x52D72, offset: 0x6A336, size: 0x8, addend: 0x0, symName: __ZNSt3__117__compressed_pairIPxRNS_9allocatorIxEEE5firstB7v160006Ev, symObjAddr: 0x15C40, symBinAddr: 0x1000184C0, symSize: 0x20 }
  - { offsetInCU: 0x52D98, offset: 0x6A35C, size: 0x8, addend: 0x0, symName: __ZNKSt3__16vectorIxNS_9allocatorIxEEE17__annotate_deleteB7v160006Ev, symObjAddr: 0x15C60, symBinAddr: 0x1000184E0, symSize: 0xB0 }
  - { offsetInCU: 0x52DBE, offset: 0x6A382, size: 0x8, addend: 0x0, symName: __ZNSt3__116reverse_iteratorIPxEC1B7v160006ES1_, symObjAddr: 0x15D80, symBinAddr: 0x100018600, symSize: 0x30 }
  - { offsetInCU: 0x52DF6, offset: 0x6A3BA, size: 0x8, addend: 0x0, symName: __ZNKSt3__116reverse_iteratorIPxE4baseB7v160006Ev, symObjAddr: 0x15DB0, symBinAddr: 0x100018630, symSize: 0x20 }
  - { offsetInCU: 0x52E1C, offset: 0x6A3E0, size: 0x8, addend: 0x0, symName: __ZNKSt3__16vectorIxNS_9allocatorIxEEE14__annotate_newB7v160006Em, symObjAddr: 0x15E10, symBinAddr: 0x100018690, symSize: 0xB0 }
  - { offsetInCU: 0x52E51, offset: 0x6A415, size: 0x8, addend: 0x0, symName: __ZNKSt3__16vectorIxNS_9allocatorIxEEE31__annotate_contiguous_containerB7v160006EPKvS5_S5_S5_, symObjAddr: 0x15ED0, symBinAddr: 0x100018750, symSize: 0x20 }
  - { offsetInCU: 0x52EA7, offset: 0x6A46B, size: 0x8, addend: 0x0, symName: __ZNKSt3__16vectorIxNS_9allocatorIxEEE4dataB7v160006Ev, symObjAddr: 0x15EF0, symBinAddr: 0x100018770, symSize: 0x20 }
  - { offsetInCU: 0x52EE6, offset: 0x6A4AA, size: 0x8, addend: 0x0, symName: __ZNKSt3__111__move_loopINS_17_ClassicAlgPolicyEEclB7v160006INS_16reverse_iteratorIPxEES6_S6_EENS_4pairIT_T1_EES8_T0_S9_, symObjAddr: 0x16320, symBinAddr: 0x100018BA0, symSize: 0xA0 }
  - { offsetInCU: 0x52F51, offset: 0x6A515, size: 0x8, addend: 0x0, symName: __ZNSt3__119__unwrap_range_implINS_16reverse_iteratorIPxEES3_E8__unwrapB7v160006ES3_S3_, symObjAddr: 0x16500, symBinAddr: 0x100018D80, symSize: 0x90 }
  - { offsetInCU: 0x52F86, offset: 0x6A54A, size: 0x8, addend: 0x0, symName: __ZNSt3__14pairINS_16reverse_iteratorIPxEES3_EC1B7v160006IS3_S3_LPv0EEEOT_OT0_, symObjAddr: 0x16590, symBinAddr: 0x100018E10, symSize: 0x30 }
  - { offsetInCU: 0x52FE4, offset: 0x6A5A8, size: 0x8, addend: 0x0, symName: __ZNSt3__14pairINS_16reverse_iteratorIPxEES3_EC2B7v160006IS3_S3_LPv0EEEOT_OT0_, symObjAddr: 0x165C0, symBinAddr: 0x100018E40, symSize: 0x40 }
  - { offsetInCU: 0x53047, offset: 0x6A60B, size: 0x8, addend: 0x0, symName: __ZNSt3__18_IterOpsINS_17_ClassicAlgPolicyEE11__iter_moveB7v160006IRNS_16reverse_iteratorIPxEEEENS_9enable_ifIXsr12is_referenceIDTdeclsr3stdE7declvalIRT_EEEEE5valueEDTclsr3stdE4movedeclsr3stdE7declvalISA_EEEEE4typeEOS9_, symObjAddr: 0x16640, symBinAddr: 0x100018EC0, symSize: 0x20 }
  - { offsetInCU: 0x53072, offset: 0x6A636, size: 0x8, addend: 0x0, symName: __ZNKSt3__116reverse_iteratorIPxEdeB7v160006Ev, symObjAddr: 0x16660, symBinAddr: 0x100018EE0, symSize: 0x30 }
  - { offsetInCU: 0x530A7, offset: 0x6A66B, size: 0x8, addend: 0x0, symName: __ZNSt3__116reverse_iteratorIPxEppB7v160006Ev, symObjAddr: 0x16690, symBinAddr: 0x100018F10, symSize: 0x20 }
  - { offsetInCU: 0x530CD, offset: 0x6A691, size: 0x8, addend: 0x0, symName: __ZNSt3__18_IterOpsINS_17_ClassicAlgPolicyEE25__validate_iter_referenceB7v160006IRNS_16reverse_iteratorIPxEEEEvv, symObjAddr: 0x166B0, symBinAddr: 0x100018F30, symSize: 0x10 }
  - { offsetInCU: 0x530EA, offset: 0x6A6AE, size: 0x8, addend: 0x0, symName: __ZNSt3__118__unwrap_iter_implINS_16reverse_iteratorIPxEELb0EE8__unwrapB7v160006ES3_, symObjAddr: 0x166C0, symBinAddr: 0x100018F40, symSize: 0x20 }
  - { offsetInCU: 0x5310C, offset: 0x6A6D0, size: 0x8, addend: 0x0, symName: __ZNSt3__119__unwrap_range_implINS_16reverse_iteratorIPxEES3_E8__rewrapB7v160006ES3_S3_, symObjAddr: 0x166E0, symBinAddr: 0x100018F60, symSize: 0x60 }
  - { offsetInCU: 0x5313C, offset: 0x6A700, size: 0x8, addend: 0x0, symName: __ZNSt3__118__unwrap_iter_implINS_16reverse_iteratorIPxEELb0EE8__rewrapB7v160006ES3_S3_, symObjAddr: 0x16740, symBinAddr: 0x100018FC0, symSize: 0x30 }
  - { offsetInCU: 0x53169, offset: 0x6A72D, size: 0x8, addend: 0x0, symName: __ZNSt3__116reverse_iteratorIPxEC2B7v160006ES1_, symObjAddr: 0x16770, symBinAddr: 0x100018FF0, symSize: 0x30 }
  - { offsetInCU: 0x531A1, offset: 0x6A765, size: 0x8, addend: 0x0, symName: __ZNSt3__114__split_bufferIxRNS_9allocatorIxEEED2Ev, symObjAddr: 0x167A0, symBinAddr: 0x100019020, symSize: 0x70 }
  - { offsetInCU: 0x531CD, offset: 0x6A791, size: 0x8, addend: 0x0, symName: __ZNSt3__114__split_bufferIxRNS_9allocatorIxEEE5clearB7v160006Ev, symObjAddr: 0x16810, symBinAddr: 0x100019090, symSize: 0x20 }
  - { offsetInCU: 0x531F3, offset: 0x6A7B7, size: 0x8, addend: 0x0, symName: __ZNSt3__116allocator_traitsINS_9allocatorIxEEE10deallocateB7v160006ERS2_Pxm, symObjAddr: 0x16830, symBinAddr: 0x1000190B0, symSize: 0x30 }
  - { offsetInCU: 0x53234, offset: 0x6A7F8, size: 0x8, addend: 0x0, symName: __ZNKSt3__114__split_bufferIxRNS_9allocatorIxEEE8capacityB7v160006Ev, symObjAddr: 0x16860, symBinAddr: 0x1000190E0, symSize: 0x30 }
  - { offsetInCU: 0x5325A, offset: 0x6A81E, size: 0x8, addend: 0x0, symName: __ZNSt3__114__split_bufferIxRNS_9allocatorIxEEE17__destruct_at_endB7v160006EPx, symObjAddr: 0x16890, symBinAddr: 0x100019110, symSize: 0x30 }
  - { offsetInCU: 0x5328E, offset: 0x6A852, size: 0x8, addend: 0x0, symName: __ZNSt3__114__split_bufferIxRNS_9allocatorIxEEE17__destruct_at_endB7v160006EPxNS_17integral_constantIbLb0EEE, symObjAddr: 0x168C0, symBinAddr: 0x100019140, symSize: 0x80 }
  - { offsetInCU: 0x532CF, offset: 0x6A893, size: 0x8, addend: 0x0, symName: __ZNSt3__116allocator_traitsINS_9allocatorIxEEE7destroyB7v160006IxvvEEvRS2_PT_, symObjAddr: 0x16940, symBinAddr: 0x1000191C0, symSize: 0x20 }
  - { offsetInCU: 0x53309, offset: 0x6A8CD, size: 0x8, addend: 0x0, symName: __ZNSt3__19allocatorIxE10deallocateB7v160006EPxm, symObjAddr: 0x16990, symBinAddr: 0x100019210, symSize: 0x40 }
  - { offsetInCU: 0x5334B, offset: 0x6A90F, size: 0x8, addend: 0x0, symName: __ZNKSt3__114__split_bufferIxRNS_9allocatorIxEEE9__end_capB7v160006Ev, symObjAddr: 0x169D0, symBinAddr: 0x100019250, symSize: 0x20 }
  - { offsetInCU: 0x53371, offset: 0x6A935, size: 0x8, addend: 0x0, symName: __ZNKSt3__117__compressed_pairIPxRNS_9allocatorIxEEE5firstB7v160006Ev, symObjAddr: 0x169F0, symBinAddr: 0x100019270, symSize: 0x20 }
  - { offsetInCU: 0x53397, offset: 0x6A95B, size: 0x8, addend: 0x0, symName: __ZNKSt3__112basic_stringIcNS_11char_traitsIcEENS_9allocatorIcEEE4dataB7v160006Ev, symObjAddr: 0x16A10, symBinAddr: 0x100019290, symSize: 0x30 }
  - { offsetInCU: 0x533BD, offset: 0x6A981, size: 0x8, addend: 0x0, symName: __ZNKSt3__112basic_stringIcNS_11char_traitsIcEENS_9allocatorIcEEE13__get_pointerB7v160006Ev, symObjAddr: 0x16A50, symBinAddr: 0x1000192D0, symSize: 0x50 }
  - { offsetInCU: 0x533E3, offset: 0x6A9A7, size: 0x8, addend: 0x0, symName: __ZNKSt3__112basic_stringIcNS_11char_traitsIcEENS_9allocatorIcEEE18__get_long_pointerB7v160006Ev, symObjAddr: 0x16AD0, symBinAddr: 0x100019320, symSize: 0x20 }
  - { offsetInCU: 0x53409, offset: 0x6A9CD, size: 0x8, addend: 0x0, symName: __ZNKSt3__112basic_stringIcNS_11char_traitsIcEENS_9allocatorIcEEE19__get_short_pointerB7v160006Ev, symObjAddr: 0x16AF0, symBinAddr: 0x100019340, symSize: 0x30 }
  - { offsetInCU: 0x5342F, offset: 0x6A9F3, size: 0x8, addend: 0x0, symName: __ZNSt3__114pointer_traitsIPKcE10pointer_toB7v160006ERS1_, symObjAddr: 0x16B50, symBinAddr: 0x100019370, symSize: 0x10 }
  - { offsetInCU: 0x53451, offset: 0x6AA15, size: 0x8, addend: 0x0, symName: __ZN5CTxInD2Ev, symObjAddr: 0x16B60, symBinAddr: 0x100019380, symSize: 0x30 }
  - { offsetInCU: 0x5347D, offset: 0x6AA41, size: 0x8, addend: 0x0, symName: __ZN6CTxOutC2Ev, symObjAddr: 0x16B90, symBinAddr: 0x1000193B0, symSize: 0x60 }
  - { offsetInCU: 0x534A7, offset: 0x6AA6B, size: 0x8, addend: 0x0, symName: __ZN6CTxOut7SetNullEv, symObjAddr: 0x16BF0, symBinAddr: 0x100019410, symSize: 0x30 }
  - { offsetInCU: 0x534CD, offset: 0x6AA91, size: 0x8, addend: 0x0, symName: __ZN7CScript5clearEv, symObjAddr: 0x16C20, symBinAddr: 0x100019440, symSize: 0x30 }
  - { offsetInCU: 0x534F3, offset: 0x6AAB7, size: 0x8, addend: 0x0, symName: __ZN9prevectorILj28EhjiE5clearEv, symObjAddr: 0x16C50, symBinAddr: 0x100019470, symSize: 0x20 }
  - { offsetInCU: 0x53519, offset: 0x6AADD, size: 0x8, addend: 0x0, symName: __ZN9prevectorILj28EhjiE13shrink_to_fitEv, symObjAddr: 0x16C70, symBinAddr: 0x100019490, symSize: 0x30 }
  - { offsetInCU: 0x5353F, offset: 0x6AB03, size: 0x8, addend: 0x0, symName: __ZN9prevectorILj28EhjiE6resizeEj, symObjAddr: 0x16CA0, symBinAddr: 0x1000194C0, symSize: 0xF0 }
  - { offsetInCU: 0x53592, offset: 0x6AB56, size: 0x8, addend: 0x0, symName: __ZN9prevectorILj28EhjiE5eraseENS0_8iteratorES1_, symObjAddr: 0x16D90, symBinAddr: 0x1000195B0, symSize: 0xC0 }
  - { offsetInCU: 0x535F4, offset: 0x6ABB8, size: 0x8, addend: 0x0, symName: __ZN9prevectorILj28EhjiE8iteratorC1EPh, symObjAddr: 0x16E50, symBinAddr: 0x100019670, symSize: 0x30 }
  - { offsetInCU: 0x5362C, offset: 0x6ABF0, size: 0x8, addend: 0x0, symName: __ZN9prevectorILj28EhjiE3endEv, symObjAddr: 0x16E80, symBinAddr: 0x1000196A0, symSize: 0x40 }
  - { offsetInCU: 0x53652, offset: 0x6AC16, size: 0x8, addend: 0x0, symName: __ZNK9prevectorILj28EhjiE8capacityEv, symObjAddr: 0x16EC0, symBinAddr: 0x1000196E0, symSize: 0x50 }
  - { offsetInCU: 0x53678, offset: 0x6AC3C, size: 0x8, addend: 0x0, symName: __ZN9prevectorILj28EhjiE4fillEPhlRKh, symObjAddr: 0x16F10, symBinAddr: 0x100019730, symSize: 0x30 }
  - { offsetInCU: 0x536C8, offset: 0x6AC8C, size: 0x8, addend: 0x0, symName: __ZNK9prevectorILj28EhjiE8iteratordeEv, symObjAddr: 0x16F40, symBinAddr: 0x100019760, symSize: 0x20 }
  - { offsetInCU: 0x536ED, offset: 0x6ACB1, size: 0x8, addend: 0x0, symName: __ZmiN9prevectorILj28EhjiE8iteratorES1_, symObjAddr: 0x16F60, symBinAddr: 0x100019780, symSize: 0x40 }
  - { offsetInCU: 0x53728, offset: 0x6ACEC, size: 0x8, addend: 0x0, symName: __ZN9prevectorILj28EhjiE8iteratorC2EPh, symObjAddr: 0x16FA0, symBinAddr: 0x1000197C0, symSize: 0x20 }
  - { offsetInCU: 0x53760, offset: 0x6AD24, size: 0x8, addend: 0x0, symName: __ZN9prevectorILj28EhjiEaSERKS0_, symObjAddr: 0x17050, symBinAddr: 0x100019870, symSize: 0x70 }
  - { offsetInCU: 0x53794, offset: 0x6AD58, size: 0x8, addend: 0x0, symName: __ZN9prevectorILj28EhjiE6assignINS0_14const_iteratorEEEvT_S3_, symObjAddr: 0x170C0, symBinAddr: 0x1000198E0, symSize: 0xB0 }
  - { offsetInCU: 0x537ED, offset: 0x6ADB1, size: 0x8, addend: 0x0, symName: __ZmiN9prevectorILj28EhjiE14const_iteratorES1_, symObjAddr: 0x17170, symBinAddr: 0x100019990, symSize: 0x40 }
  - { offsetInCU: 0x53828, offset: 0x6ADEC, size: 0x8, addend: 0x0, symName: __ZNSt3__16vectorI6CTxOutNS_9allocatorIS1_EEE9__end_capB7v160006Ev, symObjAddr: 0x171B0, symBinAddr: 0x1000199D0, symSize: 0x20 }
  - { offsetInCU: 0x5384E, offset: 0x6AE12, size: 0x8, addend: 0x0, symName: __ZNSt3__16vectorI6CTxOutNS_9allocatorIS1_EEE22__construct_one_at_endB7v160006IJRKS1_EEEvDpOT_, symObjAddr: 0x171D0, symBinAddr: 0x1000199F0, symSize: 0x90 }
  - { offsetInCU: 0x5389D, offset: 0x6AE61, size: 0x8, addend: 0x0, symName: __ZNSt3__16vectorI6CTxOutNS_9allocatorIS1_EEE21__push_back_slow_pathIRKS1_EEvOT_, symObjAddr: 0x17260, symBinAddr: 0x100019A80, symSize: 0xD0 }
  - { offsetInCU: 0x538FB, offset: 0x6AEBF, size: 0x8, addend: 0x0, symName: __ZNSt3__117__compressed_pairIP6CTxOutNS_9allocatorIS1_EEE5firstB7v160006Ev, symObjAddr: 0x17330, symBinAddr: 0x100019B50, symSize: 0x20 }
  - { offsetInCU: 0x53921, offset: 0x6AEE5, size: 0x8, addend: 0x0, symName: __ZNSt3__122__compressed_pair_elemIP6CTxOutLi0ELb0EE5__getB7v160006Ev, symObjAddr: 0x17350, symBinAddr: 0x100019B70, symSize: 0x10 }
  - { offsetInCU: 0x53960, offset: 0x6AF24, size: 0x8, addend: 0x0, symName: __ZNSt3__16vectorI6CTxOutNS_9allocatorIS1_EEE21_ConstructTransactionC1B7v160006ERS4_m, symObjAddr: 0x17360, symBinAddr: 0x100019B80, symSize: 0x30 }
  - { offsetInCU: 0x539A8, offset: 0x6AF6C, size: 0x8, addend: 0x0, symName: __ZNSt3__116allocator_traitsINS_9allocatorI6CTxOutEEE9constructB7v160006IS2_JRKS2_EvvEEvRS3_PT_DpOT0_, symObjAddr: 0x17390, symBinAddr: 0x100019BB0, symSize: 0x30 }
  - { offsetInCU: 0x539FC, offset: 0x6AFC0, size: 0x8, addend: 0x0, symName: __ZNSt3__16vectorI6CTxOutNS_9allocatorIS1_EEE7__allocB7v160006Ev, symObjAddr: 0x173C0, symBinAddr: 0x100019BE0, symSize: 0x20 }
  - { offsetInCU: 0x53A22, offset: 0x6AFE6, size: 0x8, addend: 0x0, symName: __ZNSt3__16vectorI6CTxOutNS_9allocatorIS1_EEE21_ConstructTransactionD1B7v160006Ev, symObjAddr: 0x173F0, symBinAddr: 0x100019C10, symSize: 0x20 }
  - { offsetInCU: 0x53A4C, offset: 0x6B010, size: 0x8, addend: 0x0, symName: __ZNSt3__16vectorI6CTxOutNS_9allocatorIS1_EEE21_ConstructTransactionC2B7v160006ERS4_m, symObjAddr: 0x17410, symBinAddr: 0x100019C30, symSize: 0x40 }
  - { offsetInCU: 0x53A94, offset: 0x6B058, size: 0x8, addend: 0x0, symName: __ZN6CTxOutC1ERKS_, symObjAddr: 0x17490, symBinAddr: 0x100019CB0, symSize: 0x30 }
  - { offsetInCU: 0x53AC9, offset: 0x6B08D, size: 0x8, addend: 0x0, symName: __ZN6CTxOutC2ERKS_, symObjAddr: 0x174C0, symBinAddr: 0x100019CE0, symSize: 0x40 }
  - { offsetInCU: 0x53AFE, offset: 0x6B0C2, size: 0x8, addend: 0x0, symName: __ZNSt3__117__compressed_pairIP6CTxOutNS_9allocatorIS1_EEE6secondB7v160006Ev, symObjAddr: 0x17500, symBinAddr: 0x100019D20, symSize: 0x20 }
  - { offsetInCU: 0x53B24, offset: 0x6B0E8, size: 0x8, addend: 0x0, symName: __ZNSt3__122__compressed_pair_elemINS_9allocatorI6CTxOutEELi1ELb1EE5__getB7v160006Ev, symObjAddr: 0x17520, symBinAddr: 0x100019D40, symSize: 0x10 }
  - { offsetInCU: 0x53B4A, offset: 0x6B10E, size: 0x8, addend: 0x0, symName: __ZNSt3__16vectorI6CTxOutNS_9allocatorIS1_EEE21_ConstructTransactionD2B7v160006Ev, symObjAddr: 0x17530, symBinAddr: 0x100019D50, symSize: 0x20 }
  - { offsetInCU: 0x53B74, offset: 0x6B138, size: 0x8, addend: 0x0, symName: __ZNKSt3__16vectorI6CTxOutNS_9allocatorIS1_EEE11__recommendB7v160006Em, symObjAddr: 0x17550, symBinAddr: 0x100019D70, symSize: 0xA0 }
  - { offsetInCU: 0x53BC9, offset: 0x6B18D, size: 0x8, addend: 0x0, symName: __ZNSt3__114__split_bufferI6CTxOutRNS_9allocatorIS1_EEEC1EmmS4_, symObjAddr: 0x175F0, symBinAddr: 0x100019E10, symSize: 0x40 }
  - { offsetInCU: 0x53C1F, offset: 0x6B1E3, size: 0x8, addend: 0x0, symName: __ZNSt3__114__split_bufferI6CTxOutRNS_9allocatorIS1_EEED1Ev, symObjAddr: 0x17760, symBinAddr: 0x100019F80, symSize: 0x20 }
  - { offsetInCU: 0x53C4B, offset: 0x6B20F, size: 0x8, addend: 0x0, symName: __ZNKSt3__16vectorI6CTxOutNS_9allocatorIS1_EEE8max_sizeEv, symObjAddr: 0x17780, symBinAddr: 0x100019FA0, symSize: 0x60 }
  - { offsetInCU: 0x53C73, offset: 0x6B237, size: 0x8, addend: 0x0, symName: __ZNKSt3__16vectorI6CTxOutNS_9allocatorIS1_EEE20__throw_length_errorB7v160006Ev, symObjAddr: 0x177E0, symBinAddr: 0x10001A000, symSize: 0x20 }
  - { offsetInCU: 0x53C99, offset: 0x6B25D, size: 0x8, addend: 0x0, symName: __ZNKSt3__16vectorI6CTxOutNS_9allocatorIS1_EEE8capacityB7v160006Ev, symObjAddr: 0x17800, symBinAddr: 0x10001A020, symSize: 0x40 }
  - { offsetInCU: 0x53CC9, offset: 0x6B28D, size: 0x8, addend: 0x0, symName: __ZNSt3__116allocator_traitsINS_9allocatorI6CTxOutEEE8max_sizeB7v160006IS3_vvEEmRKS3_, symObjAddr: 0x17840, symBinAddr: 0x10001A060, symSize: 0x30 }
  - { offsetInCU: 0x53CF4, offset: 0x6B2B8, size: 0x8, addend: 0x0, symName: __ZNKSt3__16vectorI6CTxOutNS_9allocatorIS1_EEE7__allocB7v160006Ev, symObjAddr: 0x17870, symBinAddr: 0x10001A090, symSize: 0x20 }
  - { offsetInCU: 0x53D1A, offset: 0x6B2DE, size: 0x8, addend: 0x0, symName: __ZNKSt3__117__compressed_pairIP6CTxOutNS_9allocatorIS1_EEE6secondB7v160006Ev, symObjAddr: 0x17890, symBinAddr: 0x10001A0B0, symSize: 0x20 }
  - { offsetInCU: 0x53D40, offset: 0x6B304, size: 0x8, addend: 0x0, symName: __ZNKSt3__122__compressed_pair_elemINS_9allocatorI6CTxOutEELi1ELb1EE5__getB7v160006Ev, symObjAddr: 0x178B0, symBinAddr: 0x10001A0D0, symSize: 0x10 }
  - { offsetInCU: 0x53D66, offset: 0x6B32A, size: 0x8, addend: 0x0, symName: __ZNKSt3__16vectorI6CTxOutNS_9allocatorIS1_EEE9__end_capB7v160006Ev, symObjAddr: 0x178C0, symBinAddr: 0x10001A0E0, symSize: 0x20 }
  - { offsetInCU: 0x53D8C, offset: 0x6B350, size: 0x8, addend: 0x0, symName: __ZNKSt3__117__compressed_pairIP6CTxOutNS_9allocatorIS1_EEE5firstB7v160006Ev, symObjAddr: 0x178E0, symBinAddr: 0x10001A100, symSize: 0x20 }
  - { offsetInCU: 0x53DB2, offset: 0x6B376, size: 0x8, addend: 0x0, symName: __ZNKSt3__122__compressed_pair_elemIP6CTxOutLi0ELb0EE5__getB7v160006Ev, symObjAddr: 0x17900, symBinAddr: 0x10001A120, symSize: 0x10 }
  - { offsetInCU: 0x53DD8, offset: 0x6B39C, size: 0x8, addend: 0x0, symName: __ZNSt3__114__split_bufferI6CTxOutRNS_9allocatorIS1_EEEC2EmmS4_, symObjAddr: 0x17910, symBinAddr: 0x10001A130, symSize: 0xC0 }
  - { offsetInCU: 0x53E4B, offset: 0x6B40F, size: 0x8, addend: 0x0, symName: __ZNSt3__117__compressed_pairIP6CTxOutRNS_9allocatorIS1_EEEC1B7v160006IDnS5_EEOT_OT0_, symObjAddr: 0x179D0, symBinAddr: 0x10001A1F0, symSize: 0x30 }
  - { offsetInCU: 0x53EA3, offset: 0x6B467, size: 0x8, addend: 0x0, symName: __ZNSt3__114__split_bufferI6CTxOutRNS_9allocatorIS1_EEE7__allocB7v160006Ev, symObjAddr: 0x17A40, symBinAddr: 0x10001A260, symSize: 0x20 }
  - { offsetInCU: 0x53EC9, offset: 0x6B48D, size: 0x8, addend: 0x0, symName: __ZNSt3__114__split_bufferI6CTxOutRNS_9allocatorIS1_EEE9__end_capB7v160006Ev, symObjAddr: 0x17A60, symBinAddr: 0x10001A280, symSize: 0x20 }
  - { offsetInCU: 0x53EEF, offset: 0x6B4B3, size: 0x8, addend: 0x0, symName: __ZNSt3__117__compressed_pairIP6CTxOutRNS_9allocatorIS1_EEEC2B7v160006IDnS5_EEOT_OT0_, symObjAddr: 0x17A80, symBinAddr: 0x10001A2A0, symSize: 0x40 }
  - { offsetInCU: 0x53F47, offset: 0x6B50B, size: 0x8, addend: 0x0, symName: __ZNSt3__122__compressed_pair_elemIP6CTxOutLi0ELb0EEC2B7v160006IDnvEEOT_, symObjAddr: 0x17AC0, symBinAddr: 0x10001A2E0, symSize: 0x20 }
  - { offsetInCU: 0x53F89, offset: 0x6B54D, size: 0x8, addend: 0x0, symName: __ZNSt3__122__compressed_pair_elemIRNS_9allocatorI6CTxOutEELi1ELb0EEC2B7v160006IS4_vEEOT_, symObjAddr: 0x17AE0, symBinAddr: 0x10001A300, symSize: 0x20 }
  - { offsetInCU: 0x53FCB, offset: 0x6B58F, size: 0x8, addend: 0x0, symName: __ZNSt3__19allocatorI6CTxOutE8allocateB7v160006Em, symObjAddr: 0x17B00, symBinAddr: 0x10001A320, symSize: 0x50 }
  - { offsetInCU: 0x53FFF, offset: 0x6B5C3, size: 0x8, addend: 0x0, symName: __ZNSt3__117__compressed_pairIP6CTxOutRNS_9allocatorIS1_EEE6secondB7v160006Ev, symObjAddr: 0x17B50, symBinAddr: 0x10001A370, symSize: 0x20 }
  - { offsetInCU: 0x54025, offset: 0x6B5E9, size: 0x8, addend: 0x0, symName: __ZNSt3__122__compressed_pair_elemIRNS_9allocatorI6CTxOutEELi1ELb0EE5__getB7v160006Ev, symObjAddr: 0x17B70, symBinAddr: 0x10001A390, symSize: 0x20 }
  - { offsetInCU: 0x5404B, offset: 0x6B60F, size: 0x8, addend: 0x0, symName: __ZNSt3__117__compressed_pairIP6CTxOutRNS_9allocatorIS1_EEE5firstB7v160006Ev, symObjAddr: 0x17B90, symBinAddr: 0x10001A3B0, symSize: 0x20 }
  - { offsetInCU: 0x54071, offset: 0x6B635, size: 0x8, addend: 0x0, symName: __ZNKSt3__16vectorI6CTxOutNS_9allocatorIS1_EEE17__annotate_deleteB7v160006Ev, symObjAddr: 0x17BB0, symBinAddr: 0x10001A3D0, symSize: 0xB0 }
  - { offsetInCU: 0x54097, offset: 0x6B65B, size: 0x8, addend: 0x0, symName: __ZNSt3__116reverse_iteratorIP6CTxOutEC1B7v160006ES2_, symObjAddr: 0x17DE0, symBinAddr: 0x10001A600, symSize: 0x30 }
  - { offsetInCU: 0x540CF, offset: 0x6B693, size: 0x8, addend: 0x0, symName: __ZNKSt3__116reverse_iteratorIP6CTxOutE4baseB7v160006Ev, symObjAddr: 0x17E10, symBinAddr: 0x10001A630, symSize: 0x20 }
  - { offsetInCU: 0x540F5, offset: 0x6B6B9, size: 0x8, addend: 0x0, symName: __ZNKSt3__16vectorI6CTxOutNS_9allocatorIS1_EEE14__annotate_newB7v160006Em, symObjAddr: 0x17E70, symBinAddr: 0x10001A690, symSize: 0xA0 }
  - { offsetInCU: 0x5412A, offset: 0x6B6EE, size: 0x8, addend: 0x0, symName: __ZNKSt3__16vectorI6CTxOutNS_9allocatorIS1_EEE31__annotate_contiguous_containerB7v160006EPKvS6_S6_S6_, symObjAddr: 0x17F20, symBinAddr: 0x10001A740, symSize: 0x20 }
  - { offsetInCU: 0x54180, offset: 0x6B744, size: 0x8, addend: 0x0, symName: __ZNKSt3__16vectorI6CTxOutNS_9allocatorIS1_EEE4dataB7v160006Ev, symObjAddr: 0x17F40, symBinAddr: 0x10001A760, symSize: 0x20 }
  - { offsetInCU: 0x541A6, offset: 0x6B76A, size: 0x8, addend: 0x0, symName: __ZNSt3__129_AllocatorDestroyRangeReverseINS_9allocatorI6CTxOutEENS_16reverse_iteratorIPS2_EEEC1B7v160006ERS3_RS6_S9_, symObjAddr: 0x17FC0, symBinAddr: 0x10001A7E0, symSize: 0x40 }
  - { offsetInCU: 0x54202, offset: 0x6B7C6, size: 0x8, addend: 0x0, symName: __ZNSt3__116allocator_traitsINS_9allocatorI6CTxOutEEE9constructB7v160006IS2_JS2_EvvEEvRS3_PT_DpOT0_, symObjAddr: 0x18040, symBinAddr: 0x10001A860, symSize: 0x30 }
  - { offsetInCU: 0x54256, offset: 0x6B81A, size: 0x8, addend: 0x0, symName: __ZNKSt3__116reverse_iteratorIP6CTxOutEdeB7v160006Ev, symObjAddr: 0x18090, symBinAddr: 0x10001A8B0, symSize: 0x30 }
  - { offsetInCU: 0x5428B, offset: 0x6B84F, size: 0x8, addend: 0x0, symName: __ZNSt3__116reverse_iteratorIP6CTxOutEppB7v160006Ev, symObjAddr: 0x180C0, symBinAddr: 0x10001A8E0, symSize: 0x20 }
  - { offsetInCU: 0x542B1, offset: 0x6B875, size: 0x8, addend: 0x0, symName: __ZNSt3__128__exception_guard_exceptionsINS_29_AllocatorDestroyRangeReverseINS_9allocatorI6CTxOutEENS_16reverse_iteratorIPS3_EEEEE10__completeB7v160006Ev, symObjAddr: 0x180E0, symBinAddr: 0x10001A900, symSize: 0x20 }
  - { offsetInCU: 0x542D7, offset: 0x6B89B, size: 0x8, addend: 0x0, symName: __ZNSt3__128__exception_guard_exceptionsINS_29_AllocatorDestroyRangeReverseINS_9allocatorI6CTxOutEENS_16reverse_iteratorIPS3_EEEEED1B7v160006Ev, symObjAddr: 0x18100, symBinAddr: 0x10001A920, symSize: 0x20 }
  - { offsetInCU: 0x54301, offset: 0x6B8C5, size: 0x8, addend: 0x0, symName: __ZNSt3__128__exception_guard_exceptionsINS_29_AllocatorDestroyRangeReverseINS_9allocatorI6CTxOutEENS_16reverse_iteratorIPS3_EEEEEC1B7v160006ES8_, symObjAddr: 0x18120, symBinAddr: 0x10001A940, symSize: 0x40 }
  - { offsetInCU: 0x54339, offset: 0x6B8FD, size: 0x8, addend: 0x0, symName: __ZNSt3__128__exception_guard_exceptionsINS_29_AllocatorDestroyRangeReverseINS_9allocatorI6CTxOutEENS_16reverse_iteratorIPS3_EEEEEC2B7v160006ES8_, symObjAddr: 0x18160, symBinAddr: 0x10001A980, symSize: 0x30 }
  - { offsetInCU: 0x54371, offset: 0x6B935, size: 0x8, addend: 0x0, symName: __ZNSt3__129_AllocatorDestroyRangeReverseINS_9allocatorI6CTxOutEENS_16reverse_iteratorIPS2_EEEC2B7v160006ERS3_RS6_S9_, symObjAddr: 0x18190, symBinAddr: 0x10001A9B0, symSize: 0x40 }
  - { offsetInCU: 0x543C8, offset: 0x6B98C, size: 0x8, addend: 0x0, symName: __ZN6CTxOutC1EOS_, symObjAddr: 0x18210, symBinAddr: 0x10001AA30, symSize: 0x30 }
  - { offsetInCU: 0x543FD, offset: 0x6B9C1, size: 0x8, addend: 0x0, symName: __ZN6CTxOutC2EOS_, symObjAddr: 0x18240, symBinAddr: 0x10001AA60, symSize: 0x40 }
  - { offsetInCU: 0x54437, offset: 0x6B9FB, size: 0x8, addend: 0x0, symName: __ZNSt3__119__to_address_helperINS_16reverse_iteratorIP6CTxOutEEvE6__callB7v160006ERKS4_, symObjAddr: 0x18280, symBinAddr: 0x10001AAA0, symSize: 0x40 }
  - { offsetInCU: 0x54459, offset: 0x6BA1D, size: 0x8, addend: 0x0, symName: __ZNKSt3__116reverse_iteratorIP6CTxOutEptB7v160006Ev, symObjAddr: 0x182C0, symBinAddr: 0x10001AAE0, symSize: 0x30 }
  - { offsetInCU: 0x5447F, offset: 0x6BA43, size: 0x8, addend: 0x0, symName: __ZNSt3__128__exception_guard_exceptionsINS_29_AllocatorDestroyRangeReverseINS_9allocatorI6CTxOutEENS_16reverse_iteratorIPS3_EEEEED2B7v160006Ev, symObjAddr: 0x183B0, symBinAddr: 0x10001ABD0, symSize: 0x40 }
  - { offsetInCU: 0x544A9, offset: 0x6BA6D, size: 0x8, addend: 0x0, symName: __ZNKSt3__129_AllocatorDestroyRangeReverseINS_9allocatorI6CTxOutEENS_16reverse_iteratorIPS2_EEEclB7v160006Ev, symObjAddr: 0x183F0, symBinAddr: 0x10001AC10, symSize: 0xF0 }
  - { offsetInCU: 0x544D0, offset: 0x6BA94, size: 0x8, addend: 0x0, symName: __ZNSt3__116reverse_iteratorINS0_IP6CTxOutEEEC1B7v160006ES3_, symObjAddr: 0x18550, symBinAddr: 0x10001AD70, symSize: 0x30 }
  - { offsetInCU: 0x54508, offset: 0x6BACC, size: 0x8, addend: 0x0, symName: __ZNSt3__116allocator_traitsINS_9allocatorI6CTxOutEEE7destroyB7v160006IS2_vvEEvRS3_PT_, symObjAddr: 0x185D0, symBinAddr: 0x10001ADF0, symSize: 0x20 }
  - { offsetInCU: 0x54542, offset: 0x6BB06, size: 0x8, addend: 0x0, symName: __ZNSt3__116reverse_iteratorINS0_IP6CTxOutEEEppB7v160006Ev, symObjAddr: 0x18610, symBinAddr: 0x10001AE30, symSize: 0x30 }
  - { offsetInCU: 0x54568, offset: 0x6BB2C, size: 0x8, addend: 0x0, symName: __ZNKSt3__116reverse_iteratorINS0_IP6CTxOutEEE4baseB7v160006Ev, symObjAddr: 0x18640, symBinAddr: 0x10001AE60, symSize: 0x20 }
  - { offsetInCU: 0x54593, offset: 0x6BB57, size: 0x8, addend: 0x0, symName: __ZNSt3__119__to_address_helperINS_16reverse_iteratorINS1_IP6CTxOutEEEEvE6__callB7v160006ERKS5_, symObjAddr: 0x186A0, symBinAddr: 0x10001AEC0, symSize: 0x40 }
  - { offsetInCU: 0x545B5, offset: 0x6BB79, size: 0x8, addend: 0x0, symName: __ZNKSt3__116reverse_iteratorINS0_IP6CTxOutEEEptB7v160006Ev, symObjAddr: 0x186E0, symBinAddr: 0x10001AF00, symSize: 0x50 }
  - { offsetInCU: 0x545DB, offset: 0x6BB9F, size: 0x8, addend: 0x0, symName: __ZNSt3__116reverse_iteratorIP6CTxOutEpLB7v160006El, symObjAddr: 0x18810, symBinAddr: 0x10001B030, symSize: 0x30 }
  - { offsetInCU: 0x5460F, offset: 0x6BBD3, size: 0x8, addend: 0x0, symName: __ZNSt3__116reverse_iteratorIP6CTxOutEmmB7v160006Ev, symObjAddr: 0x18840, symBinAddr: 0x10001B060, symSize: 0x20 }
  - { offsetInCU: 0x54635, offset: 0x6BBF9, size: 0x8, addend: 0x0, symName: __ZNSt3__116reverse_iteratorINS0_IP6CTxOutEEEC2B7v160006ES3_, symObjAddr: 0x18860, symBinAddr: 0x10001B080, symSize: 0x40 }
  - { offsetInCU: 0x5466D, offset: 0x6BC31, size: 0x8, addend: 0x0, symName: __ZNSt3__116reverse_iteratorIP6CTxOutEC2B7v160006ES2_, symObjAddr: 0x188A0, symBinAddr: 0x10001B0C0, symSize: 0x30 }
  - { offsetInCU: 0x546A5, offset: 0x6BC69, size: 0x8, addend: 0x0, symName: __ZNSt3__114__split_bufferI6CTxOutRNS_9allocatorIS1_EEED2Ev, symObjAddr: 0x188D0, symBinAddr: 0x10001B0F0, symSize: 0x70 }
  - { offsetInCU: 0x546D1, offset: 0x6BC95, size: 0x8, addend: 0x0, symName: __ZNSt3__114__split_bufferI6CTxOutRNS_9allocatorIS1_EEE5clearB7v160006Ev, symObjAddr: 0x18940, symBinAddr: 0x10001B160, symSize: 0x20 }
  - { offsetInCU: 0x546F7, offset: 0x6BCBB, size: 0x8, addend: 0x0, symName: __ZNSt3__116allocator_traitsINS_9allocatorI6CTxOutEEE10deallocateB7v160006ERS3_PS2_m, symObjAddr: 0x18960, symBinAddr: 0x10001B180, symSize: 0x30 }
  - { offsetInCU: 0x54738, offset: 0x6BCFC, size: 0x8, addend: 0x0, symName: __ZNKSt3__114__split_bufferI6CTxOutRNS_9allocatorIS1_EEE8capacityB7v160006Ev, symObjAddr: 0x18990, symBinAddr: 0x10001B1B0, symSize: 0x40 }
  - { offsetInCU: 0x5475E, offset: 0x6BD22, size: 0x8, addend: 0x0, symName: __ZNSt3__114__split_bufferI6CTxOutRNS_9allocatorIS1_EEE17__destruct_at_endB7v160006EPS1_, symObjAddr: 0x189D0, symBinAddr: 0x10001B1F0, symSize: 0x30 }
  - { offsetInCU: 0x54792, offset: 0x6BD56, size: 0x8, addend: 0x0, symName: __ZNSt3__114__split_bufferI6CTxOutRNS_9allocatorIS1_EEE17__destruct_at_endB7v160006EPS1_NS_17integral_constantIbLb0EEE, symObjAddr: 0x18A00, symBinAddr: 0x10001B220, symSize: 0x80 }
  - { offsetInCU: 0x547D3, offset: 0x6BD97, size: 0x8, addend: 0x0, symName: __ZNSt3__19allocatorI6CTxOutE10deallocateB7v160006EPS1_m, symObjAddr: 0x18A80, symBinAddr: 0x10001B2A0, symSize: 0x50 }
  - { offsetInCU: 0x54815, offset: 0x6BDD9, size: 0x8, addend: 0x0, symName: __ZNKSt3__114__split_bufferI6CTxOutRNS_9allocatorIS1_EEE9__end_capB7v160006Ev, symObjAddr: 0x18AD0, symBinAddr: 0x10001B2F0, symSize: 0x20 }
  - { offsetInCU: 0x5483B, offset: 0x6BDFF, size: 0x8, addend: 0x0, symName: __ZNKSt3__117__compressed_pairIP6CTxOutRNS_9allocatorIS1_EEE5firstB7v160006Ev, symObjAddr: 0x18AF0, symBinAddr: 0x10001B310, symSize: 0x20 }
  - { offsetInCU: 0x54861, offset: 0x6BE25, size: 0x8, addend: 0x0, symName: __ZN6CTxOutD2Ev, symObjAddr: 0x18B10, symBinAddr: 0x10001B330, symSize: 0x20 }
  - { offsetInCU: 0x5488D, offset: 0x6BE51, size: 0x8, addend: 0x0, symName: __ZNSt3__16vectorI5CTxInNS_9allocatorIS1_EEE19__copy_assign_allocB7v160006ERKS4_, symObjAddr: 0x18B30, symBinAddr: 0x10001B350, symSize: 0x30 }
  - { offsetInCU: 0x548C2, offset: 0x6BE86, size: 0x8, addend: 0x0, symName: __ZNSt3__16vectorI5CTxInNS_9allocatorIS1_EEE6assignIPS1_Li0EEEvT_S7_, symObjAddr: 0x18B60, symBinAddr: 0x10001B380, symSize: 0x160 }
  - { offsetInCU: 0x54961, offset: 0x6BF25, size: 0x8, addend: 0x0, symName: __ZNSt3__16vectorI5CTxInNS_9allocatorIS1_EEE19__copy_assign_allocB7v160006ERKS4_NS_17integral_constantIbLb0EEE, symObjAddr: 0x18CC0, symBinAddr: 0x10001B4E0, symSize: 0x10 }
  - { offsetInCU: 0x5499F, offset: 0x6BF63, size: 0x8, addend: 0x0, symName: __ZNSt3__16vectorI5CTxInNS_9allocatorIS1_EEE18__construct_at_endIPS1_Li0EEEvT_S7_m, symObjAddr: 0x18D90, symBinAddr: 0x10001B5B0, symSize: 0x90 }
  - { offsetInCU: 0x54A12, offset: 0x6BFD6, size: 0x8, addend: 0x0, symName: __ZNSt3__16vectorI5CTxInNS_9allocatorIS1_EEE17__destruct_at_endB7v160006EPS1_, symObjAddr: 0x18E20, symBinAddr: 0x10001B640, symSize: 0x60 }
  - { offsetInCU: 0x54A56, offset: 0x6C01A, size: 0x8, addend: 0x0, symName: __ZNSt3__16vectorI5CTxInNS_9allocatorIS1_EEE13__vdeallocateEv, symObjAddr: 0x18E80, symBinAddr: 0x10001B6A0, symSize: 0x80 }
  - { offsetInCU: 0x54A7E, offset: 0x6C042, size: 0x8, addend: 0x0, symName: __ZNSt3__16vectorI5CTxInNS_9allocatorIS1_EEE11__vallocateB7v160006Em, symObjAddr: 0x18F00, symBinAddr: 0x10001B720, symSize: 0xA0 }
  - { offsetInCU: 0x54AE5, offset: 0x6C0A9, size: 0x8, addend: 0x0, symName: __ZNKSt3__111__copy_loopINS_17_ClassicAlgPolicyEEclB7v160006IP5CTxInS5_S5_EENS_4pairIT_T1_EES7_T0_S8_, symObjAddr: 0x19150, symBinAddr: 0x10001B970, symSize: 0x80 }
  - { offsetInCU: 0x54B50, offset: 0x6C114, size: 0x8, addend: 0x0, symName: __ZNSt3__119__unwrap_range_implIP5CTxInS2_E8__unwrapB7v160006ES2_S2_, symObjAddr: 0x19290, symBinAddr: 0x10001BAB0, symSize: 0x50 }
  - { offsetInCU: 0x54B85, offset: 0x6C149, size: 0x8, addend: 0x0, symName: __ZNSt3__14pairIP5CTxInS2_EC1B7v160006IS2_S2_LPv0EEEOT_OT0_, symObjAddr: 0x192E0, symBinAddr: 0x10001BB00, symSize: 0x30 }
  - { offsetInCU: 0x54BE3, offset: 0x6C1A7, size: 0x8, addend: 0x0, symName: __ZNSt3__14pairIP5CTxInS2_EC2B7v160006IS2_S2_LPv0EEEOT_OT0_, symObjAddr: 0x19310, symBinAddr: 0x10001BB30, symSize: 0x30 }
  - { offsetInCU: 0x54C41, offset: 0x6C205, size: 0x8, addend: 0x0, symName: __ZN5CTxInaSERKS_, symObjAddr: 0x19340, symBinAddr: 0x10001BB60, symSize: 0x70 }
  - { offsetInCU: 0x54C72, offset: 0x6C236, size: 0x8, addend: 0x0, symName: __ZNSt3__118__unwrap_iter_implIP5CTxInLb1EE8__unwrapB7v160006ES2_, symObjAddr: 0x193B0, symBinAddr: 0x10001BBD0, symSize: 0x20 }
  - { offsetInCU: 0x54C94, offset: 0x6C258, size: 0x8, addend: 0x0, symName: __ZNSt3__119__unwrap_range_implIP5CTxInS2_E8__rewrapB7v160006ES2_S2_, symObjAddr: 0x193D0, symBinAddr: 0x10001BBF0, symSize: 0x30 }
  - { offsetInCU: 0x54CC4, offset: 0x6C288, size: 0x8, addend: 0x0, symName: __ZNSt3__118__unwrap_iter_implIP5CTxInLb1EE8__rewrapB7v160006ES2_S2_, symObjAddr: 0x19400, symBinAddr: 0x10001BC20, symSize: 0x60 }
  - { offsetInCU: 0x54CF4, offset: 0x6C2B8, size: 0x8, addend: 0x0, symName: __ZNSt3__129_AllocatorDestroyRangeReverseINS_9allocatorI5CTxInEEPS2_EC1B7v160006ERS3_RS4_S7_, symObjAddr: 0x195C0, symBinAddr: 0x10001BDE0, symSize: 0x40 }
  - { offsetInCU: 0x54D4B, offset: 0x6C30F, size: 0x8, addend: 0x0, symName: __ZNSt3__116allocator_traitsINS_9allocatorI5CTxInEEE9constructB7v160006IS2_JRS2_EvvEEvRS3_PT_DpOT0_, symObjAddr: 0x19600, symBinAddr: 0x10001BE20, symSize: 0x30 }
  - { offsetInCU: 0x54D9F, offset: 0x6C363, size: 0x8, addend: 0x0, symName: __ZNSt3__128__exception_guard_exceptionsINS_29_AllocatorDestroyRangeReverseINS_9allocatorI5CTxInEEPS3_EEE10__completeB7v160006Ev, symObjAddr: 0x19630, symBinAddr: 0x10001BE50, symSize: 0x20 }
  - { offsetInCU: 0x54DC5, offset: 0x6C389, size: 0x8, addend: 0x0, symName: __ZNSt3__128__exception_guard_exceptionsINS_29_AllocatorDestroyRangeReverseINS_9allocatorI5CTxInEEPS3_EEED1B7v160006Ev, symObjAddr: 0x19650, symBinAddr: 0x10001BE70, symSize: 0x20 }
  - { offsetInCU: 0x54DEF, offset: 0x6C3B3, size: 0x8, addend: 0x0, symName: __ZNSt3__128__exception_guard_exceptionsINS_29_AllocatorDestroyRangeReverseINS_9allocatorI5CTxInEEPS3_EEEC1B7v160006ES6_, symObjAddr: 0x19670, symBinAddr: 0x10001BE90, symSize: 0x40 }
  - { offsetInCU: 0x54E27, offset: 0x6C3EB, size: 0x8, addend: 0x0, symName: __ZNSt3__128__exception_guard_exceptionsINS_29_AllocatorDestroyRangeReverseINS_9allocatorI5CTxInEEPS3_EEEC2B7v160006ES6_, symObjAddr: 0x196B0, symBinAddr: 0x10001BED0, symSize: 0x30 }
  - { offsetInCU: 0x54E5F, offset: 0x6C423, size: 0x8, addend: 0x0, symName: __ZNSt3__129_AllocatorDestroyRangeReverseINS_9allocatorI5CTxInEEPS2_EC2B7v160006ERS3_RS4_S7_, symObjAddr: 0x196E0, symBinAddr: 0x10001BF00, symSize: 0x40 }
  - { offsetInCU: 0x54EB6, offset: 0x6C47A, size: 0x8, addend: 0x0, symName: __ZNSt3__128__exception_guard_exceptionsINS_29_AllocatorDestroyRangeReverseINS_9allocatorI5CTxInEEPS3_EEED2B7v160006Ev, symObjAddr: 0x19760, symBinAddr: 0x10001BF80, symSize: 0x40 }
  - { offsetInCU: 0x54EE0, offset: 0x6C4A4, size: 0x8, addend: 0x0, symName: __ZNKSt3__129_AllocatorDestroyRangeReverseINS_9allocatorI5CTxInEEPS2_EclB7v160006Ev, symObjAddr: 0x197A0, symBinAddr: 0x10001BFC0, symSize: 0x60 }
  - { offsetInCU: 0x54F06, offset: 0x6C4CA, size: 0x8, addend: 0x0, symName: __ZNSt3__16vectorI5CTxInNS_9allocatorIS1_EEE27__invalidate_iterators_pastB7v160006EPS1_, symObjAddr: 0x19870, symBinAddr: 0x10001C090, symSize: 0x10 }
  - { offsetInCU: 0x54F3D, offset: 0x6C501, size: 0x8, addend: 0x0, symName: __ZNSt3__16vectorI5CTxInNS_9allocatorIS1_EEE22__base_destruct_at_endB7v160006EPS1_, symObjAddr: 0x19880, symBinAddr: 0x10001C0A0, symSize: 0x80 }
  - { offsetInCU: 0x54F81, offset: 0x6C545, size: 0x8, addend: 0x0, symName: __ZNKSt3__16vectorI5CTxInNS_9allocatorIS1_EEE17__annotate_shrinkB7v160006Em, symObjAddr: 0x19900, symBinAddr: 0x10001C120, symSize: 0xA0 }
  - { offsetInCU: 0x54FB6, offset: 0x6C57A, size: 0x8, addend: 0x0, symName: __ZNSt3__16vectorI6CTxOutNS_9allocatorIS1_EEE19__copy_assign_allocB7v160006ERKS4_, symObjAddr: 0x199A0, symBinAddr: 0x10001C1C0, symSize: 0x30 }
  - { offsetInCU: 0x54FEB, offset: 0x6C5AF, size: 0x8, addend: 0x0, symName: __ZNSt3__16vectorI6CTxOutNS_9allocatorIS1_EEE6assignIPS1_Li0EEEvT_S7_, symObjAddr: 0x199D0, symBinAddr: 0x10001C1F0, symSize: 0x160 }
  - { offsetInCU: 0x5508A, offset: 0x6C64E, size: 0x8, addend: 0x0, symName: __ZNSt3__16vectorI6CTxOutNS_9allocatorIS1_EEE19__copy_assign_allocB7v160006ERKS4_NS_17integral_constantIbLb0EEE, symObjAddr: 0x19B30, symBinAddr: 0x10001C350, symSize: 0x10 }
  - { offsetInCU: 0x550C8, offset: 0x6C68C, size: 0x8, addend: 0x0, symName: __ZNSt3__16vectorI6CTxOutNS_9allocatorIS1_EEE18__construct_at_endIPS1_Li0EEEvT_S7_m, symObjAddr: 0x19C00, symBinAddr: 0x10001C420, symSize: 0x90 }
  - { offsetInCU: 0x5513B, offset: 0x6C6FF, size: 0x8, addend: 0x0, symName: __ZNSt3__16vectorI6CTxOutNS_9allocatorIS1_EEE17__destruct_at_endB7v160006EPS1_, symObjAddr: 0x19C90, symBinAddr: 0x10001C4B0, symSize: 0x60 }
  - { offsetInCU: 0x5517F, offset: 0x6C743, size: 0x8, addend: 0x0, symName: __ZNSt3__16vectorI6CTxOutNS_9allocatorIS1_EEE13__vdeallocateEv, symObjAddr: 0x19CF0, symBinAddr: 0x10001C510, symSize: 0x80 }
  - { offsetInCU: 0x551A7, offset: 0x6C76B, size: 0x8, addend: 0x0, symName: __ZNSt3__16vectorI6CTxOutNS_9allocatorIS1_EEE11__vallocateB7v160006Em, symObjAddr: 0x19D70, symBinAddr: 0x10001C590, symSize: 0xA0 }
  - { offsetInCU: 0x55204, offset: 0x6C7C8, size: 0x8, addend: 0x0, symName: __ZNKSt3__111__copy_loopINS_17_ClassicAlgPolicyEEclB7v160006IP6CTxOutS5_S5_EENS_4pairIT_T1_EES7_T0_S8_, symObjAddr: 0x19FB0, symBinAddr: 0x10001C7D0, symSize: 0x80 }
  - { offsetInCU: 0x5526F, offset: 0x6C833, size: 0x8, addend: 0x0, symName: __ZNSt3__119__unwrap_range_implIP6CTxOutS2_E8__unwrapB7v160006ES2_S2_, symObjAddr: 0x1A0F0, symBinAddr: 0x10001C910, symSize: 0x50 }
  - { offsetInCU: 0x552A4, offset: 0x6C868, size: 0x8, addend: 0x0, symName: __ZNSt3__14pairIP6CTxOutS2_EC1B7v160006IS2_S2_LPv0EEEOT_OT0_, symObjAddr: 0x1A140, symBinAddr: 0x10001C960, symSize: 0x30 }
  - { offsetInCU: 0x55302, offset: 0x6C8C6, size: 0x8, addend: 0x0, symName: __ZNSt3__14pairIP6CTxOutS2_EC2B7v160006IS2_S2_LPv0EEEOT_OT0_, symObjAddr: 0x1A170, symBinAddr: 0x10001C990, symSize: 0x30 }
  - { offsetInCU: 0x55360, offset: 0x6C924, size: 0x8, addend: 0x0, symName: __ZN6CTxOutaSERKS_, symObjAddr: 0x1A1A0, symBinAddr: 0x10001C9C0, symSize: 0x40 }
  - { offsetInCU: 0x55391, offset: 0x6C955, size: 0x8, addend: 0x0, symName: __ZNSt3__118__unwrap_iter_implIP6CTxOutLb1EE8__unwrapB7v160006ES2_, symObjAddr: 0x1A1E0, symBinAddr: 0x10001CA00, symSize: 0x20 }
  - { offsetInCU: 0x553B3, offset: 0x6C977, size: 0x8, addend: 0x0, symName: __ZNSt3__119__unwrap_range_implIP6CTxOutS2_E8__rewrapB7v160006ES2_S2_, symObjAddr: 0x1A200, symBinAddr: 0x10001CA20, symSize: 0x30 }
  - { offsetInCU: 0x553E3, offset: 0x6C9A7, size: 0x8, addend: 0x0, symName: __ZNSt3__118__unwrap_iter_implIP6CTxOutLb1EE8__rewrapB7v160006ES2_S2_, symObjAddr: 0x1A230, symBinAddr: 0x10001CA50, symSize: 0x60 }
  - { offsetInCU: 0x55413, offset: 0x6C9D7, size: 0x8, addend: 0x0, symName: __ZNSt3__129_AllocatorDestroyRangeReverseINS_9allocatorI6CTxOutEEPS2_EC1B7v160006ERS3_RS4_S7_, symObjAddr: 0x1A3F0, symBinAddr: 0x10001CC10, symSize: 0x40 }
  - { offsetInCU: 0x5546A, offset: 0x6CA2E, size: 0x8, addend: 0x0, symName: __ZNSt3__116allocator_traitsINS_9allocatorI6CTxOutEEE9constructB7v160006IS2_JRS2_EvvEEvRS3_PT_DpOT0_, symObjAddr: 0x1A430, symBinAddr: 0x10001CC50, symSize: 0x30 }
  - { offsetInCU: 0x554BE, offset: 0x6CA82, size: 0x8, addend: 0x0, symName: __ZNSt3__128__exception_guard_exceptionsINS_29_AllocatorDestroyRangeReverseINS_9allocatorI6CTxOutEEPS3_EEE10__completeB7v160006Ev, symObjAddr: 0x1A460, symBinAddr: 0x10001CC80, symSize: 0x20 }
  - { offsetInCU: 0x554E4, offset: 0x6CAA8, size: 0x8, addend: 0x0, symName: __ZNSt3__128__exception_guard_exceptionsINS_29_AllocatorDestroyRangeReverseINS_9allocatorI6CTxOutEEPS3_EEED1B7v160006Ev, symObjAddr: 0x1A480, symBinAddr: 0x10001CCA0, symSize: 0x20 }
  - { offsetInCU: 0x5550E, offset: 0x6CAD2, size: 0x8, addend: 0x0, symName: __ZNSt3__128__exception_guard_exceptionsINS_29_AllocatorDestroyRangeReverseINS_9allocatorI6CTxOutEEPS3_EEEC1B7v160006ES6_, symObjAddr: 0x1A4A0, symBinAddr: 0x10001CCC0, symSize: 0x40 }
  - { offsetInCU: 0x55546, offset: 0x6CB0A, size: 0x8, addend: 0x0, symName: __ZNSt3__128__exception_guard_exceptionsINS_29_AllocatorDestroyRangeReverseINS_9allocatorI6CTxOutEEPS3_EEEC2B7v160006ES6_, symObjAddr: 0x1A4E0, symBinAddr: 0x10001CD00, symSize: 0x30 }
  - { offsetInCU: 0x5557E, offset: 0x6CB42, size: 0x8, addend: 0x0, symName: __ZNSt3__129_AllocatorDestroyRangeReverseINS_9allocatorI6CTxOutEEPS2_EC2B7v160006ERS3_RS4_S7_, symObjAddr: 0x1A510, symBinAddr: 0x10001CD30, symSize: 0x40 }
  - { offsetInCU: 0x555D5, offset: 0x6CB99, size: 0x8, addend: 0x0, symName: __ZNSt3__128__exception_guard_exceptionsINS_29_AllocatorDestroyRangeReverseINS_9allocatorI6CTxOutEEPS3_EEED2B7v160006Ev, symObjAddr: 0x1A590, symBinAddr: 0x10001CDB0, symSize: 0x40 }
  - { offsetInCU: 0x555FF, offset: 0x6CBC3, size: 0x8, addend: 0x0, symName: __ZNKSt3__129_AllocatorDestroyRangeReverseINS_9allocatorI6CTxOutEEPS2_EclB7v160006Ev, symObjAddr: 0x1A5D0, symBinAddr: 0x10001CDF0, symSize: 0x60 }
  - { offsetInCU: 0x55625, offset: 0x6CBE9, size: 0x8, addend: 0x0, symName: __ZNSt3__16vectorI6CTxOutNS_9allocatorIS1_EEE27__invalidate_iterators_pastB7v160006EPS1_, symObjAddr: 0x1A6A0, symBinAddr: 0x10001CEC0, symSize: 0x10 }
  - { offsetInCU: 0x5565C, offset: 0x6CC20, size: 0x8, addend: 0x0, symName: __ZNSt3__16vectorI6CTxOutNS_9allocatorIS1_EEE22__base_destruct_at_endB7v160006EPS1_, symObjAddr: 0x1A6B0, symBinAddr: 0x10001CED0, symSize: 0x80 }
  - { offsetInCU: 0x556A0, offset: 0x6CC64, size: 0x8, addend: 0x0, symName: __ZNKSt3__16vectorI6CTxOutNS_9allocatorIS1_EEE17__annotate_shrinkB7v160006Em, symObjAddr: 0x1A730, symBinAddr: 0x10001CF50, symSize: 0xA0 }
  - { offsetInCU: 0x556D5, offset: 0x6CC99, size: 0x8, addend: 0x0, symName: __ZN20CDilithiumAggregatorC2Ev, symObjAddr: 0x1A7D0, symBinAddr: 0x10001CFF0, symSize: 0x40 }
  - { offsetInCU: 0x556FF, offset: 0x6CCC3, size: 0x8, addend: 0x0, symName: __ZNSt3__16vectorI7uint256NS_9allocatorIS1_EEEC1B7v160006Ev, symObjAddr: 0x1A810, symBinAddr: 0x10001D030, symSize: 0x20 }
  - { offsetInCU: 0x55729, offset: 0x6CCED, size: 0x8, addend: 0x0, symName: __ZNSt3__16vectorI7uint256NS_9allocatorIS1_EEEC2B7v160006Ev, symObjAddr: 0x1A830, symBinAddr: 0x10001D050, symSize: 0x60 }
  - { offsetInCU: 0x55753, offset: 0x6CD17, size: 0x8, addend: 0x0, symName: __ZNSt3__117__compressed_pairIP7uint256NS_9allocatorIS1_EEEC1B7v160006IDnNS_18__default_init_tagEEEOT_OT0_, symObjAddr: 0x1A890, symBinAddr: 0x10001D0B0, symSize: 0x30 }
  - { offsetInCU: 0x557AB, offset: 0x6CD6F, size: 0x8, addend: 0x0, symName: __ZNSt3__117__compressed_pairIP7uint256NS_9allocatorIS1_EEEC2B7v160006IDnNS_18__default_init_tagEEEOT_OT0_, symObjAddr: 0x1A8D0, symBinAddr: 0x10001D0F0, symSize: 0x40 }
  - { offsetInCU: 0x55803, offset: 0x6CDC7, size: 0x8, addend: 0x0, symName: __ZNSt3__122__compressed_pair_elemIP7uint256Li0ELb0EEC2B7v160006IDnvEEOT_, symObjAddr: 0x1A910, symBinAddr: 0x10001D130, symSize: 0x20 }
  - { offsetInCU: 0x55845, offset: 0x6CE09, size: 0x8, addend: 0x0, symName: __ZNSt3__122__compressed_pair_elemINS_9allocatorI7uint256EELi1ELb1EEC2B7v160006ENS_18__default_init_tagE, symObjAddr: 0x1A930, symBinAddr: 0x10001D150, symSize: 0x20 }
  - { offsetInCU: 0x5587A, offset: 0x6CE3E, size: 0x8, addend: 0x0, symName: __ZNSt3__19allocatorI7uint256EC2B7v160006Ev, symObjAddr: 0x1A950, symBinAddr: 0x10001D170, symSize: 0x20 }
  - { offsetInCU: 0x558A4, offset: 0x6CE68, size: 0x8, addend: 0x0, symName: __ZNSt3__116__non_trivial_ifILb1ENS_9allocatorI7uint256EEEC2B7v160006Ev, symObjAddr: 0x1A970, symBinAddr: 0x10001D190, symSize: 0x10 }
  - { offsetInCU: 0x558CE, offset: 0x6CE92, size: 0x8, addend: 0x0, symName: __ZNSt3__16vectorI8CQPubKeyNS_9allocatorIS1_EEEC2B7v160006Ev, symObjAddr: 0x1A980, symBinAddr: 0x10001D1A0, symSize: 0x60 }
  - { offsetInCU: 0x558F8, offset: 0x6CEBC, size: 0x8, addend: 0x0, symName: __ZNSt3__117__compressed_pairIP8CQPubKeyNS_9allocatorIS1_EEEC1B7v160006IDnNS_18__default_init_tagEEEOT_OT0_, symObjAddr: 0x1A9E0, symBinAddr: 0x10001D200, symSize: 0x30 }
  - { offsetInCU: 0x55950, offset: 0x6CF14, size: 0x8, addend: 0x0, symName: __ZNSt3__117__compressed_pairIP8CQPubKeyNS_9allocatorIS1_EEEC2B7v160006IDnNS_18__default_init_tagEEEOT_OT0_, symObjAddr: 0x1AA20, symBinAddr: 0x10001D240, symSize: 0x40 }
  - { offsetInCU: 0x559A8, offset: 0x6CF6C, size: 0x8, addend: 0x0, symName: __ZNSt3__122__compressed_pair_elemIP8CQPubKeyLi0ELb0EEC2B7v160006IDnvEEOT_, symObjAddr: 0x1AA60, symBinAddr: 0x10001D280, symSize: 0x20 }
  - { offsetInCU: 0x559EA, offset: 0x6CFAE, size: 0x8, addend: 0x0, symName: __ZNSt3__122__compressed_pair_elemINS_9allocatorI8CQPubKeyEELi1ELb1EEC2B7v160006ENS_18__default_init_tagE, symObjAddr: 0x1AA80, symBinAddr: 0x10001D2A0, symSize: 0x20 }
  - { offsetInCU: 0x55A1F, offset: 0x6CFE3, size: 0x8, addend: 0x0, symName: __ZNSt3__19allocatorI8CQPubKeyEC2B7v160006Ev, symObjAddr: 0x1AAA0, symBinAddr: 0x10001D2C0, symSize: 0x20 }
  - { offsetInCU: 0x55A49, offset: 0x6D00D, size: 0x8, addend: 0x0, symName: __ZNSt3__116__non_trivial_ifILb1ENS_9allocatorI8CQPubKeyEEEC2B7v160006Ev, symObjAddr: 0x1AAC0, symBinAddr: 0x10001D2E0, symSize: 0x10 }
  - { offsetInCU: 0x55A73, offset: 0x6D037, size: 0x8, addend: 0x0, symName: __ZNSt3__16vectorI7uint160NS_9allocatorIS1_EEEC2B7v160006Ev, symObjAddr: 0x1AAD0, symBinAddr: 0x10001D2F0, symSize: 0x60 }
  - { offsetInCU: 0x55A9D, offset: 0x6D061, size: 0x8, addend: 0x0, symName: __ZNSt3__117__compressed_pairIP7uint160NS_9allocatorIS1_EEEC1B7v160006IDnNS_18__default_init_tagEEEOT_OT0_, symObjAddr: 0x1AB30, symBinAddr: 0x10001D350, symSize: 0x30 }
  - { offsetInCU: 0x55AF5, offset: 0x6D0B9, size: 0x8, addend: 0x0, symName: __ZNSt3__117__compressed_pairIP7uint160NS_9allocatorIS1_EEEC2B7v160006IDnNS_18__default_init_tagEEEOT_OT0_, symObjAddr: 0x1AB70, symBinAddr: 0x10001D390, symSize: 0x40 }
  - { offsetInCU: 0x55B4D, offset: 0x6D111, size: 0x8, addend: 0x0, symName: __ZNSt3__122__compressed_pair_elemIP7uint160Li0ELb0EEC2B7v160006IDnvEEOT_, symObjAddr: 0x1ABB0, symBinAddr: 0x10001D3D0, symSize: 0x20 }
  - { offsetInCU: 0x55B8F, offset: 0x6D153, size: 0x8, addend: 0x0, symName: __ZNSt3__122__compressed_pair_elemINS_9allocatorI7uint160EELi1ELb1EEC2B7v160006ENS_18__default_init_tagE, symObjAddr: 0x1ABD0, symBinAddr: 0x10001D3F0, symSize: 0x20 }
  - { offsetInCU: 0x55BC4, offset: 0x6D188, size: 0x8, addend: 0x0, symName: __ZNSt3__19allocatorI7uint160EC2B7v160006Ev, symObjAddr: 0x1ABF0, symBinAddr: 0x10001D410, symSize: 0x20 }
  - { offsetInCU: 0x55BEE, offset: 0x6D1B2, size: 0x8, addend: 0x0, symName: __ZNSt3__116__non_trivial_ifILb1ENS_9allocatorI7uint160EEEC2B7v160006Ev, symObjAddr: 0x1AC10, symBinAddr: 0x10001D430, symSize: 0x10 }
  - { offsetInCU: 0x55C18, offset: 0x6D1DC, size: 0x8, addend: 0x0, symName: __ZNSt3__112basic_stringIcNS_11char_traitsIcEENS_9allocatorIcEEEC1B7v160006EOS5_, symObjAddr: 0x1AC20, symBinAddr: 0x10001D440, symSize: 0x30 }
  - { offsetInCU: 0x55C51, offset: 0x6D215, size: 0x8, addend: 0x0, symName: __ZNSt3__112basic_stringIcNS_11char_traitsIcEENS_9allocatorIcEEEC2B7v160006EOS5_, symObjAddr: 0x1AC50, symBinAddr: 0x10001D470, symSize: 0x80 }
  - { offsetInCU: 0x55C8A, offset: 0x6D24E, size: 0x8, addend: 0x0, symName: __ZNSt3__112basic_stringIcNS_11char_traitsIcEENS_9allocatorIcEEE14__default_initB7v160006Ev, symObjAddr: 0x1ACD0, symBinAddr: 0x10001D4F0, symSize: 0x50 }
  - { offsetInCU: 0x55CB0, offset: 0x6D274, size: 0x8, addend: 0x0, symName: __ZNSt3__112basic_stringIcNS_11char_traitsIcEENS_9allocatorIcEEE13__move_assignB7v160006ERS5_NS_17integral_constantIbLb1EEE, symObjAddr: 0x1AD60, symBinAddr: 0x10001D550, symSize: 0xD0 }
  - { offsetInCU: 0x55CF3, offset: 0x6D2B7, size: 0x8, addend: 0x0, symName: __ZNSt3__116allocator_traitsINS_9allocatorIcEEE10deallocateB7v160006ERS2_Pcm, symObjAddr: 0x1AE30, symBinAddr: 0x10001D620, symSize: 0x30 }
  - { offsetInCU: 0x55D34, offset: 0x6D2F8, size: 0x8, addend: 0x0, symName: __ZNSt3__112basic_stringIcNS_11char_traitsIcEENS_9allocatorIcEEE7__allocB7v160006Ev, symObjAddr: 0x1AE60, symBinAddr: 0x10001D650, symSize: 0x20 }
  - { offsetInCU: 0x55D5A, offset: 0x6D31E, size: 0x8, addend: 0x0, symName: __ZNKSt3__112basic_stringIcNS_11char_traitsIcEENS_9allocatorIcEEE14__get_long_capB7v160006Ev, symObjAddr: 0x1AEA0, symBinAddr: 0x10001D670, symSize: 0x30 }
  - { offsetInCU: 0x55D80, offset: 0x6D344, size: 0x8, addend: 0x0, symName: __ZNSt3__112basic_stringIcNS_11char_traitsIcEENS_9allocatorIcEEE19__move_assign_allocB7v160006ERS5_, symObjAddr: 0x1AED0, symBinAddr: 0x10001D6A0, symSize: 0x30 }
  - { offsetInCU: 0x55DB5, offset: 0x6D379, size: 0x8, addend: 0x0, symName: __ZNSt3__112basic_stringIcNS_11char_traitsIcEENS_9allocatorIcEEE16__set_short_sizeB7v160006Em, symObjAddr: 0x1AF00, symBinAddr: 0x10001D6D0, symSize: 0x50 }
  - { offsetInCU: 0x55DEA, offset: 0x6D3AE, size: 0x8, addend: 0x0, symName: __ZNSt3__111char_traitsIcE6assignERcRKc, symObjAddr: 0x1AF50, symBinAddr: 0x10001D720, symSize: 0x20 }
  - { offsetInCU: 0x55E1A, offset: 0x6D3DE, size: 0x8, addend: 0x0, symName: __ZNSt3__19allocatorIcE10deallocateB7v160006EPcm, symObjAddr: 0x1AFA0, symBinAddr: 0x10001D740, symSize: 0x40 }
  - { offsetInCU: 0x55E5C, offset: 0x6D420, size: 0x8, addend: 0x0, symName: __ZNSt3__117__compressed_pairINS_12basic_stringIcNS_11char_traitsIcEENS_9allocatorIcEEE5__repES5_E6secondB7v160006Ev, symObjAddr: 0x1AFE0, symBinAddr: 0x10001D780, symSize: 0x20 }
  - { offsetInCU: 0x55E82, offset: 0x6D446, size: 0x8, addend: 0x0, symName: __ZNSt3__122__compressed_pair_elemINS_9allocatorIcEELi1ELb1EE5__getB7v160006Ev, symObjAddr: 0x1B000, symBinAddr: 0x10001D7A0, symSize: 0x10 }
  - { offsetInCU: 0x55EA8, offset: 0x6D46C, size: 0x8, addend: 0x0, symName: __ZNSt3__112basic_stringIcNS_11char_traitsIcEENS_9allocatorIcEEE19__move_assign_allocB7v160006ERS5_NS_17integral_constantIbLb1EEE, symObjAddr: 0x1B010, symBinAddr: 0x10001D7B0, symSize: 0x30 }
  - { offsetInCU: 0x55EE9, offset: 0x6D4AD, size: 0x8, addend: 0x0, symName: __ZNSt3__16vectorI8CQPubKeyNS_9allocatorIS1_EEE9__end_capB7v160006Ev, symObjAddr: 0x1B050, symBinAddr: 0x10001D7E0, symSize: 0x20 }
  - { offsetInCU: 0x55F0F, offset: 0x6D4D3, size: 0x8, addend: 0x0, symName: __ZNSt3__16vectorI8CQPubKeyNS_9allocatorIS1_EEE22__construct_one_at_endB7v160006IJRKS1_EEEvDpOT_, symObjAddr: 0x1B070, symBinAddr: 0x10001D800, symSize: 0x90 }
  - { offsetInCU: 0x55F5E, offset: 0x6D522, size: 0x8, addend: 0x0, symName: __ZNSt3__16vectorI8CQPubKeyNS_9allocatorIS1_EEE21__push_back_slow_pathIRKS1_EEvOT_, symObjAddr: 0x1B100, symBinAddr: 0x10001D890, symSize: 0xD0 }
  - { offsetInCU: 0x55FBC, offset: 0x6D580, size: 0x8, addend: 0x0, symName: __ZNSt3__117__compressed_pairIP8CQPubKeyNS_9allocatorIS1_EEE5firstB7v160006Ev, symObjAddr: 0x1B1D0, symBinAddr: 0x10001D960, symSize: 0x20 }
  - { offsetInCU: 0x55FFB, offset: 0x6D5BF, size: 0x8, addend: 0x0, symName: __ZNSt3__16vectorI8CQPubKeyNS_9allocatorIS1_EEE21_ConstructTransactionC1B7v160006ERS4_m, symObjAddr: 0x1B1F0, symBinAddr: 0x10001D980, symSize: 0x30 }
  - { offsetInCU: 0x56043, offset: 0x6D607, size: 0x8, addend: 0x0, symName: __ZNSt3__116allocator_traitsINS_9allocatorI8CQPubKeyEEE9constructB7v160006IS2_JRKS2_EvvEEvRS3_PT_DpOT0_, symObjAddr: 0x1B220, symBinAddr: 0x10001D9B0, symSize: 0x30 }
  - { offsetInCU: 0x56097, offset: 0x6D65B, size: 0x8, addend: 0x0, symName: __ZNSt3__16vectorI8CQPubKeyNS_9allocatorIS1_EEE7__allocB7v160006Ev, symObjAddr: 0x1B250, symBinAddr: 0x10001D9E0, symSize: 0x20 }
  - { offsetInCU: 0x560BD, offset: 0x6D681, size: 0x8, addend: 0x0, symName: __ZNSt3__16vectorI8CQPubKeyNS_9allocatorIS1_EEE21_ConstructTransactionD1B7v160006Ev, symObjAddr: 0x1B280, symBinAddr: 0x10001DA10, symSize: 0x20 }
  - { offsetInCU: 0x560E7, offset: 0x6D6AB, size: 0x8, addend: 0x0, symName: __ZNSt3__16vectorI8CQPubKeyNS_9allocatorIS1_EEE21_ConstructTransactionC2B7v160006ERS4_m, symObjAddr: 0x1B2A0, symBinAddr: 0x10001DA30, symSize: 0x40 }
  - { offsetInCU: 0x5612F, offset: 0x6D6F3, size: 0x8, addend: 0x0, symName: __ZNSt3__117__compressed_pairIP8CQPubKeyNS_9allocatorIS1_EEE6secondB7v160006Ev, symObjAddr: 0x1B320, symBinAddr: 0x10001DAB0, symSize: 0x20 }
  - { offsetInCU: 0x56155, offset: 0x6D719, size: 0x8, addend: 0x0, symName: __ZNSt3__122__compressed_pair_elemINS_9allocatorI8CQPubKeyEELi1ELb1EE5__getB7v160006Ev, symObjAddr: 0x1B340, symBinAddr: 0x10001DAD0, symSize: 0x10 }
  - { offsetInCU: 0x5617B, offset: 0x6D73F, size: 0x8, addend: 0x0, symName: __ZNSt3__16vectorI8CQPubKeyNS_9allocatorIS1_EEE21_ConstructTransactionD2B7v160006Ev, symObjAddr: 0x1B350, symBinAddr: 0x10001DAE0, symSize: 0x20 }
  - { offsetInCU: 0x561A5, offset: 0x6D769, size: 0x8, addend: 0x0, symName: __ZNKSt3__16vectorI8CQPubKeyNS_9allocatorIS1_EEE11__recommendB7v160006Em, symObjAddr: 0x1B370, symBinAddr: 0x10001DB00, symSize: 0xA0 }
  - { offsetInCU: 0x561FA, offset: 0x6D7BE, size: 0x8, addend: 0x0, symName: __ZNSt3__114__split_bufferI8CQPubKeyRNS_9allocatorIS1_EEEC1EmmS4_, symObjAddr: 0x1B410, symBinAddr: 0x10001DBA0, symSize: 0x40 }
  - { offsetInCU: 0x56250, offset: 0x6D814, size: 0x8, addend: 0x0, symName: __ZNSt3__114__split_bufferI8CQPubKeyRNS_9allocatorIS1_EEED1Ev, symObjAddr: 0x1B580, symBinAddr: 0x10001DD10, symSize: 0x20 }
  - { offsetInCU: 0x5627C, offset: 0x6D840, size: 0x8, addend: 0x0, symName: __ZNKSt3__16vectorI8CQPubKeyNS_9allocatorIS1_EEE8max_sizeEv, symObjAddr: 0x1B5A0, symBinAddr: 0x10001DD30, symSize: 0x60 }
  - { offsetInCU: 0x562A4, offset: 0x6D868, size: 0x8, addend: 0x0, symName: __ZNKSt3__16vectorI8CQPubKeyNS_9allocatorIS1_EEE20__throw_length_errorB7v160006Ev, symObjAddr: 0x1B600, symBinAddr: 0x10001DD90, symSize: 0x20 }
  - { offsetInCU: 0x562CA, offset: 0x6D88E, size: 0x8, addend: 0x0, symName: __ZNKSt3__16vectorI8CQPubKeyNS_9allocatorIS1_EEE8capacityB7v160006Ev, symObjAddr: 0x1B620, symBinAddr: 0x10001DDB0, symSize: 0x40 }
  - { offsetInCU: 0x562FA, offset: 0x6D8BE, size: 0x8, addend: 0x0, symName: __ZNSt3__116allocator_traitsINS_9allocatorI8CQPubKeyEEE8max_sizeB7v160006IS3_vvEEmRKS3_, symObjAddr: 0x1B660, symBinAddr: 0x10001DDF0, symSize: 0x30 }
  - { offsetInCU: 0x56325, offset: 0x6D8E9, size: 0x8, addend: 0x0, symName: __ZNKSt3__16vectorI8CQPubKeyNS_9allocatorIS1_EEE7__allocB7v160006Ev, symObjAddr: 0x1B690, symBinAddr: 0x10001DE20, symSize: 0x20 }
  - { offsetInCU: 0x5634B, offset: 0x6D90F, size: 0x8, addend: 0x0, symName: __ZNKSt3__117__compressed_pairIP8CQPubKeyNS_9allocatorIS1_EEE6secondB7v160006Ev, symObjAddr: 0x1B6B0, symBinAddr: 0x10001DE40, symSize: 0x20 }
  - { offsetInCU: 0x56371, offset: 0x6D935, size: 0x8, addend: 0x0, symName: __ZNKSt3__122__compressed_pair_elemINS_9allocatorI8CQPubKeyEELi1ELb1EE5__getB7v160006Ev, symObjAddr: 0x1B6D0, symBinAddr: 0x10001DE60, symSize: 0x10 }
  - { offsetInCU: 0x56397, offset: 0x6D95B, size: 0x8, addend: 0x0, symName: __ZNKSt3__16vectorI8CQPubKeyNS_9allocatorIS1_EEE9__end_capB7v160006Ev, symObjAddr: 0x1B6E0, symBinAddr: 0x10001DE70, symSize: 0x20 }
  - { offsetInCU: 0x563BD, offset: 0x6D981, size: 0x8, addend: 0x0, symName: __ZNKSt3__117__compressed_pairIP8CQPubKeyNS_9allocatorIS1_EEE5firstB7v160006Ev, symObjAddr: 0x1B700, symBinAddr: 0x10001DE90, symSize: 0x20 }
  - { offsetInCU: 0x563E3, offset: 0x6D9A7, size: 0x8, addend: 0x0, symName: __ZNSt3__114__split_bufferI8CQPubKeyRNS_9allocatorIS1_EEEC2EmmS4_, symObjAddr: 0x1B720, symBinAddr: 0x10001DEB0, symSize: 0xD0 }
  - { offsetInCU: 0x56456, offset: 0x6DA1A, size: 0x8, addend: 0x0, symName: __ZNSt3__117__compressed_pairIP8CQPubKeyRNS_9allocatorIS1_EEEC1B7v160006IDnS5_EEOT_OT0_, symObjAddr: 0x1B7F0, symBinAddr: 0x10001DF80, symSize: 0x30 }
  - { offsetInCU: 0x564AE, offset: 0x6DA72, size: 0x8, addend: 0x0, symName: __ZNSt3__114__split_bufferI8CQPubKeyRNS_9allocatorIS1_EEE7__allocB7v160006Ev, symObjAddr: 0x1B860, symBinAddr: 0x10001DFF0, symSize: 0x20 }
  - { offsetInCU: 0x564D4, offset: 0x6DA98, size: 0x8, addend: 0x0, symName: __ZNSt3__114__split_bufferI8CQPubKeyRNS_9allocatorIS1_EEE9__end_capB7v160006Ev, symObjAddr: 0x1B880, symBinAddr: 0x10001E010, symSize: 0x20 }
  - { offsetInCU: 0x564FA, offset: 0x6DABE, size: 0x8, addend: 0x0, symName: __ZNSt3__117__compressed_pairIP8CQPubKeyRNS_9allocatorIS1_EEEC2B7v160006IDnS5_EEOT_OT0_, symObjAddr: 0x1B8A0, symBinAddr: 0x10001E030, symSize: 0x40 }
  - { offsetInCU: 0x56552, offset: 0x6DB16, size: 0x8, addend: 0x0, symName: __ZNSt3__122__compressed_pair_elemIRNS_9allocatorI8CQPubKeyEELi1ELb0EEC2B7v160006IS4_vEEOT_, symObjAddr: 0x1B8E0, symBinAddr: 0x10001E070, symSize: 0x20 }
  - { offsetInCU: 0x56594, offset: 0x6DB58, size: 0x8, addend: 0x0, symName: __ZNSt3__19allocatorI8CQPubKeyE8allocateB7v160006Em, symObjAddr: 0x1B900, symBinAddr: 0x10001E090, symSize: 0x50 }
  - { offsetInCU: 0x565C8, offset: 0x6DB8C, size: 0x8, addend: 0x0, symName: __ZNSt3__117__compressed_pairIP8CQPubKeyRNS_9allocatorIS1_EEE6secondB7v160006Ev, symObjAddr: 0x1B950, symBinAddr: 0x10001E0E0, symSize: 0x20 }
  - { offsetInCU: 0x565EE, offset: 0x6DBB2, size: 0x8, addend: 0x0, symName: __ZNSt3__122__compressed_pair_elemIRNS_9allocatorI8CQPubKeyEELi1ELb0EE5__getB7v160006Ev, symObjAddr: 0x1B970, symBinAddr: 0x10001E100, symSize: 0x20 }
  - { offsetInCU: 0x56614, offset: 0x6DBD8, size: 0x8, addend: 0x0, symName: __ZNSt3__117__compressed_pairIP8CQPubKeyRNS_9allocatorIS1_EEE5firstB7v160006Ev, symObjAddr: 0x1B990, symBinAddr: 0x10001E120, symSize: 0x20 }
  - { offsetInCU: 0x5663A, offset: 0x6DBFE, size: 0x8, addend: 0x0, symName: __ZNKSt3__16vectorI8CQPubKeyNS_9allocatorIS1_EEE17__annotate_deleteB7v160006Ev, symObjAddr: 0x1B9B0, symBinAddr: 0x10001E140, symSize: 0xC0 }
  - { offsetInCU: 0x56660, offset: 0x6DC24, size: 0x8, addend: 0x0, symName: __ZNSt3__116reverse_iteratorIP8CQPubKeyEC1B7v160006ES2_, symObjAddr: 0x1BAE0, symBinAddr: 0x10001E270, symSize: 0x30 }
  - { offsetInCU: 0x56698, offset: 0x6DC5C, size: 0x8, addend: 0x0, symName: __ZNKSt3__116reverse_iteratorIP8CQPubKeyE4baseB7v160006Ev, symObjAddr: 0x1BB10, symBinAddr: 0x10001E2A0, symSize: 0x20 }
  - { offsetInCU: 0x566BE, offset: 0x6DC82, size: 0x8, addend: 0x0, symName: __ZNKSt3__16vectorI8CQPubKeyNS_9allocatorIS1_EEE14__annotate_newB7v160006Em, symObjAddr: 0x1BB70, symBinAddr: 0x10001E300, symSize: 0xB0 }
  - { offsetInCU: 0x566F3, offset: 0x6DCB7, size: 0x8, addend: 0x0, symName: __ZNKSt3__16vectorI8CQPubKeyNS_9allocatorIS1_EEE31__annotate_contiguous_containerB7v160006EPKvS6_S6_S6_, symObjAddr: 0x1BC30, symBinAddr: 0x10001E3C0, symSize: 0x20 }
  - { offsetInCU: 0x56749, offset: 0x6DD0D, size: 0x8, addend: 0x0, symName: __ZNKSt3__16vectorI8CQPubKeyNS_9allocatorIS1_EEE4dataB7v160006Ev, symObjAddr: 0x1BC50, symBinAddr: 0x10001E3E0, symSize: 0x20 }
  - { offsetInCU: 0x56788, offset: 0x6DD4C, size: 0x8, addend: 0x0, symName: __ZNKSt3__111__move_loopINS_17_ClassicAlgPolicyEEclB7v160006INS_16reverse_iteratorIP8CQPubKeyEES7_S7_EENS_4pairIT_T1_EES9_T0_SA_, symObjAddr: 0x1C080, symBinAddr: 0x10001E810, symSize: 0xA0 }
  - { offsetInCU: 0x567F3, offset: 0x6DDB7, size: 0x8, addend: 0x0, symName: __ZNSt3__119__unwrap_range_implINS_16reverse_iteratorIP8CQPubKeyEES4_E8__unwrapB7v160006ES4_S4_, symObjAddr: 0x1C260, symBinAddr: 0x10001E9F0, symSize: 0x90 }
  - { offsetInCU: 0x56828, offset: 0x6DDEC, size: 0x8, addend: 0x0, symName: __ZNSt3__14pairINS_16reverse_iteratorIP8CQPubKeyEES4_EC1B7v160006IS4_S4_LPv0EEEOT_OT0_, symObjAddr: 0x1C2F0, symBinAddr: 0x10001EA80, symSize: 0x30 }
  - { offsetInCU: 0x56886, offset: 0x6DE4A, size: 0x8, addend: 0x0, symName: __ZNSt3__14pairINS_16reverse_iteratorIP8CQPubKeyEES4_EC2B7v160006IS4_S4_LPv0EEEOT_OT0_, symObjAddr: 0x1C320, symBinAddr: 0x10001EAB0, symSize: 0x40 }
  - { offsetInCU: 0x568E9, offset: 0x6DEAD, size: 0x8, addend: 0x0, symName: __ZNSt3__18_IterOpsINS_17_ClassicAlgPolicyEE11__iter_moveB7v160006IRNS_16reverse_iteratorIP8CQPubKeyEEEENS_9enable_ifIXsr12is_referenceIDTdeclsr3stdE7declvalIRT_EEEEE5valueEDTclsr3stdE4movedeclsr3stdE7declvalISB_EEEEE4typeEOSA_, symObjAddr: 0x1C3A0, symBinAddr: 0x10001EB30, symSize: 0x20 }
  - { offsetInCU: 0x56914, offset: 0x6DED8, size: 0x8, addend: 0x0, symName: __ZNKSt3__116reverse_iteratorIP8CQPubKeyEdeB7v160006Ev, symObjAddr: 0x1C3C0, symBinAddr: 0x10001EB50, symSize: 0x30 }
  - { offsetInCU: 0x56949, offset: 0x6DF0D, size: 0x8, addend: 0x0, symName: __ZNSt3__116reverse_iteratorIP8CQPubKeyEppB7v160006Ev, symObjAddr: 0x1C3F0, symBinAddr: 0x10001EB80, symSize: 0x20 }
  - { offsetInCU: 0x5696F, offset: 0x6DF33, size: 0x8, addend: 0x0, symName: __ZNSt3__18_IterOpsINS_17_ClassicAlgPolicyEE25__validate_iter_referenceB7v160006IRNS_16reverse_iteratorIP8CQPubKeyEEEEvv, symObjAddr: 0x1C410, symBinAddr: 0x10001EBA0, symSize: 0x10 }
  - { offsetInCU: 0x5698C, offset: 0x6DF50, size: 0x8, addend: 0x0, symName: __ZNSt3__118__unwrap_iter_implINS_16reverse_iteratorIP8CQPubKeyEELb0EE8__unwrapB7v160006ES4_, symObjAddr: 0x1C420, symBinAddr: 0x10001EBB0, symSize: 0x20 }
  - { offsetInCU: 0x569AE, offset: 0x6DF72, size: 0x8, addend: 0x0, symName: __ZNSt3__119__unwrap_range_implINS_16reverse_iteratorIP8CQPubKeyEES4_E8__rewrapB7v160006ES4_S4_, symObjAddr: 0x1C440, symBinAddr: 0x10001EBD0, symSize: 0x60 }
  - { offsetInCU: 0x569DE, offset: 0x6DFA2, size: 0x8, addend: 0x0, symName: __ZNSt3__118__unwrap_iter_implINS_16reverse_iteratorIP8CQPubKeyEELb0EE8__rewrapB7v160006ES4_S4_, symObjAddr: 0x1C4A0, symBinAddr: 0x10001EC30, symSize: 0x30 }
  - { offsetInCU: 0x56A0B, offset: 0x6DFCF, size: 0x8, addend: 0x0, symName: __ZNSt3__116reverse_iteratorIP8CQPubKeyEC2B7v160006ES2_, symObjAddr: 0x1C4D0, symBinAddr: 0x10001EC60, symSize: 0x30 }
  - { offsetInCU: 0x56A43, offset: 0x6E007, size: 0x8, addend: 0x0, symName: __ZNSt3__114__split_bufferI8CQPubKeyRNS_9allocatorIS1_EEED2Ev, symObjAddr: 0x1C500, symBinAddr: 0x10001EC90, symSize: 0x70 }
  - { offsetInCU: 0x56A6F, offset: 0x6E033, size: 0x8, addend: 0x0, symName: __ZNSt3__114__split_bufferI8CQPubKeyRNS_9allocatorIS1_EEE5clearB7v160006Ev, symObjAddr: 0x1C570, symBinAddr: 0x10001ED00, symSize: 0x20 }
  - { offsetInCU: 0x56A95, offset: 0x6E059, size: 0x8, addend: 0x0, symName: __ZNSt3__116allocator_traitsINS_9allocatorI8CQPubKeyEEE10deallocateB7v160006ERS3_PS2_m, symObjAddr: 0x1C590, symBinAddr: 0x10001ED20, symSize: 0x30 }
  - { offsetInCU: 0x56AD6, offset: 0x6E09A, size: 0x8, addend: 0x0, symName: __ZNKSt3__114__split_bufferI8CQPubKeyRNS_9allocatorIS1_EEE8capacityB7v160006Ev, symObjAddr: 0x1C5C0, symBinAddr: 0x10001ED50, symSize: 0x40 }
  - { offsetInCU: 0x56AFC, offset: 0x6E0C0, size: 0x8, addend: 0x0, symName: __ZNSt3__114__split_bufferI8CQPubKeyRNS_9allocatorIS1_EEE17__destruct_at_endB7v160006EPS1_, symObjAddr: 0x1C600, symBinAddr: 0x10001ED90, symSize: 0x30 }
  - { offsetInCU: 0x56B30, offset: 0x6E0F4, size: 0x8, addend: 0x0, symName: __ZNSt3__114__split_bufferI8CQPubKeyRNS_9allocatorIS1_EEE17__destruct_at_endB7v160006EPS1_NS_17integral_constantIbLb0EEE, symObjAddr: 0x1C630, symBinAddr: 0x10001EDC0, symSize: 0x80 }
  - { offsetInCU: 0x56B71, offset: 0x6E135, size: 0x8, addend: 0x0, symName: __ZNSt3__116allocator_traitsINS_9allocatorI8CQPubKeyEEE7destroyB7v160006IS2_vvEEvRS3_PT_, symObjAddr: 0x1C6B0, symBinAddr: 0x10001EE40, symSize: 0x20 }
  - { offsetInCU: 0x56BAB, offset: 0x6E16F, size: 0x8, addend: 0x0, symName: __ZNSt3__19allocatorI8CQPubKeyE10deallocateB7v160006EPS1_m, symObjAddr: 0x1C700, symBinAddr: 0x10001EE90, symSize: 0x40 }
  - { offsetInCU: 0x56BED, offset: 0x6E1B1, size: 0x8, addend: 0x0, symName: __ZNKSt3__114__split_bufferI8CQPubKeyRNS_9allocatorIS1_EEE9__end_capB7v160006Ev, symObjAddr: 0x1C740, symBinAddr: 0x10001EED0, symSize: 0x20 }
  - { offsetInCU: 0x56C13, offset: 0x6E1D7, size: 0x8, addend: 0x0, symName: __ZNKSt3__117__compressed_pairIP8CQPubKeyRNS_9allocatorIS1_EEE5firstB7v160006Ev, symObjAddr: 0x1C760, symBinAddr: 0x10001EEF0, symSize: 0x20 }
  - { offsetInCU: 0x56C39, offset: 0x6E1FD, size: 0x8, addend: 0x0, symName: __ZNSt3__16vectorI7uint160NS_9allocatorIS1_EEE9__end_capB7v160006Ev, symObjAddr: 0x1C780, symBinAddr: 0x10001EF10, symSize: 0x20 }
  - { offsetInCU: 0x56C64, offset: 0x6E228, size: 0x8, addend: 0x0, symName: __ZNSt3__16vectorI7uint160NS_9allocatorIS1_EEE22__construct_one_at_endB7v160006IJS1_EEEvDpOT_, symObjAddr: 0x1C7A0, symBinAddr: 0x10001EF30, symSize: 0x90 }
  - { offsetInCU: 0x56CB3, offset: 0x6E277, size: 0x8, addend: 0x0, symName: __ZNSt3__16vectorI7uint160NS_9allocatorIS1_EEE21__push_back_slow_pathIS1_EEvOT_, symObjAddr: 0x1C830, symBinAddr: 0x10001EFC0, symSize: 0xD0 }
  - { offsetInCU: 0x56D11, offset: 0x6E2D5, size: 0x8, addend: 0x0, symName: __ZNSt3__117__compressed_pairIP7uint160NS_9allocatorIS1_EEE5firstB7v160006Ev, symObjAddr: 0x1C900, symBinAddr: 0x10001F090, symSize: 0x20 }
  - { offsetInCU: 0x56D37, offset: 0x6E2FB, size: 0x8, addend: 0x0, symName: __ZNSt3__122__compressed_pair_elemIP7uint160Li0ELb0EE5__getB7v160006Ev, symObjAddr: 0x1C920, symBinAddr: 0x10001F0B0, symSize: 0x10 }
  - { offsetInCU: 0x56D76, offset: 0x6E33A, size: 0x8, addend: 0x0, symName: __ZNSt3__16vectorI7uint160NS_9allocatorIS1_EEE21_ConstructTransactionC1B7v160006ERS4_m, symObjAddr: 0x1C930, symBinAddr: 0x10001F0C0, symSize: 0x30 }
  - { offsetInCU: 0x56DBE, offset: 0x6E382, size: 0x8, addend: 0x0, symName: __ZNSt3__116allocator_traitsINS_9allocatorI7uint160EEE9constructB7v160006IS2_JS2_EvvEEvRS3_PT_DpOT0_, symObjAddr: 0x1C960, symBinAddr: 0x10001F0F0, symSize: 0x30 }
  - { offsetInCU: 0x56E12, offset: 0x6E3D6, size: 0x8, addend: 0x0, symName: __ZNSt3__16vectorI7uint160NS_9allocatorIS1_EEE7__allocB7v160006Ev, symObjAddr: 0x1C990, symBinAddr: 0x10001F120, symSize: 0x20 }
  - { offsetInCU: 0x56E38, offset: 0x6E3FC, size: 0x8, addend: 0x0, symName: __ZNSt3__16vectorI7uint160NS_9allocatorIS1_EEE21_ConstructTransactionD1B7v160006Ev, symObjAddr: 0x1C9C0, symBinAddr: 0x10001F150, symSize: 0x20 }
  - { offsetInCU: 0x56E62, offset: 0x6E426, size: 0x8, addend: 0x0, symName: __ZNSt3__16vectorI7uint160NS_9allocatorIS1_EEE21_ConstructTransactionC2B7v160006ERS4_m, symObjAddr: 0x1C9E0, symBinAddr: 0x10001F170, symSize: 0x40 }
  - { offsetInCU: 0x56EAA, offset: 0x6E46E, size: 0x8, addend: 0x0, symName: __ZNSt3__117__compressed_pairIP7uint160NS_9allocatorIS1_EEE6secondB7v160006Ev, symObjAddr: 0x1CA60, symBinAddr: 0x10001F1F0, symSize: 0x20 }
  - { offsetInCU: 0x56ED0, offset: 0x6E494, size: 0x8, addend: 0x0, symName: __ZNSt3__122__compressed_pair_elemINS_9allocatorI7uint160EELi1ELb1EE5__getB7v160006Ev, symObjAddr: 0x1CA80, symBinAddr: 0x10001F210, symSize: 0x10 }
  - { offsetInCU: 0x56EF6, offset: 0x6E4BA, size: 0x8, addend: 0x0, symName: __ZNSt3__16vectorI7uint160NS_9allocatorIS1_EEE21_ConstructTransactionD2B7v160006Ev, symObjAddr: 0x1CA90, symBinAddr: 0x10001F220, symSize: 0x20 }
  - { offsetInCU: 0x56F20, offset: 0x6E4E4, size: 0x8, addend: 0x0, symName: __ZNKSt3__16vectorI7uint160NS_9allocatorIS1_EEE11__recommendB7v160006Em, symObjAddr: 0x1CAB0, symBinAddr: 0x10001F240, symSize: 0xA0 }
  - { offsetInCU: 0x56F75, offset: 0x6E539, size: 0x8, addend: 0x0, symName: __ZNSt3__114__split_bufferI7uint160RNS_9allocatorIS1_EEEC1EmmS4_, symObjAddr: 0x1CB50, symBinAddr: 0x10001F2E0, symSize: 0x40 }
  - { offsetInCU: 0x56FCB, offset: 0x6E58F, size: 0x8, addend: 0x0, symName: __ZNSt3__114__split_bufferI7uint160RNS_9allocatorIS1_EEED1Ev, symObjAddr: 0x1CCC0, symBinAddr: 0x10001F450, symSize: 0x20 }
  - { offsetInCU: 0x56FF7, offset: 0x6E5BB, size: 0x8, addend: 0x0, symName: __ZNKSt3__16vectorI7uint160NS_9allocatorIS1_EEE8max_sizeEv, symObjAddr: 0x1CCE0, symBinAddr: 0x10001F470, symSize: 0x60 }
  - { offsetInCU: 0x5701F, offset: 0x6E5E3, size: 0x8, addend: 0x0, symName: __ZNKSt3__16vectorI7uint160NS_9allocatorIS1_EEE20__throw_length_errorB7v160006Ev, symObjAddr: 0x1CD40, symBinAddr: 0x10001F4D0, symSize: 0x20 }
  - { offsetInCU: 0x57045, offset: 0x6E609, size: 0x8, addend: 0x0, symName: __ZNKSt3__16vectorI7uint160NS_9allocatorIS1_EEE8capacityB7v160006Ev, symObjAddr: 0x1CD60, symBinAddr: 0x10001F4F0, symSize: 0x40 }
  - { offsetInCU: 0x57075, offset: 0x6E639, size: 0x8, addend: 0x0, symName: __ZNSt3__116allocator_traitsINS_9allocatorI7uint160EEE8max_sizeB7v160006IS3_vvEEmRKS3_, symObjAddr: 0x1CDA0, symBinAddr: 0x10001F530, symSize: 0x30 }
  - { offsetInCU: 0x570A0, offset: 0x6E664, size: 0x8, addend: 0x0, symName: __ZNKSt3__16vectorI7uint160NS_9allocatorIS1_EEE7__allocB7v160006Ev, symObjAddr: 0x1CDD0, symBinAddr: 0x10001F560, symSize: 0x20 }
  - { offsetInCU: 0x570C6, offset: 0x6E68A, size: 0x8, addend: 0x0, symName: __ZNKSt3__117__compressed_pairIP7uint160NS_9allocatorIS1_EEE6secondB7v160006Ev, symObjAddr: 0x1CDF0, symBinAddr: 0x10001F580, symSize: 0x20 }
  - { offsetInCU: 0x570EC, offset: 0x6E6B0, size: 0x8, addend: 0x0, symName: __ZNKSt3__122__compressed_pair_elemINS_9allocatorI7uint160EELi1ELb1EE5__getB7v160006Ev, symObjAddr: 0x1CE10, symBinAddr: 0x10001F5A0, symSize: 0x10 }
  - { offsetInCU: 0x57112, offset: 0x6E6D6, size: 0x8, addend: 0x0, symName: __ZNKSt3__16vectorI7uint160NS_9allocatorIS1_EEE9__end_capB7v160006Ev, symObjAddr: 0x1CE20, symBinAddr: 0x10001F5B0, symSize: 0x20 }
  - { offsetInCU: 0x57138, offset: 0x6E6FC, size: 0x8, addend: 0x0, symName: __ZNKSt3__117__compressed_pairIP7uint160NS_9allocatorIS1_EEE5firstB7v160006Ev, symObjAddr: 0x1CE40, symBinAddr: 0x10001F5D0, symSize: 0x20 }
  - { offsetInCU: 0x5715E, offset: 0x6E722, size: 0x8, addend: 0x0, symName: __ZNKSt3__122__compressed_pair_elemIP7uint160Li0ELb0EE5__getB7v160006Ev, symObjAddr: 0x1CE60, symBinAddr: 0x10001F5F0, symSize: 0x10 }
  - { offsetInCU: 0x57184, offset: 0x6E748, size: 0x8, addend: 0x0, symName: __ZNSt3__114__split_bufferI7uint160RNS_9allocatorIS1_EEEC2EmmS4_, symObjAddr: 0x1CE70, symBinAddr: 0x10001F600, symSize: 0xC0 }
  - { offsetInCU: 0x571F7, offset: 0x6E7BB, size: 0x8, addend: 0x0, symName: __ZNSt3__117__compressed_pairIP7uint160RNS_9allocatorIS1_EEEC1B7v160006IDnS5_EEOT_OT0_, symObjAddr: 0x1CF30, symBinAddr: 0x10001F6C0, symSize: 0x30 }
  - { offsetInCU: 0x5724F, offset: 0x6E813, size: 0x8, addend: 0x0, symName: __ZNSt3__114__split_bufferI7uint160RNS_9allocatorIS1_EEE7__allocB7v160006Ev, symObjAddr: 0x1CFA0, symBinAddr: 0x10001F730, symSize: 0x20 }
  - { offsetInCU: 0x57275, offset: 0x6E839, size: 0x8, addend: 0x0, symName: __ZNSt3__114__split_bufferI7uint160RNS_9allocatorIS1_EEE9__end_capB7v160006Ev, symObjAddr: 0x1CFC0, symBinAddr: 0x10001F750, symSize: 0x20 }
  - { offsetInCU: 0x5729B, offset: 0x6E85F, size: 0x8, addend: 0x0, symName: __ZNSt3__117__compressed_pairIP7uint160RNS_9allocatorIS1_EEEC2B7v160006IDnS5_EEOT_OT0_, symObjAddr: 0x1CFE0, symBinAddr: 0x10001F770, symSize: 0x40 }
  - { offsetInCU: 0x572F3, offset: 0x6E8B7, size: 0x8, addend: 0x0, symName: __ZNSt3__122__compressed_pair_elemIRNS_9allocatorI7uint160EELi1ELb0EEC2B7v160006IS4_vEEOT_, symObjAddr: 0x1D020, symBinAddr: 0x10001F7B0, symSize: 0x20 }
  - { offsetInCU: 0x57335, offset: 0x6E8F9, size: 0x8, addend: 0x0, symName: __ZNSt3__19allocatorI7uint160E8allocateB7v160006Em, symObjAddr: 0x1D040, symBinAddr: 0x10001F7D0, symSize: 0x50 }
  - { offsetInCU: 0x57369, offset: 0x6E92D, size: 0x8, addend: 0x0, symName: __ZNSt3__117__compressed_pairIP7uint160RNS_9allocatorIS1_EEE6secondB7v160006Ev, symObjAddr: 0x1D090, symBinAddr: 0x10001F820, symSize: 0x20 }
  - { offsetInCU: 0x5738F, offset: 0x6E953, size: 0x8, addend: 0x0, symName: __ZNSt3__122__compressed_pair_elemIRNS_9allocatorI7uint160EELi1ELb0EE5__getB7v160006Ev, symObjAddr: 0x1D0B0, symBinAddr: 0x10001F840, symSize: 0x20 }
  - { offsetInCU: 0x573B5, offset: 0x6E979, size: 0x8, addend: 0x0, symName: __ZNSt3__117__compressed_pairIP7uint160RNS_9allocatorIS1_EEE5firstB7v160006Ev, symObjAddr: 0x1D0D0, symBinAddr: 0x10001F860, symSize: 0x20 }
  - { offsetInCU: 0x573DB, offset: 0x6E99F, size: 0x8, addend: 0x0, symName: __ZNKSt3__16vectorI7uint160NS_9allocatorIS1_EEE17__annotate_deleteB7v160006Ev, symObjAddr: 0x1D0F0, symBinAddr: 0x10001F880, symSize: 0xB0 }
  - { offsetInCU: 0x57401, offset: 0x6E9C5, size: 0x8, addend: 0x0, symName: __ZNSt3__116reverse_iteratorIP7uint160EC1B7v160006ES2_, symObjAddr: 0x1D210, symBinAddr: 0x10001F9A0, symSize: 0x30 }
  - { offsetInCU: 0x57439, offset: 0x6E9FD, size: 0x8, addend: 0x0, symName: __ZNKSt3__116reverse_iteratorIP7uint160E4baseB7v160006Ev, symObjAddr: 0x1D240, symBinAddr: 0x10001F9D0, symSize: 0x20 }
  - { offsetInCU: 0x5745F, offset: 0x6EA23, size: 0x8, addend: 0x0, symName: __ZNKSt3__16vectorI7uint160NS_9allocatorIS1_EEE14__annotate_newB7v160006Em, symObjAddr: 0x1D2A0, symBinAddr: 0x10001FA30, symSize: 0xA0 }
  - { offsetInCU: 0x57494, offset: 0x6EA58, size: 0x8, addend: 0x0, symName: __ZNKSt3__16vectorI7uint160NS_9allocatorIS1_EEE31__annotate_contiguous_containerB7v160006EPKvS6_S6_S6_, symObjAddr: 0x1D350, symBinAddr: 0x10001FAE0, symSize: 0x20 }
  - { offsetInCU: 0x574EA, offset: 0x6EAAE, size: 0x8, addend: 0x0, symName: __ZNKSt3__16vectorI7uint160NS_9allocatorIS1_EEE4dataB7v160006Ev, symObjAddr: 0x1D370, symBinAddr: 0x10001FB00, symSize: 0x20 }
  - { offsetInCU: 0x57529, offset: 0x6EAED, size: 0x8, addend: 0x0, symName: __ZNKSt3__111__move_loopINS_17_ClassicAlgPolicyEEclB7v160006INS_16reverse_iteratorIP7uint160EES7_S7_EENS_4pairIT_T1_EES9_T0_SA_, symObjAddr: 0x1D7A0, symBinAddr: 0x10001FF30, symSize: 0xB0 }
  - { offsetInCU: 0x57594, offset: 0x6EB58, size: 0x8, addend: 0x0, symName: __ZNSt3__119__unwrap_range_implINS_16reverse_iteratorIP7uint160EES4_E8__unwrapB7v160006ES4_S4_, symObjAddr: 0x1D990, symBinAddr: 0x100020120, symSize: 0x90 }
  - { offsetInCU: 0x575C9, offset: 0x6EB8D, size: 0x8, addend: 0x0, symName: __ZNSt3__14pairINS_16reverse_iteratorIP7uint160EES4_EC1B7v160006IS4_S4_LPv0EEEOT_OT0_, symObjAddr: 0x1DA20, symBinAddr: 0x1000201B0, symSize: 0x30 }
  - { offsetInCU: 0x57627, offset: 0x6EBEB, size: 0x8, addend: 0x0, symName: __ZNSt3__14pairINS_16reverse_iteratorIP7uint160EES4_EC2B7v160006IS4_S4_LPv0EEEOT_OT0_, symObjAddr: 0x1DA50, symBinAddr: 0x1000201E0, symSize: 0x40 }
  - { offsetInCU: 0x57685, offset: 0x6EC49, size: 0x8, addend: 0x0, symName: __ZNSt3__18_IterOpsINS_17_ClassicAlgPolicyEE11__iter_moveB7v160006IRNS_16reverse_iteratorIP7uint160EEEENS_9enable_ifIXsr12is_referenceIDTdeclsr3stdE7declvalIRT_EEEEE5valueEDTclsr3stdE4movedeclsr3stdE7declvalISB_EEEEE4typeEOSA_, symObjAddr: 0x1DAD0, symBinAddr: 0x100020260, symSize: 0x20 }
  - { offsetInCU: 0x576B0, offset: 0x6EC74, size: 0x8, addend: 0x0, symName: __ZNKSt3__116reverse_iteratorIP7uint160EdeB7v160006Ev, symObjAddr: 0x1DAF0, symBinAddr: 0x100020280, symSize: 0x30 }
  - { offsetInCU: 0x576E5, offset: 0x6ECA9, size: 0x8, addend: 0x0, symName: __ZNSt3__116reverse_iteratorIP7uint160EppB7v160006Ev, symObjAddr: 0x1DB20, symBinAddr: 0x1000202B0, symSize: 0x20 }
  - { offsetInCU: 0x5770B, offset: 0x6ECCF, size: 0x8, addend: 0x0, symName: __ZNSt3__18_IterOpsINS_17_ClassicAlgPolicyEE25__validate_iter_referenceB7v160006IRNS_16reverse_iteratorIP7uint160EEEEvv, symObjAddr: 0x1DB40, symBinAddr: 0x1000202D0, symSize: 0x10 }
  - { offsetInCU: 0x57728, offset: 0x6ECEC, size: 0x8, addend: 0x0, symName: __ZNSt3__118__unwrap_iter_implINS_16reverse_iteratorIP7uint160EELb0EE8__unwrapB7v160006ES4_, symObjAddr: 0x1DB50, symBinAddr: 0x1000202E0, symSize: 0x20 }
  - { offsetInCU: 0x5774A, offset: 0x6ED0E, size: 0x8, addend: 0x0, symName: __ZNSt3__119__unwrap_range_implINS_16reverse_iteratorIP7uint160EES4_E8__rewrapB7v160006ES4_S4_, symObjAddr: 0x1DB70, symBinAddr: 0x100020300, symSize: 0x60 }
  - { offsetInCU: 0x5777A, offset: 0x6ED3E, size: 0x8, addend: 0x0, symName: __ZNSt3__118__unwrap_iter_implINS_16reverse_iteratorIP7uint160EELb0EE8__rewrapB7v160006ES4_S4_, symObjAddr: 0x1DBD0, symBinAddr: 0x100020360, symSize: 0x30 }
  - { offsetInCU: 0x577A7, offset: 0x6ED6B, size: 0x8, addend: 0x0, symName: __ZNSt3__116reverse_iteratorIP7uint160EC2B7v160006ES2_, symObjAddr: 0x1DC00, symBinAddr: 0x100020390, symSize: 0x30 }
  - { offsetInCU: 0x577DF, offset: 0x6EDA3, size: 0x8, addend: 0x0, symName: __ZNSt3__114__split_bufferI7uint160RNS_9allocatorIS1_EEED2Ev, symObjAddr: 0x1DC30, symBinAddr: 0x1000203C0, symSize: 0x70 }
  - { offsetInCU: 0x5780B, offset: 0x6EDCF, size: 0x8, addend: 0x0, symName: __ZNSt3__114__split_bufferI7uint160RNS_9allocatorIS1_EEE5clearB7v160006Ev, symObjAddr: 0x1DCA0, symBinAddr: 0x100020430, symSize: 0x20 }
  - { offsetInCU: 0x57831, offset: 0x6EDF5, size: 0x8, addend: 0x0, symName: __ZNSt3__116allocator_traitsINS_9allocatorI7uint160EEE10deallocateB7v160006ERS3_PS2_m, symObjAddr: 0x1DCC0, symBinAddr: 0x100020450, symSize: 0x30 }
  - { offsetInCU: 0x57872, offset: 0x6EE36, size: 0x8, addend: 0x0, symName: __ZNKSt3__114__split_bufferI7uint160RNS_9allocatorIS1_EEE8capacityB7v160006Ev, symObjAddr: 0x1DCF0, symBinAddr: 0x100020480, symSize: 0x40 }
  - { offsetInCU: 0x57898, offset: 0x6EE5C, size: 0x8, addend: 0x0, symName: __ZNSt3__114__split_bufferI7uint160RNS_9allocatorIS1_EEE17__destruct_at_endB7v160006EPS1_, symObjAddr: 0x1DD30, symBinAddr: 0x1000204C0, symSize: 0x30 }
  - { offsetInCU: 0x578CC, offset: 0x6EE90, size: 0x8, addend: 0x0, symName: __ZNSt3__114__split_bufferI7uint160RNS_9allocatorIS1_EEE17__destruct_at_endB7v160006EPS1_NS_17integral_constantIbLb0EEE, symObjAddr: 0x1DD60, symBinAddr: 0x1000204F0, symSize: 0x80 }
  - { offsetInCU: 0x5790D, offset: 0x6EED1, size: 0x8, addend: 0x0, symName: __ZNSt3__116allocator_traitsINS_9allocatorI7uint160EEE7destroyB7v160006IS2_vvEEvRS3_PT_, symObjAddr: 0x1DDE0, symBinAddr: 0x100020570, symSize: 0x20 }
  - { offsetInCU: 0x57947, offset: 0x6EF0B, size: 0x8, addend: 0x0, symName: __ZNSt3__19allocatorI7uint160E10deallocateB7v160006EPS1_m, symObjAddr: 0x1DE30, symBinAddr: 0x1000205C0, symSize: 0x50 }
  - { offsetInCU: 0x57989, offset: 0x6EF4D, size: 0x8, addend: 0x0, symName: __ZNKSt3__114__split_bufferI7uint160RNS_9allocatorIS1_EEE9__end_capB7v160006Ev, symObjAddr: 0x1DE80, symBinAddr: 0x100020610, symSize: 0x20 }
  - { offsetInCU: 0x579AF, offset: 0x6EF73, size: 0x8, addend: 0x0, symName: __ZNKSt3__117__compressed_pairIP7uint160RNS_9allocatorIS1_EEE5firstB7v160006Ev, symObjAddr: 0x1DEA0, symBinAddr: 0x100020630, symSize: 0x20 }
  - { offsetInCU: 0x579D5, offset: 0x6EF99, size: 0x8, addend: 0x0, symName: __ZN15CQuantumWitnessC2Ev, symObjAddr: 0x1DEC0, symBinAddr: 0x100020650, symSize: 0x50 }
  - { offsetInCU: 0x579FF, offset: 0x6EFC3, size: 0x8, addend: 0x0, symName: __ZN20CAggregatedSignatureC1Ev, symObjAddr: 0x1DF10, symBinAddr: 0x1000206A0, symSize: 0x20 }
  - { offsetInCU: 0x57A29, offset: 0x6EFED, size: 0x8, addend: 0x0, symName: __ZN20CAggregatedSignatureC2Ev, symObjAddr: 0x1DF30, symBinAddr: 0x1000206C0, symSize: 0x50 }
  - { offsetInCU: 0x57A53, offset: 0x6F017, size: 0x8, addend: 0x0, symName: __ZNSt3__16vectorIhNS_9allocatorIhEEEaSB7v160006ERKS3_, symObjAddr: 0x1DF80, symBinAddr: 0x100020710, symSize: 0x60 }
  - { offsetInCU: 0x57A8A, offset: 0x6F04E, size: 0x8, addend: 0x0, symName: __ZNSt3__16vectorI7uint256NS_9allocatorIS1_EEEaSB7v160006ERKS4_, symObjAddr: 0x1DFE0, symBinAddr: 0x100020770, symSize: 0x60 }
  - { offsetInCU: 0x57AC1, offset: 0x6F085, size: 0x8, addend: 0x0, symName: __ZNSt3__16vectorIhNS_9allocatorIhEEE19__copy_assign_allocB7v160006ERKS3_, symObjAddr: 0x1E040, symBinAddr: 0x1000207D0, symSize: 0x30 }
  - { offsetInCU: 0x57AF6, offset: 0x6F0BA, size: 0x8, addend: 0x0, symName: __ZNSt3__16vectorIhNS_9allocatorIhEEE6assignIPhLi0EEEvT_S6_, symObjAddr: 0x1E070, symBinAddr: 0x100020800, symSize: 0x160 }
  - { offsetInCU: 0x57B95, offset: 0x6F159, size: 0x8, addend: 0x0, symName: __ZNSt3__16vectorIhNS_9allocatorIhEEE19__copy_assign_allocB7v160006ERKS3_NS_17integral_constantIbLb0EEE, symObjAddr: 0x1E1D0, symBinAddr: 0x100020960, symSize: 0x10 }
  - { offsetInCU: 0x57BD3, offset: 0x6F197, size: 0x8, addend: 0x0, symName: __ZNSt3__16vectorIhNS_9allocatorIhEEE13__vdeallocateEv, symObjAddr: 0x1E2A0, symBinAddr: 0x100020A30, symSize: 0x80 }
  - { offsetInCU: 0x57BFB, offset: 0x6F1BF, size: 0x8, addend: 0x0, symName: __ZNKSt3__114__copy_trivialclB7v160006IhhLi0EEENS_4pairIPT_PT0_EES4_S4_S6_, symObjAddr: 0x1E470, symBinAddr: 0x100020C00, symSize: 0x40 }
  - { offsetInCU: 0x57C63, offset: 0x6F227, size: 0x8, addend: 0x0, symName: __ZNSt3__16vectorIhNS_9allocatorIhEEE5clearB7v160006Ev, symObjAddr: 0x1E4B0, symBinAddr: 0x100020C40, symSize: 0x50 }
  - { offsetInCU: 0x57C98, offset: 0x6F25C, size: 0x8, addend: 0x0, symName: __ZNSt3__16vectorI7uint256NS_9allocatorIS1_EEE19__copy_assign_allocB7v160006ERKS4_, symObjAddr: 0x1E500, symBinAddr: 0x100020C90, symSize: 0x30 }
  - { offsetInCU: 0x57CCD, offset: 0x6F291, size: 0x8, addend: 0x0, symName: __ZNSt3__16vectorI7uint256NS_9allocatorIS1_EEE6assignIPS1_Li0EEEvT_S7_, symObjAddr: 0x1E530, symBinAddr: 0x100020CC0, symSize: 0x160 }
  - { offsetInCU: 0x57D6C, offset: 0x6F330, size: 0x8, addend: 0x0, symName: __ZNSt3__16vectorI7uint256NS_9allocatorIS1_EEE19__copy_assign_allocB7v160006ERKS4_NS_17integral_constantIbLb0EEE, symObjAddr: 0x1E690, symBinAddr: 0x100020E20, symSize: 0x10 }
  - { offsetInCU: 0x57DAA, offset: 0x6F36E, size: 0x8, addend: 0x0, symName: __ZNKSt3__16vectorI7uint256NS_9allocatorIS1_EEE8capacityB7v160006Ev, symObjAddr: 0x1E6D0, symBinAddr: 0x100020E60, symSize: 0x30 }
  - { offsetInCU: 0x57DD0, offset: 0x6F394, size: 0x8, addend: 0x0, symName: __ZNKSt3__16vectorI7uint256NS_9allocatorIS1_EEE4sizeB7v160006Ev, symObjAddr: 0x1E700, symBinAddr: 0x100020E90, symSize: 0x20 }
  - { offsetInCU: 0x57DF6, offset: 0x6F3BA, size: 0x8, addend: 0x0, symName: __ZNSt3__16vectorI7uint256NS_9allocatorIS1_EEE18__construct_at_endIPS1_Li0EEEvT_S7_m, symObjAddr: 0x1E7B0, symBinAddr: 0x100020F40, symSize: 0x90 }
  - { offsetInCU: 0x57E69, offset: 0x6F42D, size: 0x8, addend: 0x0, symName: __ZNSt3__16vectorI7uint256NS_9allocatorIS1_EEE17__destruct_at_endB7v160006EPS1_, symObjAddr: 0x1E840, symBinAddr: 0x100020FD0, symSize: 0x60 }
  - { offsetInCU: 0x57EAD, offset: 0x6F471, size: 0x8, addend: 0x0, symName: __ZNSt3__16vectorI7uint256NS_9allocatorIS1_EEE13__vdeallocateEv, symObjAddr: 0x1E8A0, symBinAddr: 0x100021030, symSize: 0x80 }
  - { offsetInCU: 0x57ED5, offset: 0x6F499, size: 0x8, addend: 0x0, symName: __ZNSt3__16vectorI7uint256NS_9allocatorIS1_EEE11__vallocateB7v160006Em, symObjAddr: 0x1E920, symBinAddr: 0x1000210B0, symSize: 0xA0 }
  - { offsetInCU: 0x57F19, offset: 0x6F4DD, size: 0x8, addend: 0x0, symName: __ZNKSt3__16vectorI7uint256NS_9allocatorIS1_EEE11__recommendB7v160006Em, symObjAddr: 0x1E9C0, symBinAddr: 0x100021150, symSize: 0xA0 }
  - { offsetInCU: 0x57F6E, offset: 0x6F532, size: 0x8, addend: 0x0, symName: __ZNKSt3__16vectorI7uint256NS_9allocatorIS1_EEE9__end_capB7v160006Ev, symObjAddr: 0x1EA90, symBinAddr: 0x100021220, symSize: 0x20 }
  - { offsetInCU: 0x57F94, offset: 0x6F558, size: 0x8, addend: 0x0, symName: __ZNKSt3__117__compressed_pairIP7uint256NS_9allocatorIS1_EEE5firstB7v160006Ev, symObjAddr: 0x1EAB0, symBinAddr: 0x100021240, symSize: 0x20 }
  - { offsetInCU: 0x57FBA, offset: 0x6F57E, size: 0x8, addend: 0x0, symName: __ZNKSt3__122__compressed_pair_elemIP7uint256Li0ELb0EE5__getB7v160006Ev, symObjAddr: 0x1EAD0, symBinAddr: 0x100021260, symSize: 0x10 }
  - { offsetInCU: 0x57FF9, offset: 0x6F5BD, size: 0x8, addend: 0x0, symName: __ZNKSt3__114__copy_trivialclB7v160006I7uint256S2_Li0EEENS_4pairIPT_PT0_EES5_S5_S7_, symObjAddr: 0x1EC70, symBinAddr: 0x100021400, symSize: 0x40 }
  - { offsetInCU: 0x58061, offset: 0x6F625, size: 0x8, addend: 0x0, symName: __ZNSt3__119__unwrap_range_implIP7uint256S2_E8__unwrapB7v160006ES2_S2_, symObjAddr: 0x1ED70, symBinAddr: 0x100021500, symSize: 0x50 }
  - { offsetInCU: 0x58096, offset: 0x6F65A, size: 0x8, addend: 0x0, symName: __ZNSt3__14pairIP7uint256S2_EC1B7v160006IS2_S2_LPv0EEEOT_OT0_, symObjAddr: 0x1EDC0, symBinAddr: 0x100021550, symSize: 0x30 }
  - { offsetInCU: 0x580F4, offset: 0x6F6B8, size: 0x8, addend: 0x0, symName: __ZNSt3__14pairIP7uint256S2_EC2B7v160006IS2_S2_LPv0EEEOT_OT0_, symObjAddr: 0x1EDF0, symBinAddr: 0x100021580, symSize: 0x30 }
  - { offsetInCU: 0x58152, offset: 0x6F716, size: 0x8, addend: 0x0, symName: __ZNSt3__14pairIP7uint256S2_EC1B7v160006IRS2_S2_LPv0EEEOT_OT0_, symObjAddr: 0x1EED0, symBinAddr: 0x100021660, symSize: 0x30 }
  - { offsetInCU: 0x581B0, offset: 0x6F774, size: 0x8, addend: 0x0, symName: __ZNSt3__14pairIP7uint256S2_EC2B7v160006IRS2_S2_LPv0EEEOT_OT0_, symObjAddr: 0x1EF00, symBinAddr: 0x100021690, symSize: 0x30 }
  - { offsetInCU: 0x5820E, offset: 0x6F7D2, size: 0x8, addend: 0x0, symName: __ZNSt3__118__unwrap_iter_implIP7uint256Lb1EE8__unwrapB7v160006ES2_, symObjAddr: 0x1EF30, symBinAddr: 0x1000216C0, symSize: 0x20 }
  - { offsetInCU: 0x58230, offset: 0x6F7F4, size: 0x8, addend: 0x0, symName: __ZNSt3__119__unwrap_range_implIP7uint256S2_E8__rewrapB7v160006ES2_S2_, symObjAddr: 0x1EF60, symBinAddr: 0x1000216F0, symSize: 0x30 }
  - { offsetInCU: 0x58260, offset: 0x6F824, size: 0x8, addend: 0x0, symName: __ZNSt3__118__unwrap_iter_implIP7uint256Lb1EE8__rewrapB7v160006ES2_S2_, symObjAddr: 0x1EF90, symBinAddr: 0x100021720, symSize: 0x50 }
  - { offsetInCU: 0x582A9, offset: 0x6F86D, size: 0x8, addend: 0x0, symName: __ZNSt3__16vectorI7uint256NS_9allocatorIS1_EEE21_ConstructTransactionC1B7v160006ERS4_m, symObjAddr: 0x1EFE0, symBinAddr: 0x100021770, symSize: 0x30 }
  - { offsetInCU: 0x582F1, offset: 0x6F8B5, size: 0x8, addend: 0x0, symName: __ZNSt3__16vectorI7uint256NS_9allocatorIS1_EEE7__allocB7v160006Ev, symObjAddr: 0x1F110, symBinAddr: 0x1000218A0, symSize: 0x20 }
  - { offsetInCU: 0x58317, offset: 0x6F8DB, size: 0x8, addend: 0x0, symName: __ZNSt3__16vectorI7uint256NS_9allocatorIS1_EEE21_ConstructTransactionD1B7v160006Ev, symObjAddr: 0x1F130, symBinAddr: 0x1000218C0, symSize: 0x20 }
  - { offsetInCU: 0x58341, offset: 0x6F905, size: 0x8, addend: 0x0, symName: __ZNSt3__16vectorI7uint256NS_9allocatorIS1_EEE21_ConstructTransactionC2B7v160006ERS4_m, symObjAddr: 0x1F150, symBinAddr: 0x1000218E0, symSize: 0x40 }
  - { offsetInCU: 0x58389, offset: 0x6F94D, size: 0x8, addend: 0x0, symName: __ZNSt3__129_AllocatorDestroyRangeReverseINS_9allocatorI7uint256EEPS2_EC1B7v160006ERS3_RS4_S7_, symObjAddr: 0x1F1F0, symBinAddr: 0x100021980, symSize: 0x40 }
  - { offsetInCU: 0x583E0, offset: 0x6F9A4, size: 0x8, addend: 0x0, symName: __ZNSt3__116allocator_traitsINS_9allocatorI7uint256EEE9constructB7v160006IS2_JRS2_EvvEEvRS3_PT_DpOT0_, symObjAddr: 0x1F230, symBinAddr: 0x1000219C0, symSize: 0x30 }
  - { offsetInCU: 0x58434, offset: 0x6F9F8, size: 0x8, addend: 0x0, symName: __ZNSt3__128__exception_guard_exceptionsINS_29_AllocatorDestroyRangeReverseINS_9allocatorI7uint256EEPS3_EEE10__completeB7v160006Ev, symObjAddr: 0x1F260, symBinAddr: 0x1000219F0, symSize: 0x20 }
  - { offsetInCU: 0x5845A, offset: 0x6FA1E, size: 0x8, addend: 0x0, symName: __ZNSt3__128__exception_guard_exceptionsINS_29_AllocatorDestroyRangeReverseINS_9allocatorI7uint256EEPS3_EEED1B7v160006Ev, symObjAddr: 0x1F280, symBinAddr: 0x100021A10, symSize: 0x20 }
  - { offsetInCU: 0x58484, offset: 0x6FA48, size: 0x8, addend: 0x0, symName: __ZNSt3__128__exception_guard_exceptionsINS_29_AllocatorDestroyRangeReverseINS_9allocatorI7uint256EEPS3_EEEC1B7v160006ES6_, symObjAddr: 0x1F2A0, symBinAddr: 0x100021A30, symSize: 0x40 }
  - { offsetInCU: 0x584BC, offset: 0x6FA80, size: 0x8, addend: 0x0, symName: __ZNSt3__128__exception_guard_exceptionsINS_29_AllocatorDestroyRangeReverseINS_9allocatorI7uint256EEPS3_EEEC2B7v160006ES6_, symObjAddr: 0x1F2E0, symBinAddr: 0x100021A70, symSize: 0x30 }
  - { offsetInCU: 0x584F4, offset: 0x6FAB8, size: 0x8, addend: 0x0, symName: __ZNSt3__129_AllocatorDestroyRangeReverseINS_9allocatorI7uint256EEPS2_EC2B7v160006ERS3_RS4_S7_, symObjAddr: 0x1F310, symBinAddr: 0x100021AA0, symSize: 0x40 }
  - { offsetInCU: 0x5854B, offset: 0x6FB0F, size: 0x8, addend: 0x0, symName: __ZNSt3__128__exception_guard_exceptionsINS_29_AllocatorDestroyRangeReverseINS_9allocatorI7uint256EEPS3_EEED2B7v160006Ev, symObjAddr: 0x1F390, symBinAddr: 0x100021B20, symSize: 0x40 }
  - { offsetInCU: 0x58575, offset: 0x6FB39, size: 0x8, addend: 0x0, symName: __ZNKSt3__129_AllocatorDestroyRangeReverseINS_9allocatorI7uint256EEPS2_EclB7v160006Ev, symObjAddr: 0x1F3D0, symBinAddr: 0x100021B60, symSize: 0x60 }
  - { offsetInCU: 0x5859B, offset: 0x6FB5F, size: 0x8, addend: 0x0, symName: __ZNSt3__116reverse_iteratorIP7uint256EC1B7v160006ES2_, symObjAddr: 0x1F4A0, symBinAddr: 0x100021C30, symSize: 0x30 }
  - { offsetInCU: 0x585D3, offset: 0x6FB97, size: 0x8, addend: 0x0, symName: __ZNSt3__116allocator_traitsINS_9allocatorI7uint256EEE7destroyB7v160006IS2_vvEEvRS3_PT_, symObjAddr: 0x1F510, symBinAddr: 0x100021CA0, symSize: 0x20 }
  - { offsetInCU: 0x5860D, offset: 0x6FBD1, size: 0x8, addend: 0x0, symName: __ZNSt3__116reverse_iteratorIP7uint256EppB7v160006Ev, symObjAddr: 0x1F550, symBinAddr: 0x100021CE0, symSize: 0x20 }
  - { offsetInCU: 0x58633, offset: 0x6FBF7, size: 0x8, addend: 0x0, symName: __ZNKSt3__116reverse_iteratorIP7uint256E4baseB7v160006Ev, symObjAddr: 0x1F570, symBinAddr: 0x100021D00, symSize: 0x20 }
  - { offsetInCU: 0x5865E, offset: 0x6FC22, size: 0x8, addend: 0x0, symName: __ZNSt3__119__to_address_helperINS_16reverse_iteratorIP7uint256EEvE6__callB7v160006ERKS4_, symObjAddr: 0x1F5C0, symBinAddr: 0x100021D50, symSize: 0x40 }
  - { offsetInCU: 0x58680, offset: 0x6FC44, size: 0x8, addend: 0x0, symName: __ZNKSt3__116reverse_iteratorIP7uint256EptB7v160006Ev, symObjAddr: 0x1F600, symBinAddr: 0x100021D90, symSize: 0x30 }
  - { offsetInCU: 0x586A6, offset: 0x6FC6A, size: 0x8, addend: 0x0, symName: __ZNSt3__116reverse_iteratorIP7uint256EC2B7v160006ES2_, symObjAddr: 0x1F6D0, symBinAddr: 0x100021E60, symSize: 0x30 }
  - { offsetInCU: 0x586DE, offset: 0x6FCA2, size: 0x8, addend: 0x0, symName: __ZNSt3__117__compressed_pairIP7uint256NS_9allocatorIS1_EEE6secondB7v160006Ev, symObjAddr: 0x1F700, symBinAddr: 0x100021E90, symSize: 0x20 }
  - { offsetInCU: 0x58704, offset: 0x6FCC8, size: 0x8, addend: 0x0, symName: __ZNSt3__122__compressed_pair_elemINS_9allocatorI7uint256EELi1ELb1EE5__getB7v160006Ev, symObjAddr: 0x1F720, symBinAddr: 0x100021EB0, symSize: 0x10 }
  - { offsetInCU: 0x5872A, offset: 0x6FCEE, size: 0x8, addend: 0x0, symName: __ZNSt3__16vectorI7uint256NS_9allocatorIS1_EEE21_ConstructTransactionD2B7v160006Ev, symObjAddr: 0x1F730, symBinAddr: 0x100021EC0, symSize: 0x20 }
  - { offsetInCU: 0x58754, offset: 0x6FD18, size: 0x8, addend: 0x0, symName: __ZNSt3__16vectorI7uint256NS_9allocatorIS1_EEE27__invalidate_iterators_pastB7v160006EPS1_, symObjAddr: 0x1F750, symBinAddr: 0x100021EE0, symSize: 0x10 }
  - { offsetInCU: 0x5878B, offset: 0x6FD4F, size: 0x8, addend: 0x0, symName: __ZNSt3__16vectorI7uint256NS_9allocatorIS1_EEE22__base_destruct_at_endB7v160006EPS1_, symObjAddr: 0x1F760, symBinAddr: 0x100021EF0, symSize: 0x80 }
  - { offsetInCU: 0x587CF, offset: 0x6FD93, size: 0x8, addend: 0x0, symName: __ZNKSt3__16vectorI7uint256NS_9allocatorIS1_EEE17__annotate_shrinkB7v160006Em, symObjAddr: 0x1F7E0, symBinAddr: 0x100021F70, symSize: 0xA0 }
  - { offsetInCU: 0x58804, offset: 0x6FDC8, size: 0x8, addend: 0x0, symName: __ZNKSt3__16vectorI7uint256NS_9allocatorIS1_EEE31__annotate_contiguous_containerB7v160006EPKvS6_S6_S6_, symObjAddr: 0x1F880, symBinAddr: 0x100022010, symSize: 0x20 }
  - { offsetInCU: 0x5885A, offset: 0x6FE1E, size: 0x8, addend: 0x0, symName: __ZNKSt3__16vectorI7uint256NS_9allocatorIS1_EEE4dataB7v160006Ev, symObjAddr: 0x1F8A0, symBinAddr: 0x100022030, symSize: 0x20 }
  - { offsetInCU: 0x58880, offset: 0x6FE44, size: 0x8, addend: 0x0, symName: __ZNSt3__16vectorI7uint256NS_9allocatorIS1_EEE5clearB7v160006Ev, symObjAddr: 0x1F8C0, symBinAddr: 0x100022050, symSize: 0x50 }
  - { offsetInCU: 0x588B5, offset: 0x6FE79, size: 0x8, addend: 0x0, symName: __ZNSt3__116allocator_traitsINS_9allocatorI7uint256EEE10deallocateB7v160006ERS3_PS2_m, symObjAddr: 0x1F910, symBinAddr: 0x1000220A0, symSize: 0x30 }
  - { offsetInCU: 0x588F6, offset: 0x6FEBA, size: 0x8, addend: 0x0, symName: __ZNSt3__16vectorI7uint256NS_9allocatorIS1_EEE9__end_capB7v160006Ev, symObjAddr: 0x1F940, symBinAddr: 0x1000220D0, symSize: 0x20 }
  - { offsetInCU: 0x5891C, offset: 0x6FEE0, size: 0x8, addend: 0x0, symName: __ZNSt3__16vectorI7uint256NS_9allocatorIS1_EEE7__clearB7v160006Ev, symObjAddr: 0x1F960, symBinAddr: 0x1000220F0, symSize: 0x20 }
  - { offsetInCU: 0x58942, offset: 0x6FF06, size: 0x8, addend: 0x0, symName: __ZNSt3__19allocatorI7uint256E10deallocateB7v160006EPS1_m, symObjAddr: 0x1F980, symBinAddr: 0x100022110, symSize: 0x40 }
  - { offsetInCU: 0x58984, offset: 0x6FF48, size: 0x8, addend: 0x0, symName: __ZNSt3__117__compressed_pairIP7uint256NS_9allocatorIS1_EEE5firstB7v160006Ev, symObjAddr: 0x1F9C0, symBinAddr: 0x100022150, symSize: 0x20 }
  - { offsetInCU: 0x589AA, offset: 0x6FF6E, size: 0x8, addend: 0x0, symName: __ZNSt3__122__compressed_pair_elemIP7uint256Li0ELb0EE5__getB7v160006Ev, symObjAddr: 0x1F9E0, symBinAddr: 0x100022170, symSize: 0x10 }
  - { offsetInCU: 0x589D0, offset: 0x6FF94, size: 0x8, addend: 0x0, symName: __ZNKSt3__16vectorI7uint256NS_9allocatorIS1_EEE8max_sizeEv, symObjAddr: 0x1F9F0, symBinAddr: 0x100022180, symSize: 0x60 }
  - { offsetInCU: 0x589F8, offset: 0x6FFBC, size: 0x8, addend: 0x0, symName: __ZNKSt3__16vectorI7uint256NS_9allocatorIS1_EEE20__throw_length_errorB7v160006Ev, symObjAddr: 0x1FA50, symBinAddr: 0x1000221E0, symSize: 0x20 }
  - { offsetInCU: 0x58A1E, offset: 0x6FFE2, size: 0x8, addend: 0x0, symName: __ZNKSt3__16vectorI7uint256NS_9allocatorIS1_EEE14__annotate_newB7v160006Em, symObjAddr: 0x1FAB0, symBinAddr: 0x100022240, symSize: 0xB0 }
  - { offsetInCU: 0x58A5D, offset: 0x70021, size: 0x8, addend: 0x0, symName: __ZNSt3__116allocator_traitsINS_9allocatorI7uint256EEE8max_sizeB7v160006IS3_vvEEmRKS3_, symObjAddr: 0x1FB60, symBinAddr: 0x1000222F0, symSize: 0x20 }
  - { offsetInCU: 0x58A88, offset: 0x7004C, size: 0x8, addend: 0x0, symName: __ZNKSt3__16vectorI7uint256NS_9allocatorIS1_EEE7__allocB7v160006Ev, symObjAddr: 0x1FB80, symBinAddr: 0x100022310, symSize: 0x20 }
  - { offsetInCU: 0x58AAE, offset: 0x70072, size: 0x8, addend: 0x0, symName: __ZNKSt3__117__compressed_pairIP7uint256NS_9allocatorIS1_EEE6secondB7v160006Ev, symObjAddr: 0x1FBA0, symBinAddr: 0x100022330, symSize: 0x20 }
  - { offsetInCU: 0x58AD4, offset: 0x70098, size: 0x8, addend: 0x0, symName: __ZNKSt3__122__compressed_pair_elemINS_9allocatorI7uint256EELi1ELb1EE5__getB7v160006Ev, symObjAddr: 0x1FBC0, symBinAddr: 0x100022350, symSize: 0x10 }
  - { offsetInCU: 0x58AFA, offset: 0x700BE, size: 0x8, addend: 0x0, symName: __ZNSt3__19allocatorI7uint256E8allocateB7v160006Em, symObjAddr: 0x1FBD0, symBinAddr: 0x100022360, symSize: 0x50 }
  - { offsetInCU: 0x58B2E, offset: 0x700F2, size: 0x8, addend: 0x0, symName: __ZNSt3__16vectorI8CQPubKeyNS_9allocatorIS1_EEE19__copy_assign_allocB7v160006ERKS4_, symObjAddr: 0x1FC20, symBinAddr: 0x1000223B0, symSize: 0x30 }
  - { offsetInCU: 0x58B63, offset: 0x70127, size: 0x8, addend: 0x0, symName: __ZNSt3__16vectorI8CQPubKeyNS_9allocatorIS1_EEE6assignIPS1_Li0EEEvT_S7_, symObjAddr: 0x1FC50, symBinAddr: 0x1000223E0, symSize: 0x160 }
  - { offsetInCU: 0x58C02, offset: 0x701C6, size: 0x8, addend: 0x0, symName: __ZNSt3__16vectorI8CQPubKeyNS_9allocatorIS1_EEE19__copy_assign_allocB7v160006ERKS4_NS_17integral_constantIbLb0EEE, symObjAddr: 0x1FDB0, symBinAddr: 0x100022540, symSize: 0x10 }
  - { offsetInCU: 0x58C40, offset: 0x70204, size: 0x8, addend: 0x0, symName: __ZNSt3__16vectorI8CQPubKeyNS_9allocatorIS1_EEE18__construct_at_endIPS1_Li0EEEvT_S7_m, symObjAddr: 0x1FE80, symBinAddr: 0x100022610, symSize: 0x90 }
  - { offsetInCU: 0x58CB3, offset: 0x70277, size: 0x8, addend: 0x0, symName: __ZNSt3__16vectorI8CQPubKeyNS_9allocatorIS1_EEE17__destruct_at_endB7v160006EPS1_, symObjAddr: 0x1FF10, symBinAddr: 0x1000226A0, symSize: 0x60 }
  - { offsetInCU: 0x58CF7, offset: 0x702BB, size: 0x8, addend: 0x0, symName: __ZNSt3__16vectorI8CQPubKeyNS_9allocatorIS1_EEE13__vdeallocateEv, symObjAddr: 0x1FF70, symBinAddr: 0x100022700, symSize: 0x80 }
  - { offsetInCU: 0x58D1F, offset: 0x702E3, size: 0x8, addend: 0x0, symName: __ZNSt3__16vectorI8CQPubKeyNS_9allocatorIS1_EEE11__vallocateB7v160006Em, symObjAddr: 0x1FFF0, symBinAddr: 0x100022780, symSize: 0xA0 }
  - { offsetInCU: 0x58D7C, offset: 0x70340, size: 0x8, addend: 0x0, symName: __ZNKSt3__114__copy_trivialclB7v160006I8CQPubKeyS2_Li0EEENS_4pairIPT_PT0_EES5_S5_S7_, symObjAddr: 0x20260, symBinAddr: 0x1000229F0, symSize: 0x40 }
  - { offsetInCU: 0x58DE4, offset: 0x703A8, size: 0x8, addend: 0x0, symName: __ZNSt3__119__unwrap_range_implIP8CQPubKeyS2_E8__unwrapB7v160006ES2_S2_, symObjAddr: 0x20360, symBinAddr: 0x100022AF0, symSize: 0x50 }
  - { offsetInCU: 0x58E14, offset: 0x703D8, size: 0x8, addend: 0x0, symName: __ZNSt3__14pairIP8CQPubKeyS2_EC1B7v160006IS2_S2_LPv0EEEOT_OT0_, symObjAddr: 0x203B0, symBinAddr: 0x100022B40, symSize: 0x30 }
  - { offsetInCU: 0x58E72, offset: 0x70436, size: 0x8, addend: 0x0, symName: __ZNSt3__14pairIP8CQPubKeyS2_EC2B7v160006IS2_S2_LPv0EEEOT_OT0_, symObjAddr: 0x203E0, symBinAddr: 0x100022B70, symSize: 0x30 }
  - { offsetInCU: 0x58ED0, offset: 0x70494, size: 0x8, addend: 0x0, symName: __ZNSt3__14pairIP8CQPubKeyS2_EC1B7v160006IRS2_S2_LPv0EEEOT_OT0_, symObjAddr: 0x204D0, symBinAddr: 0x100022C60, symSize: 0x30 }
  - { offsetInCU: 0x58F2E, offset: 0x704F2, size: 0x8, addend: 0x0, symName: __ZNSt3__14pairIP8CQPubKeyS2_EC2B7v160006IRS2_S2_LPv0EEEOT_OT0_, symObjAddr: 0x20500, symBinAddr: 0x100022C90, symSize: 0x30 }
  - { offsetInCU: 0x58F8C, offset: 0x70550, size: 0x8, addend: 0x0, symName: __ZNSt3__118__unwrap_iter_implIP8CQPubKeyLb1EE8__unwrapB7v160006ES2_, symObjAddr: 0x20530, symBinAddr: 0x100022CC0, symSize: 0x20 }
  - { offsetInCU: 0x58FAE, offset: 0x70572, size: 0x8, addend: 0x0, symName: __ZNSt3__119__unwrap_range_implIP8CQPubKeyS2_E8__rewrapB7v160006ES2_S2_, symObjAddr: 0x20550, symBinAddr: 0x100022CE0, symSize: 0x30 }
  - { offsetInCU: 0x58FDE, offset: 0x705A2, size: 0x8, addend: 0x0, symName: __ZNSt3__118__unwrap_iter_implIP8CQPubKeyLb1EE8__rewrapB7v160006ES2_S2_, symObjAddr: 0x20580, symBinAddr: 0x100022D10, symSize: 0x60 }
  - { offsetInCU: 0x5900E, offset: 0x705D2, size: 0x8, addend: 0x0, symName: __ZNSt3__129_AllocatorDestroyRangeReverseINS_9allocatorI8CQPubKeyEEPS2_EC1B7v160006ERS3_RS4_S7_, symObjAddr: 0x20740, symBinAddr: 0x100022ED0, symSize: 0x40 }
  - { offsetInCU: 0x59065, offset: 0x70629, size: 0x8, addend: 0x0, symName: __ZNSt3__116allocator_traitsINS_9allocatorI8CQPubKeyEEE9constructB7v160006IS2_JRS2_EvvEEvRS3_PT_DpOT0_, symObjAddr: 0x20780, symBinAddr: 0x100022F10, symSize: 0x30 }
  - { offsetInCU: 0x590B9, offset: 0x7067D, size: 0x8, addend: 0x0, symName: __ZNSt3__128__exception_guard_exceptionsINS_29_AllocatorDestroyRangeReverseINS_9allocatorI8CQPubKeyEEPS3_EEE10__completeB7v160006Ev, symObjAddr: 0x207B0, symBinAddr: 0x100022F40, symSize: 0x20 }
  - { offsetInCU: 0x590DF, offset: 0x706A3, size: 0x8, addend: 0x0, symName: __ZNSt3__128__exception_guard_exceptionsINS_29_AllocatorDestroyRangeReverseINS_9allocatorI8CQPubKeyEEPS3_EEED1B7v160006Ev, symObjAddr: 0x207D0, symBinAddr: 0x100022F60, symSize: 0x20 }
  - { offsetInCU: 0x59109, offset: 0x706CD, size: 0x8, addend: 0x0, symName: __ZNSt3__128__exception_guard_exceptionsINS_29_AllocatorDestroyRangeReverseINS_9allocatorI8CQPubKeyEEPS3_EEEC1B7v160006ES6_, symObjAddr: 0x207F0, symBinAddr: 0x100022F80, symSize: 0x40 }
  - { offsetInCU: 0x59141, offset: 0x70705, size: 0x8, addend: 0x0, symName: __ZNSt3__128__exception_guard_exceptionsINS_29_AllocatorDestroyRangeReverseINS_9allocatorI8CQPubKeyEEPS3_EEEC2B7v160006ES6_, symObjAddr: 0x20830, symBinAddr: 0x100022FC0, symSize: 0x30 }
  - { offsetInCU: 0x59179, offset: 0x7073D, size: 0x8, addend: 0x0, symName: __ZNSt3__129_AllocatorDestroyRangeReverseINS_9allocatorI8CQPubKeyEEPS2_EC2B7v160006ERS3_RS4_S7_, symObjAddr: 0x20860, symBinAddr: 0x100022FF0, symSize: 0x40 }
  - { offsetInCU: 0x591D0, offset: 0x70794, size: 0x8, addend: 0x0, symName: __ZNSt3__128__exception_guard_exceptionsINS_29_AllocatorDestroyRangeReverseINS_9allocatorI8CQPubKeyEEPS3_EEED2B7v160006Ev, symObjAddr: 0x208E0, symBinAddr: 0x100023070, symSize: 0x40 }
  - { offsetInCU: 0x591FA, offset: 0x707BE, size: 0x8, addend: 0x0, symName: __ZNKSt3__129_AllocatorDestroyRangeReverseINS_9allocatorI8CQPubKeyEEPS2_EclB7v160006Ev, symObjAddr: 0x20920, symBinAddr: 0x1000230B0, symSize: 0x60 }
  - { offsetInCU: 0x59225, offset: 0x707E9, size: 0x8, addend: 0x0, symName: __ZNSt3__119__to_address_helperINS_16reverse_iteratorIP8CQPubKeyEEvE6__callB7v160006ERKS4_, symObjAddr: 0x20A10, symBinAddr: 0x1000231A0, symSize: 0x40 }
  - { offsetInCU: 0x59247, offset: 0x7080B, size: 0x8, addend: 0x0, symName: __ZNKSt3__116reverse_iteratorIP8CQPubKeyEptB7v160006Ev, symObjAddr: 0x20A50, symBinAddr: 0x1000231E0, symSize: 0x30 }
  - { offsetInCU: 0x5926D, offset: 0x70831, size: 0x8, addend: 0x0, symName: __ZNSt3__16vectorI8CQPubKeyNS_9allocatorIS1_EEE27__invalidate_iterators_pastB7v160006EPS1_, symObjAddr: 0x20B20, symBinAddr: 0x1000232B0, symSize: 0x10 }
  - { offsetInCU: 0x592A4, offset: 0x70868, size: 0x8, addend: 0x0, symName: __ZNSt3__16vectorI8CQPubKeyNS_9allocatorIS1_EEE22__base_destruct_at_endB7v160006EPS1_, symObjAddr: 0x20B30, symBinAddr: 0x1000232C0, symSize: 0x80 }
  - { offsetInCU: 0x592E8, offset: 0x708AC, size: 0x8, addend: 0x0, symName: __ZNKSt3__16vectorI8CQPubKeyNS_9allocatorIS1_EEE17__annotate_shrinkB7v160006Em, symObjAddr: 0x20BB0, symBinAddr: 0x100023340, symSize: 0xB0 }
  - { offsetInCU: 0x5931D, offset: 0x708E1, size: 0x8, addend: 0x0, symName: __ZNSt3__16vectorI8CQPubKeyNS_9allocatorIS1_EEE5clearB7v160006Ev, symObjAddr: 0x20C60, symBinAddr: 0x1000233F0, symSize: 0x50 }
  - { offsetInCU: 0x59352, offset: 0x70916, size: 0x8, addend: 0x0, symName: __ZNSt3__16vectorI8CQPubKeyNS_9allocatorIS1_EEE7__clearB7v160006Ev, symObjAddr: 0x20CB0, symBinAddr: 0x100023440, symSize: 0x20 }
  - { offsetInCU: 0x59378, offset: 0x7093C, size: 0x8, addend: 0x0, symName: __ZNSt3__16vectorI7uint160NS_9allocatorIS1_EEE19__copy_assign_allocB7v160006ERKS4_, symObjAddr: 0x20CD0, symBinAddr: 0x100023460, symSize: 0x30 }
  - { offsetInCU: 0x593AD, offset: 0x70971, size: 0x8, addend: 0x0, symName: __ZNSt3__16vectorI7uint160NS_9allocatorIS1_EEE6assignIPS1_Li0EEEvT_S7_, symObjAddr: 0x20D00, symBinAddr: 0x100023490, symSize: 0x160 }
  - { offsetInCU: 0x5944C, offset: 0x70A10, size: 0x8, addend: 0x0, symName: __ZNSt3__16vectorI7uint160NS_9allocatorIS1_EEE19__copy_assign_allocB7v160006ERKS4_NS_17integral_constantIbLb0EEE, symObjAddr: 0x20E60, symBinAddr: 0x1000235F0, symSize: 0x10 }
  - { offsetInCU: 0x5948A, offset: 0x70A4E, size: 0x8, addend: 0x0, symName: __ZNSt3__16vectorI7uint160NS_9allocatorIS1_EEE18__construct_at_endIPS1_Li0EEEvT_S7_m, symObjAddr: 0x20F30, symBinAddr: 0x1000236C0, symSize: 0x90 }
  - { offsetInCU: 0x594FD, offset: 0x70AC1, size: 0x8, addend: 0x0, symName: __ZNSt3__16vectorI7uint160NS_9allocatorIS1_EEE17__destruct_at_endB7v160006EPS1_, symObjAddr: 0x20FC0, symBinAddr: 0x100023750, symSize: 0x60 }
  - { offsetInCU: 0x59541, offset: 0x70B05, size: 0x8, addend: 0x0, symName: __ZNSt3__16vectorI7uint160NS_9allocatorIS1_EEE13__vdeallocateEv, symObjAddr: 0x21020, symBinAddr: 0x1000237B0, symSize: 0x80 }
  - { offsetInCU: 0x59569, offset: 0x70B2D, size: 0x8, addend: 0x0, symName: __ZNSt3__16vectorI7uint160NS_9allocatorIS1_EEE11__vallocateB7v160006Em, symObjAddr: 0x210A0, symBinAddr: 0x100023830, symSize: 0xA0 }
  - { offsetInCU: 0x595C6, offset: 0x70B8A, size: 0x8, addend: 0x0, symName: __ZNKSt3__114__copy_trivialclB7v160006I7uint160S2_Li0EEENS_4pairIPT_PT0_EES5_S5_S7_, symObjAddr: 0x21300, symBinAddr: 0x100023A90, symSize: 0x40 }
  - { offsetInCU: 0x5962E, offset: 0x70BF2, size: 0x8, addend: 0x0, symName: __ZNSt3__119__unwrap_range_implIP7uint160S2_E8__unwrapB7v160006ES2_S2_, symObjAddr: 0x21400, symBinAddr: 0x100023B90, symSize: 0x50 }
  - { offsetInCU: 0x59663, offset: 0x70C27, size: 0x8, addend: 0x0, symName: __ZNSt3__14pairIP7uint160S2_EC1B7v160006IS2_S2_LPv0EEEOT_OT0_, symObjAddr: 0x21450, symBinAddr: 0x100023BE0, symSize: 0x30 }
  - { offsetInCU: 0x596C1, offset: 0x70C85, size: 0x8, addend: 0x0, symName: __ZNSt3__14pairIP7uint160S2_EC2B7v160006IS2_S2_LPv0EEEOT_OT0_, symObjAddr: 0x21480, symBinAddr: 0x100023C10, symSize: 0x30 }
  - { offsetInCU: 0x5971F, offset: 0x70CE3, size: 0x8, addend: 0x0, symName: __ZNSt3__14pairIP7uint160S2_EC1B7v160006IRS2_S2_LPv0EEEOT_OT0_, symObjAddr: 0x21570, symBinAddr: 0x100023D00, symSize: 0x30 }
  - { offsetInCU: 0x5977D, offset: 0x70D41, size: 0x8, addend: 0x0, symName: __ZNSt3__14pairIP7uint160S2_EC2B7v160006IRS2_S2_LPv0EEEOT_OT0_, symObjAddr: 0x215A0, symBinAddr: 0x100023D30, symSize: 0x30 }
  - { offsetInCU: 0x597DB, offset: 0x70D9F, size: 0x8, addend: 0x0, symName: __ZNSt3__118__unwrap_iter_implIP7uint160Lb1EE8__unwrapB7v160006ES2_, symObjAddr: 0x215D0, symBinAddr: 0x100023D60, symSize: 0x20 }
  - { offsetInCU: 0x597FD, offset: 0x70DC1, size: 0x8, addend: 0x0, symName: __ZNSt3__119__unwrap_range_implIP7uint160S2_E8__rewrapB7v160006ES2_S2_, symObjAddr: 0x215F0, symBinAddr: 0x100023D80, symSize: 0x30 }
  - { offsetInCU: 0x5982D, offset: 0x70DF1, size: 0x8, addend: 0x0, symName: __ZNSt3__118__unwrap_iter_implIP7uint160Lb1EE8__rewrapB7v160006ES2_S2_, symObjAddr: 0x21620, symBinAddr: 0x100023DB0, symSize: 0x60 }
  - { offsetInCU: 0x5985D, offset: 0x70E21, size: 0x8, addend: 0x0, symName: __ZNSt3__129_AllocatorDestroyRangeReverseINS_9allocatorI7uint160EEPS2_EC1B7v160006ERS3_RS4_S7_, symObjAddr: 0x217E0, symBinAddr: 0x100023F70, symSize: 0x40 }
  - { offsetInCU: 0x598B4, offset: 0x70E78, size: 0x8, addend: 0x0, symName: __ZNSt3__116allocator_traitsINS_9allocatorI7uint160EEE9constructB7v160006IS2_JRS2_EvvEEvRS3_PT_DpOT0_, symObjAddr: 0x21820, symBinAddr: 0x100023FB0, symSize: 0x30 }
  - { offsetInCU: 0x59908, offset: 0x70ECC, size: 0x8, addend: 0x0, symName: __ZNSt3__128__exception_guard_exceptionsINS_29_AllocatorDestroyRangeReverseINS_9allocatorI7uint160EEPS3_EEE10__completeB7v160006Ev, symObjAddr: 0x21850, symBinAddr: 0x100023FE0, symSize: 0x20 }
  - { offsetInCU: 0x5992E, offset: 0x70EF2, size: 0x8, addend: 0x0, symName: __ZNSt3__128__exception_guard_exceptionsINS_29_AllocatorDestroyRangeReverseINS_9allocatorI7uint160EEPS3_EEED1B7v160006Ev, symObjAddr: 0x21870, symBinAddr: 0x100024000, symSize: 0x20 }
  - { offsetInCU: 0x59958, offset: 0x70F1C, size: 0x8, addend: 0x0, symName: __ZNSt3__128__exception_guard_exceptionsINS_29_AllocatorDestroyRangeReverseINS_9allocatorI7uint160EEPS3_EEEC1B7v160006ES6_, symObjAddr: 0x21890, symBinAddr: 0x100024020, symSize: 0x40 }
  - { offsetInCU: 0x59990, offset: 0x70F54, size: 0x8, addend: 0x0, symName: __ZNSt3__128__exception_guard_exceptionsINS_29_AllocatorDestroyRangeReverseINS_9allocatorI7uint160EEPS3_EEEC2B7v160006ES6_, symObjAddr: 0x218D0, symBinAddr: 0x100024060, symSize: 0x30 }
  - { offsetInCU: 0x599C8, offset: 0x70F8C, size: 0x8, addend: 0x0, symName: __ZNSt3__129_AllocatorDestroyRangeReverseINS_9allocatorI7uint160EEPS2_EC2B7v160006ERS3_RS4_S7_, symObjAddr: 0x21900, symBinAddr: 0x100024090, symSize: 0x40 }
  - { offsetInCU: 0x59A1F, offset: 0x70FE3, size: 0x8, addend: 0x0, symName: __ZNSt3__128__exception_guard_exceptionsINS_29_AllocatorDestroyRangeReverseINS_9allocatorI7uint160EEPS3_EEED2B7v160006Ev, symObjAddr: 0x21980, symBinAddr: 0x100024110, symSize: 0x40 }
  - { offsetInCU: 0x59A49, offset: 0x7100D, size: 0x8, addend: 0x0, symName: __ZNKSt3__129_AllocatorDestroyRangeReverseINS_9allocatorI7uint160EEPS2_EclB7v160006Ev, symObjAddr: 0x219C0, symBinAddr: 0x100024150, symSize: 0x60 }
  - { offsetInCU: 0x59A74, offset: 0x71038, size: 0x8, addend: 0x0, symName: __ZNSt3__119__to_address_helperINS_16reverse_iteratorIP7uint160EEvE6__callB7v160006ERKS4_, symObjAddr: 0x21AB0, symBinAddr: 0x100024240, symSize: 0x40 }
  - { offsetInCU: 0x59A96, offset: 0x7105A, size: 0x8, addend: 0x0, symName: __ZNKSt3__116reverse_iteratorIP7uint160EptB7v160006Ev, symObjAddr: 0x21AF0, symBinAddr: 0x100024280, symSize: 0x30 }
  - { offsetInCU: 0x59ABC, offset: 0x71080, size: 0x8, addend: 0x0, symName: __ZNSt3__16vectorI7uint160NS_9allocatorIS1_EEE27__invalidate_iterators_pastB7v160006EPS1_, symObjAddr: 0x21BC0, symBinAddr: 0x100024350, symSize: 0x10 }
  - { offsetInCU: 0x59AF3, offset: 0x710B7, size: 0x8, addend: 0x0, symName: __ZNSt3__16vectorI7uint160NS_9allocatorIS1_EEE22__base_destruct_at_endB7v160006EPS1_, symObjAddr: 0x21BD0, symBinAddr: 0x100024360, symSize: 0x80 }
  - { offsetInCU: 0x59B37, offset: 0x710FB, size: 0x8, addend: 0x0, symName: __ZNKSt3__16vectorI7uint160NS_9allocatorIS1_EEE17__annotate_shrinkB7v160006Em, symObjAddr: 0x21C50, symBinAddr: 0x1000243E0, symSize: 0xA0 }
  - { offsetInCU: 0x59B6C, offset: 0x71130, size: 0x8, addend: 0x0, symName: __ZNSt3__16vectorI7uint160NS_9allocatorIS1_EEE5clearB7v160006Ev, symObjAddr: 0x21CF0, symBinAddr: 0x100024480, symSize: 0x50 }
  - { offsetInCU: 0x59BA1, offset: 0x71165, size: 0x8, addend: 0x0, symName: __ZNSt3__16vectorI7uint160NS_9allocatorIS1_EEE7__clearB7v160006Ev, symObjAddr: 0x21D40, symBinAddr: 0x1000244D0, symSize: 0x20 }
  - { offsetInCU: 0x59BC7, offset: 0x7118B, size: 0x8, addend: 0x0, symName: __ZNSt3__16vectorI5CTxInNS_9allocatorIS1_EEE11__make_iterB7v160006EPS1_, symObjAddr: 0x21D60, symBinAddr: 0x1000244F0, symSize: 0x30 }
  - { offsetInCU: 0x59BFC, offset: 0x711C0, size: 0x8, addend: 0x0, symName: __ZNSt3__111__wrap_iterIP5CTxInEC1B7v160006EPKvS2_, symObjAddr: 0x21D90, symBinAddr: 0x100024520, symSize: 0x30 }
  - { offsetInCU: 0x59C42, offset: 0x71206, size: 0x8, addend: 0x0, symName: __ZNSt3__111__wrap_iterIP5CTxInEC2B7v160006EPKvS2_, symObjAddr: 0x21DC0, symBinAddr: 0x100024550, symSize: 0x20 }
  - { offsetInCU: 0x59C88, offset: 0x7124C, size: 0x8, addend: 0x0, symName: __ZNKSt3__111__wrap_iterIP5CTxInE4baseB7v160006Ev, symObjAddr: 0x21E20, symBinAddr: 0x1000245B0, symSize: 0x20 }
  - { offsetInCU: 0x59CAE, offset: 0x71272, size: 0x8, addend: 0x0, symName: __ZNSt3__16vectorINS0_IhNS_9allocatorIhEEEENS1_IS3_EEEaSB7v160006ERKS5_, symObjAddr: 0x21E40, symBinAddr: 0x1000245D0, symSize: 0x60 }
  - { offsetInCU: 0x59CE5, offset: 0x712A9, size: 0x8, addend: 0x0, symName: __ZNSt3__16vectorINS0_IhNS_9allocatorIhEEEENS1_IS3_EEE19__copy_assign_allocB7v160006ERKS5_, symObjAddr: 0x21EA0, symBinAddr: 0x100024630, symSize: 0x30 }
  - { offsetInCU: 0x59D1A, offset: 0x712DE, size: 0x8, addend: 0x0, symName: __ZNSt3__16vectorINS0_IhNS_9allocatorIhEEEENS1_IS3_EEE6assignIPS3_Li0EEEvT_S8_, symObjAddr: 0x21ED0, symBinAddr: 0x100024660, symSize: 0x160 }
  - { offsetInCU: 0x59DB9, offset: 0x7137D, size: 0x8, addend: 0x0, symName: __ZNSt3__16vectorINS0_IhNS_9allocatorIhEEEENS1_IS3_EEE19__copy_assign_allocB7v160006ERKS5_NS_17integral_constantIbLb0EEE, symObjAddr: 0x22030, symBinAddr: 0x1000247C0, symSize: 0x10 }
  - { offsetInCU: 0x59DF7, offset: 0x713BB, size: 0x8, addend: 0x0, symName: __ZNSt3__16vectorINS0_IhNS_9allocatorIhEEEENS1_IS3_EEE17__destruct_at_endB7v160006EPS3_, symObjAddr: 0x22100, symBinAddr: 0x100024890, symSize: 0x60 }
  - { offsetInCU: 0x59E3B, offset: 0x713FF, size: 0x8, addend: 0x0, symName: __ZNSt3__16vectorINS0_IhNS_9allocatorIhEEEENS1_IS3_EEE13__vdeallocateEv, symObjAddr: 0x22160, symBinAddr: 0x1000248F0, symSize: 0x80 }
  - { offsetInCU: 0x59E7C, offset: 0x71440, size: 0x8, addend: 0x0, symName: __ZNKSt3__111__copy_loopINS_17_ClassicAlgPolicyEEclB7v160006IPNS_6vectorIhNS_9allocatorIhEEEES8_S8_EENS_4pairIT_T1_EESA_T0_SB_, symObjAddr: 0x22380, symBinAddr: 0x100024B10, symSize: 0x80 }
  - { offsetInCU: 0x59EE7, offset: 0x714AB, size: 0x8, addend: 0x0, symName: __ZNSt3__119__unwrap_range_implIPNS_6vectorIhNS_9allocatorIhEEEES5_E8__unwrapB7v160006ES5_S5_, symObjAddr: 0x224C0, symBinAddr: 0x100024C50, symSize: 0x50 }
  - { offsetInCU: 0x59F1C, offset: 0x714E0, size: 0x8, addend: 0x0, symName: __ZNSt3__14pairIPNS_6vectorIhNS_9allocatorIhEEEES5_EC1B7v160006IS5_S5_LPv0EEEOT_OT0_, symObjAddr: 0x22510, symBinAddr: 0x100024CA0, symSize: 0x30 }
  - { offsetInCU: 0x59F7A, offset: 0x7153E, size: 0x8, addend: 0x0, symName: __ZNSt3__14pairIPNS_6vectorIhNS_9allocatorIhEEEES5_EC2B7v160006IS5_S5_LPv0EEEOT_OT0_, symObjAddr: 0x22540, symBinAddr: 0x100024CD0, symSize: 0x30 }
  - { offsetInCU: 0x59FD8, offset: 0x7159C, size: 0x8, addend: 0x0, symName: __ZNSt3__118__unwrap_iter_implIPNS_6vectorIhNS_9allocatorIhEEEELb1EE8__unwrapB7v160006ES5_, symObjAddr: 0x22570, symBinAddr: 0x100024D00, symSize: 0x20 }
  - { offsetInCU: 0x59FFA, offset: 0x715BE, size: 0x8, addend: 0x0, symName: __ZNSt3__119__unwrap_range_implIPNS_6vectorIhNS_9allocatorIhEEEES5_E8__rewrapB7v160006ES5_S5_, symObjAddr: 0x22590, symBinAddr: 0x100024D20, symSize: 0x30 }
  - { offsetInCU: 0x5A02A, offset: 0x715EE, size: 0x8, addend: 0x0, symName: __ZNSt3__118__unwrap_iter_implIPNS_6vectorIhNS_9allocatorIhEEEELb1EE8__rewrapB7v160006ES5_S5_, symObjAddr: 0x225C0, symBinAddr: 0x100024D50, symSize: 0x60 }
  - { offsetInCU: 0x5A05A, offset: 0x7161E, size: 0x8, addend: 0x0, symName: __ZNSt3__16vectorINS0_IhNS_9allocatorIhEEEENS1_IS3_EEE27__invalidate_iterators_pastB7v160006EPS3_, symObjAddr: 0x22620, symBinAddr: 0x100024DB0, symSize: 0x10 }
  - { offsetInCU: 0x5A091, offset: 0x71655, size: 0x8, addend: 0x0, symName: __ZN15CQuantumWitnessD2Ev, symObjAddr: 0x22630, symBinAddr: 0x100024DC0, symSize: 0x40 }
  - { offsetInCU: 0x5A0BD, offset: 0x71681, size: 0x8, addend: 0x0, symName: __ZN20CAggregatedSignatureD2Ev, symObjAddr: 0x22670, symBinAddr: 0x100024E00, symSize: 0x40 }
  - { offsetInCU: 0x5A0E9, offset: 0x716AD, size: 0x8, addend: 0x0, symName: __ZNSt3__16vectorI7uint256NS_9allocatorIS1_EEED1B7v160006Ev, symObjAddr: 0x226B0, symBinAddr: 0x100024E40, symSize: 0x20 }
  - { offsetInCU: 0x5A113, offset: 0x716D7, size: 0x8, addend: 0x0, symName: __ZNSt3__16vectorI7uint256NS_9allocatorIS1_EEED2B7v160006Ev, symObjAddr: 0x226D0, symBinAddr: 0x100024E60, symSize: 0x40 }
  - { offsetInCU: 0x5A13D, offset: 0x71701, size: 0x8, addend: 0x0, symName: __ZNSt3__16vectorI7uint256NS_9allocatorIS1_EEE16__destroy_vectorC1ERS4_, symObjAddr: 0x22710, symBinAddr: 0x100024EA0, symSize: 0x30 }
  - { offsetInCU: 0x5A176, offset: 0x7173A, size: 0x8, addend: 0x0, symName: __ZNSt3__16vectorI7uint256NS_9allocatorIS1_EEE16__destroy_vectorclB7v160006Ev, symObjAddr: 0x22740, symBinAddr: 0x100024ED0, symSize: 0x90 }
  - { offsetInCU: 0x5A19C, offset: 0x71760, size: 0x8, addend: 0x0, symName: __ZNSt3__16vectorI7uint256NS_9allocatorIS1_EEE16__destroy_vectorC2ERS4_, symObjAddr: 0x227D0, symBinAddr: 0x100024F60, symSize: 0x20 }
  - { offsetInCU: 0x5A1D5, offset: 0x71799, size: 0x8, addend: 0x0, symName: __ZNKSt3__16vectorI7uint256NS_9allocatorIS1_EEE17__annotate_deleteB7v160006Ev, symObjAddr: 0x227F0, symBinAddr: 0x100024F80, symSize: 0xB0 }
  - { offsetInCU: 0x5A1FB, offset: 0x717BF, size: 0x8, addend: 0x0, symName: __ZNSt3__16vectorI7uint160NS_9allocatorIS1_EEED2B7v160006Ev, symObjAddr: 0x228B0, symBinAddr: 0x100025040, symSize: 0x40 }
  - { offsetInCU: 0x5A225, offset: 0x717E9, size: 0x8, addend: 0x0, symName: __ZNSt3__16vectorI7uint160NS_9allocatorIS1_EEE16__destroy_vectorC1ERS4_, symObjAddr: 0x228F0, symBinAddr: 0x100025080, symSize: 0x30 }
  - { offsetInCU: 0x5A25E, offset: 0x71822, size: 0x8, addend: 0x0, symName: __ZNSt3__16vectorI7uint160NS_9allocatorIS1_EEE16__destroy_vectorclB7v160006Ev, symObjAddr: 0x22920, symBinAddr: 0x1000250B0, symSize: 0x90 }
  - { offsetInCU: 0x5A284, offset: 0x71848, size: 0x8, addend: 0x0, symName: __ZNSt3__16vectorI7uint160NS_9allocatorIS1_EEE16__destroy_vectorC2ERS4_, symObjAddr: 0x229B0, symBinAddr: 0x100025140, symSize: 0x20 }
  - { offsetInCU: 0x5A2BD, offset: 0x71881, size: 0x8, addend: 0x0, symName: __ZNSt3__16vectorI8CQPubKeyNS_9allocatorIS1_EEED2B7v160006Ev, symObjAddr: 0x229E0, symBinAddr: 0x100025170, symSize: 0x40 }
  - { offsetInCU: 0x5A2E7, offset: 0x718AB, size: 0x8, addend: 0x0, symName: __ZNSt3__16vectorI8CQPubKeyNS_9allocatorIS1_EEE16__destroy_vectorC1ERS4_, symObjAddr: 0x22A20, symBinAddr: 0x1000251B0, symSize: 0x30 }
  - { offsetInCU: 0x5A320, offset: 0x718E4, size: 0x8, addend: 0x0, symName: __ZNSt3__16vectorI8CQPubKeyNS_9allocatorIS1_EEE16__destroy_vectorclB7v160006Ev, symObjAddr: 0x22A50, symBinAddr: 0x1000251E0, symSize: 0x90 }
  - { offsetInCU: 0x5A346, offset: 0x7190A, size: 0x8, addend: 0x0, symName: __ZNSt3__16vectorI8CQPubKeyNS_9allocatorIS1_EEE16__destroy_vectorC2ERS4_, symObjAddr: 0x22AE0, symBinAddr: 0x100025270, symSize: 0x20 }
  - { offsetInCU: 0x5A37F, offset: 0x71943, size: 0x8, addend: 0x0, symName: __ZN20CDilithiumAggregatorD2Ev, symObjAddr: 0x22B10, symBinAddr: 0x1000252A0, symSize: 0x40 }
  - { offsetInCU: 0x5A3A9, offset: 0x7196D, size: 0x8, addend: 0x0, symName: __ZNSt3__16vectorI5CTxInNS_9allocatorIS1_EEE7__clearB7v160006Ev, symObjAddr: 0x22B50, symBinAddr: 0x1000252E0, symSize: 0x20 }
  - { offsetInCU: 0x5A3CF, offset: 0x71993, size: 0x8, addend: 0x0, symName: __ZNSt3__16vectorI6CTxOutNS_9allocatorIS1_EEE7__clearB7v160006Ev, symObjAddr: 0x22B70, symBinAddr: 0x100025300, symSize: 0x20 }
  - { offsetInCU: 0x5A3F5, offset: 0x719B9, size: 0x8, addend: 0x0, symName: __ZNSt3__16vectorI15CQuantumKeyPairNS_9allocatorIS1_EEE7__clearB7v160006Ev, symObjAddr: 0x22B90, symBinAddr: 0x100025320, symSize: 0x20 }
  - { offsetInCU: 0x5A41B, offset: 0x719DF, size: 0x8, addend: 0x0, symName: __ZNKSt3__16vectorI15CQuantumKeyPairNS_9allocatorIS1_EEE17__annotate_shrinkB7v160006Em, symObjAddr: 0x22BB0, symBinAddr: 0x100025340, symSize: 0xA0 }
  - { offsetInCU: 0x5A450, offset: 0x71A14, size: 0x8, addend: 0x0, symName: __ZNSt3__16vectorI15CQuantumKeyPairNS_9allocatorIS1_EEE22__base_destruct_at_endB7v160006EPS1_, symObjAddr: 0x22C50, symBinAddr: 0x1000253E0, symSize: 0x80 }
  - { offsetInCU: 0x5A494, offset: 0x71A58, size: 0x8, addend: 0x0, symName: __ZNSt3__16vectorIxNS_9allocatorIxEEE7__clearB7v160006Ev, symObjAddr: 0x22CD0, symBinAddr: 0x100025460, symSize: 0x20 }
  - { offsetInCU: 0x5A4BA, offset: 0x71A7E, size: 0x8, addend: 0x0, symName: __ZNKSt3__16vectorIxNS_9allocatorIxEEE17__annotate_shrinkB7v160006Em, symObjAddr: 0x22CF0, symBinAddr: 0x100025480, symSize: 0xA0 }
  - { offsetInCU: 0x5A4EF, offset: 0x71AB3, size: 0x8, addend: 0x0, symName: __ZNSt3__16vectorIxNS_9allocatorIxEEE22__base_destruct_at_endB7v160006EPx, symObjAddr: 0x22D90, symBinAddr: 0x100025520, symSize: 0x80 }
  - { offsetInCU: 0x5A533, offset: 0x71AF7, size: 0x8, addend: 0x0, symName: __ZNKSt3__16vectorIxNS_9allocatorIxEEE11__make_iterB7v160006EPKx, symObjAddr: 0x22E10, symBinAddr: 0x1000255A0, symSize: 0x30 }
  - { offsetInCU: 0x5A568, offset: 0x71B2C, size: 0x8, addend: 0x0, symName: __ZNSt3__111__wrap_iterIPKxEC1B7v160006EPKvS2_, symObjAddr: 0x22E40, symBinAddr: 0x1000255D0, symSize: 0x30 }
  - { offsetInCU: 0x5A5AE, offset: 0x71B72, size: 0x8, addend: 0x0, symName: __ZNSt3__111__wrap_iterIPKxEC2B7v160006EPKvS2_, symObjAddr: 0x22E70, symBinAddr: 0x100025600, symSize: 0x20 }
  - { offsetInCU: 0x5A5F4, offset: 0x71BB8, size: 0x8, addend: 0x0, symName: __ZNKSt3__111__wrap_iterIPKxE4baseB7v160006Ev, symObjAddr: 0x22ED0, symBinAddr: 0x100025660, symSize: 0x20 }
  - { offsetInCU: 0x5A61A, offset: 0x71BDE, size: 0x8, addend: 0x0, symName: __ZNKSt3__16vectorI6CTxOutNS_9allocatorIS1_EEE11__make_iterB7v160006EPKS1_, symObjAddr: 0x22EF0, symBinAddr: 0x100025680, symSize: 0x30 }
  - { offsetInCU: 0x5A64F, offset: 0x71C13, size: 0x8, addend: 0x0, symName: __ZNSt3__111__wrap_iterIPK6CTxOutEC1B7v160006EPKvS3_, symObjAddr: 0x22F20, symBinAddr: 0x1000256B0, symSize: 0x30 }
  - { offsetInCU: 0x5A695, offset: 0x71C59, size: 0x8, addend: 0x0, symName: __ZNSt3__111__wrap_iterIPK6CTxOutEC2B7v160006EPKvS3_, symObjAddr: 0x22F50, symBinAddr: 0x1000256E0, symSize: 0x20 }
  - { offsetInCU: 0x5A6DB, offset: 0x71C9F, size: 0x8, addend: 0x0, symName: __ZNKSt3__111__wrap_iterIPK6CTxOutE4baseB7v160006Ev, symObjAddr: 0x22FB0, symBinAddr: 0x100025740, symSize: 0x20 }
  - { offsetInCU: 0x5A701, offset: 0x71CC5, size: 0x8, addend: 0x0, symName: __ZNKSt3__16vectorINS0_IhNS_9allocatorIhEEEENS1_IS3_EEE5beginB7v160006Ev, symObjAddr: 0x230B0, symBinAddr: 0x100025840, symSize: 0x30 }
  - { offsetInCU: 0x5A729, offset: 0x71CED, size: 0x8, addend: 0x0, symName: __ZNKSt3__16vectorINS0_IhNS_9allocatorIhEEEENS1_IS3_EEE3endB7v160006Ev, symObjAddr: 0x230E0, symBinAddr: 0x100025870, symSize: 0x30 }
  - { offsetInCU: 0x5A75B, offset: 0x71D1F, size: 0x8, addend: 0x0, symName: __ZNKSt3__110__equal_toclB7v160006INS_6vectorIhNS_9allocatorIhEEEES5_EEbRKT_RKT0_, symObjAddr: 0x231E0, symBinAddr: 0x100025970, symSize: 0x30 }
  - { offsetInCU: 0x5A7AF, offset: 0x71D73, size: 0x8, addend: 0x0, symName: __ZNKSt3__111__wrap_iterIPKNS_6vectorIhNS_9allocatorIhEEEEEdeB7v160006Ev, symObjAddr: 0x23210, symBinAddr: 0x1000259A0, symSize: 0x20 }
  - { offsetInCU: 0x5A7D5, offset: 0x71D99, size: 0x8, addend: 0x0, symName: __ZNSt3__111__wrap_iterIPKNS_6vectorIhNS_9allocatorIhEEEEEppB7v160006Ev, symObjAddr: 0x23230, symBinAddr: 0x1000259C0, symSize: 0x20 }
  - { offsetInCU: 0x5A7FB, offset: 0x71DBF, size: 0x8, addend: 0x0, symName: __ZNKSt3__111__wrap_iterIPKNS_6vectorIhNS_9allocatorIhEEEEE4baseB7v160006Ev, symObjAddr: 0x23290, symBinAddr: 0x100025A20, symSize: 0x20 }
  - { offsetInCU: 0x5A821, offset: 0x71DE5, size: 0x8, addend: 0x0, symName: __ZNKSt3__16vectorIhNS_9allocatorIhEEE5beginB7v160006Ev, symObjAddr: 0x23390, symBinAddr: 0x100025B20, symSize: 0x30 }
  - { offsetInCU: 0x5A849, offset: 0x71E0D, size: 0x8, addend: 0x0, symName: __ZNKSt3__16vectorIhNS_9allocatorIhEEE3endB7v160006Ev, symObjAddr: 0x233C0, symBinAddr: 0x100025B50, symSize: 0x30 }
  - { offsetInCU: 0x5A871, offset: 0x71E35, size: 0x8, addend: 0x0, symName: __ZNKSt3__110__equal_toclB7v160006IhhEEbRKT_RKT0_, symObjAddr: 0x234C0, symBinAddr: 0x100025C50, symSize: 0x30 }
  - { offsetInCU: 0x5A8C5, offset: 0x71E89, size: 0x8, addend: 0x0, symName: __ZNKSt3__111__wrap_iterIPKhEdeB7v160006Ev, symObjAddr: 0x234F0, symBinAddr: 0x100025C80, symSize: 0x20 }
  - { offsetInCU: 0x5A8EB, offset: 0x71EAF, size: 0x8, addend: 0x0, symName: __ZNSt3__111__wrap_iterIPKhEppB7v160006Ev, symObjAddr: 0x23510, symBinAddr: 0x100025CA0, symSize: 0x20 }
  - { offsetInCU: 0x5A911, offset: 0x71ED5, size: 0x8, addend: 0x0, symName: __ZNKSt3__16vectorIhNS_9allocatorIhEEE11__make_iterB7v160006EPKh, symObjAddr: 0x23570, symBinAddr: 0x100025D00, symSize: 0x30 }
  - { offsetInCU: 0x5A946, offset: 0x71F0A, size: 0x8, addend: 0x0, symName: __ZNSt3__111__wrap_iterIPKhEC1B7v160006EPKvS2_, symObjAddr: 0x235A0, symBinAddr: 0x100025D30, symSize: 0x30 }
  - { offsetInCU: 0x5A98C, offset: 0x71F50, size: 0x8, addend: 0x0, symName: __ZNSt3__111__wrap_iterIPKhEC2B7v160006EPKvS2_, symObjAddr: 0x235D0, symBinAddr: 0x100025D60, symSize: 0x20 }
  - { offsetInCU: 0x5A9D2, offset: 0x71F96, size: 0x8, addend: 0x0, symName: __ZNKSt3__16vectorINS0_IhNS_9allocatorIhEEEENS1_IS3_EEE11__make_iterB7v160006EPKS3_, symObjAddr: 0x235F0, symBinAddr: 0x100025D80, symSize: 0x30 }
  - { offsetInCU: 0x5AA07, offset: 0x71FCB, size: 0x8, addend: 0x0, symName: __ZNSt3__111__wrap_iterIPKNS_6vectorIhNS_9allocatorIhEEEEEC1B7v160006EPKvS6_, symObjAddr: 0x23620, symBinAddr: 0x100025DB0, symSize: 0x30 }
  - { offsetInCU: 0x5AA4D, offset: 0x72011, size: 0x8, addend: 0x0, symName: __ZNSt3__111__wrap_iterIPKNS_6vectorIhNS_9allocatorIhEEEEEC2B7v160006EPKvS6_, symObjAddr: 0x23650, symBinAddr: 0x100025DE0, symSize: 0x20 }
  - { offsetInCU: 0x5AA93, offset: 0x72057, size: 0x8, addend: 0x0, symName: __ZNSt3__15arrayIhLm20EE4dataB7v160006Ev, symObjAddr: 0x23670, symBinAddr: 0x100025E00, symSize: 0x10 }
  - { offsetInCU: 0x5AAB9, offset: 0x7207D, size: 0x8, addend: 0x0, symName: __ZNK9base_blobILj160EE7CompareERKS0_, symObjAddr: 0x23680, symBinAddr: 0x100025E10, symSize: 0x40 }
  - { offsetInCU: 0x5AAED, offset: 0x720B1, size: 0x8, addend: 0x0, symName: __ZNKSt3__15arrayIhLm20EE4dataB7v160006Ev, symObjAddr: 0x236C0, symBinAddr: 0x100025E50, symSize: 0x10 }
  - { offsetInCU: 0x5AB13, offset: 0x720D7, size: 0x8, addend: 0x0, symName: __ZN9prevectorILj28EhjiE6insertENS0_8iteratorERKh, symObjAddr: 0x236D0, symBinAddr: 0x100025E60, symSize: 0x100 }
  - { offsetInCU: 0x5AB95, offset: 0x72159, size: 0x8, addend: 0x0, symName: __ZN9prevectorILj28EhjiE5beginEv, symObjAddr: 0x237D0, symBinAddr: 0x100025F60, symSize: 0x30 }
  - { offsetInCU: 0x5ABBB, offset: 0x7217F, size: 0x8, addend: 0x0, symName: __ZN7CScriptlsENSt3__14spanIKSt4byteLm18446744073709551615EEE, symObjAddr: 0x23800, symBinAddr: 0x100025F90, symSize: 0x80 }
  - { offsetInCU: 0x5ABF0, offset: 0x721B4, size: 0x8, addend: 0x0, symName: __ZN7CScript14AppendDataSizeEj, symObjAddr: 0x238B0, symBinAddr: 0x100026040, symSize: 0x210 }
  - { offsetInCU: 0x5AC61, offset: 0x72225, size: 0x8, addend: 0x0, symName: __ZNKSt3__14spanIKSt4byteLm18446744073709551615EE4sizeB7v160006Ev, symObjAddr: 0x23AC0, symBinAddr: 0x100026250, symSize: 0x20 }
  - { offsetInCU: 0x5AC87, offset: 0x7224B, size: 0x8, addend: 0x0, symName: __ZN7CScript10AppendDataENSt3__14spanIKhLm18446744073709551615EEE, symObjAddr: 0x23AE0, symBinAddr: 0x100026270, symSize: 0x60 }
  - { offsetInCU: 0x5ACBC, offset: 0x72280, size: 0x8, addend: 0x0, symName: __ZNKSt3__14spanIKSt4byteLm18446744073709551615EE4dataB7v160006Ev, symObjAddr: 0x23B40, symBinAddr: 0x1000262D0, symSize: 0x20 }
  - { offsetInCU: 0x5ACE1, offset: 0x722A5, size: 0x8, addend: 0x0, symName: __Z9WriteLE16IhEvPT_t, symObjAddr: 0x23B60, symBinAddr: 0x1000262F0, symSize: 0x40 }
  - { offsetInCU: 0x5AD30, offset: 0x722F4, size: 0x8, addend: 0x0, symName: __ZN9prevectorILj28EhjiE6insertIPKhEEvNS0_8iteratorET_S5_, symObjAddr: 0x23BA0, symBinAddr: 0x100026330, symSize: 0x100 }
  - { offsetInCU: 0x5ADD8, offset: 0x7239C, size: 0x8, addend: 0x0, symName: __Z16htole16_internalt, symObjAddr: 0x23D20, symBinAddr: 0x1000264B0, symSize: 0x20 }
  - { offsetInCU: 0x5AE05, offset: 0x723C9, size: 0x8, addend: 0x0, symName: __ZN9prevectorILj28EhjiE4fillIPKhEEvPhT_S5_, symObjAddr: 0x23D40, symBinAddr: 0x1000264D0, symSize: 0x50 }
  - { offsetInCU: 0x5AE5E, offset: 0x72422, size: 0x8, addend: 0x0, symName: __ZN9prevectorILj28EhjiE6insertINSt3__111__wrap_iterIPKhEEEEvNS0_8iteratorET_S8_, symObjAddr: 0x23DF0, symBinAddr: 0x100026580, symSize: 0x120 }
  - { offsetInCU: 0x5AF07, offset: 0x724CB, size: 0x8, addend: 0x0, symName: __ZNKSt3__14spanIKhLm18446744073709551615EE5beginB7v160006Ev, symObjAddr: 0x23F10, symBinAddr: 0x1000266A0, symSize: 0x40 }
  - { offsetInCU: 0x5AF2D, offset: 0x724F1, size: 0x8, addend: 0x0, symName: __ZNKSt3__14spanIKhLm18446744073709551615EE3endB7v160006Ev, symObjAddr: 0x23F50, symBinAddr: 0x1000266E0, symSize: 0x50 }
  - { offsetInCU: 0x5AF53, offset: 0x72517, size: 0x8, addend: 0x0, symName: __ZN9prevectorILj28EhjiE4fillINSt3__111__wrap_iterIPKhEEEEvPhT_S8_, symObjAddr: 0x23FE0, symBinAddr: 0x100026770, symSize: 0x70 }
  - { offsetInCU: 0x5AFAC, offset: 0x72570, size: 0x8, addend: 0x0, symName: __ZNKSt3__14spanIKhLm18446744073709551615EE10__as_bytesB7v160006Ev, symObjAddr: 0x24050, symBinAddr: 0x1000267E0, symSize: 0x60 }
  - { offsetInCU: 0x5AFD2, offset: 0x72596, size: 0x8, addend: 0x0, symName: __ZNKSt3__14spanIKhLm18446744073709551615EE10size_bytesB7v160006Ev, symObjAddr: 0x240B0, symBinAddr: 0x100026840, symSize: 0x20 }
  - { offsetInCU: 0x5AFF8, offset: 0x725BC, size: 0x8, addend: 0x0, symName: __ZNSt3__14spanIKSt4byteLm18446744073709551615EEC1B7v160006IPS2_EET_m, symObjAddr: 0x240D0, symBinAddr: 0x100026860, symSize: 0x30 }
  - { offsetInCU: 0x5B049, offset: 0x7260D, size: 0x8, addend: 0x0, symName: __ZNSt3__14spanIKSt4byteLm18446744073709551615EEC2B7v160006IPS2_EET_m, symObjAddr: 0x24100, symBinAddr: 0x100026890, symSize: 0x40 }
  - { offsetInCU: 0x5B09A, offset: 0x7265E, size: 0x8, addend: 0x0, symName: __ZNSt3__16vectorIhNS_9allocatorIhEEEC2IPKhLi0EEET_S7_, symObjAddr: 0x24170, symBinAddr: 0x100026900, symSize: 0x100 }
  - { offsetInCU: 0x5B118, offset: 0x726DC, size: 0x8, addend: 0x0, symName: __ZNSt3__14spanIKhLm18446744073709551615EEC2B7v160006INS_6vectorIhNS_9allocatorIhEEEEEEOT_, symObjAddr: 0x24270, symBinAddr: 0x100026A00, symSize: 0x60 }
  - { offsetInCU: 0x5B15A, offset: 0x7271E, size: 0x8, addend: 0x0, symName: __ZNKSt3__16ranges6__data4__fnclB7v160006IRNS_6vectorIhNS_9allocatorIhEEEEEEDaOT_, symObjAddr: 0x242D0, symBinAddr: 0x100026A60, symSize: 0x20 }
  - { offsetInCU: 0x5B197, offset: 0x7275B, size: 0x8, addend: 0x0, symName: __ZNKSt3__16ranges6__size4__fnclB7v160006IRNS_6vectorIhNS_9allocatorIhEEEEEEDaOT_, symObjAddr: 0x242F0, symBinAddr: 0x100026A80, symSize: 0x20 }
  - { offsetInCU: 0x5B1D4, offset: 0x72798, size: 0x8, addend: 0x0, symName: __ZN6bech3212DecodeResultD2Ev, symObjAddr: 0x24310, symBinAddr: 0x100026AA0, symSize: 0x30 }
  - { offsetInCU: 0x5B200, offset: 0x727C4, size: 0x8, addend: 0x0, symName: __ZNKSt3__16vectorI15CQuantumKeyPairNS_9allocatorIS1_EEE11__make_iterB7v160006EPKS1_, symObjAddr: 0x24340, symBinAddr: 0x100026AD0, symSize: 0x30 }
  - { offsetInCU: 0x5B235, offset: 0x727F9, size: 0x8, addend: 0x0, symName: __ZNSt3__111__wrap_iterIPK15CQuantumKeyPairEC1B7v160006EPKvS3_, symObjAddr: 0x24370, symBinAddr: 0x100026B00, symSize: 0x30 }
  - { offsetInCU: 0x5B27B, offset: 0x7283F, size: 0x8, addend: 0x0, symName: __ZNSt3__111__wrap_iterIPK15CQuantumKeyPairEC2B7v160006EPKvS3_, symObjAddr: 0x243A0, symBinAddr: 0x100026B30, symSize: 0x20 }
  - { offsetInCU: 0x5B2C1, offset: 0x72885, size: 0x8, addend: 0x0, symName: __ZNKSt3__111__wrap_iterIPK15CQuantumKeyPairE4baseB7v160006Ev, symObjAddr: 0x24400, symBinAddr: 0x100026B90, symSize: 0x20 }
  - { offsetInCU: 0x5B2E7, offset: 0x728AB, size: 0x8, addend: 0x0, symName: __ZN26CQuantumTransactionBuilderC2Ev, symObjAddr: 0x24420, symBinAddr: 0x100026BB0, symSize: 0x50 }
  - { offsetInCU: 0x5B311, offset: 0x728D5, size: 0x8, addend: 0x0, symName: __ZNSt3__16vectorI5CTxInNS_9allocatorIS1_EEEC1B7v160006Ev, symObjAddr: 0x24470, symBinAddr: 0x100026C00, symSize: 0x20 }
  - { offsetInCU: 0x5B33B, offset: 0x728FF, size: 0x8, addend: 0x0, symName: __ZNSt3__16vectorI6CTxOutNS_9allocatorIS1_EEEC1B7v160006Ev, symObjAddr: 0x24490, symBinAddr: 0x100026C20, symSize: 0x20 }
  - { offsetInCU: 0x5B365, offset: 0x72929, size: 0x8, addend: 0x0, symName: __ZNSt3__16vectorI15CQuantumKeyPairNS_9allocatorIS1_EEEC1B7v160006Ev, symObjAddr: 0x244B0, symBinAddr: 0x100026C40, symSize: 0x20 }
  - { offsetInCU: 0x5B38F, offset: 0x72953, size: 0x8, addend: 0x0, symName: __ZNSt3__16vectorIxNS_9allocatorIxEEEC1B7v160006Ev, symObjAddr: 0x244D0, symBinAddr: 0x100026C60, symSize: 0x20 }
  - { offsetInCU: 0x5B3B9, offset: 0x7297D, size: 0x8, addend: 0x0, symName: __ZNSt3__16vectorI5CTxInNS_9allocatorIS1_EEEC2B7v160006Ev, symObjAddr: 0x244F0, symBinAddr: 0x100026C80, symSize: 0x60 }
  - { offsetInCU: 0x5B3E3, offset: 0x729A7, size: 0x8, addend: 0x0, symName: __ZNSt3__117__compressed_pairIP5CTxInNS_9allocatorIS1_EEEC1B7v160006IDnNS_18__default_init_tagEEEOT_OT0_, symObjAddr: 0x24550, symBinAddr: 0x100026CE0, symSize: 0x30 }
  - { offsetInCU: 0x5B43B, offset: 0x729FF, size: 0x8, addend: 0x0, symName: __ZNSt3__117__compressed_pairIP5CTxInNS_9allocatorIS1_EEEC2B7v160006IDnNS_18__default_init_tagEEEOT_OT0_, symObjAddr: 0x24590, symBinAddr: 0x100026D20, symSize: 0x40 }
  - { offsetInCU: 0x5B493, offset: 0x72A57, size: 0x8, addend: 0x0, symName: __ZNSt3__122__compressed_pair_elemINS_9allocatorI5CTxInEELi1ELb1EEC2B7v160006ENS_18__default_init_tagE, symObjAddr: 0x245D0, symBinAddr: 0x100026D60, symSize: 0x20 }
  - { offsetInCU: 0x5B4C8, offset: 0x72A8C, size: 0x8, addend: 0x0, symName: __ZNSt3__19allocatorI5CTxInEC2B7v160006Ev, symObjAddr: 0x245F0, symBinAddr: 0x100026D80, symSize: 0x20 }
  - { offsetInCU: 0x5B4F2, offset: 0x72AB6, size: 0x8, addend: 0x0, symName: __ZNSt3__116__non_trivial_ifILb1ENS_9allocatorI5CTxInEEEC2B7v160006Ev, symObjAddr: 0x24610, symBinAddr: 0x100026DA0, symSize: 0x10 }
  - { offsetInCU: 0x5B51C, offset: 0x72AE0, size: 0x8, addend: 0x0, symName: __ZNSt3__16vectorI6CTxOutNS_9allocatorIS1_EEEC2B7v160006Ev, symObjAddr: 0x24620, symBinAddr: 0x100026DB0, symSize: 0x60 }
  - { offsetInCU: 0x5B546, offset: 0x72B0A, size: 0x8, addend: 0x0, symName: __ZNSt3__117__compressed_pairIP6CTxOutNS_9allocatorIS1_EEEC1B7v160006IDnNS_18__default_init_tagEEEOT_OT0_, symObjAddr: 0x24680, symBinAddr: 0x100026E10, symSize: 0x30 }
  - { offsetInCU: 0x5B59E, offset: 0x72B62, size: 0x8, addend: 0x0, symName: __ZNSt3__117__compressed_pairIP6CTxOutNS_9allocatorIS1_EEEC2B7v160006IDnNS_18__default_init_tagEEEOT_OT0_, symObjAddr: 0x246C0, symBinAddr: 0x100026E50, symSize: 0x40 }
  - { offsetInCU: 0x5B5F6, offset: 0x72BBA, size: 0x8, addend: 0x0, symName: __ZNSt3__122__compressed_pair_elemINS_9allocatorI6CTxOutEELi1ELb1EEC2B7v160006ENS_18__default_init_tagE, symObjAddr: 0x24700, symBinAddr: 0x100026E90, symSize: 0x20 }
  - { offsetInCU: 0x5B62B, offset: 0x72BEF, size: 0x8, addend: 0x0, symName: __ZNSt3__19allocatorI6CTxOutEC2B7v160006Ev, symObjAddr: 0x24720, symBinAddr: 0x100026EB0, symSize: 0x20 }
  - { offsetInCU: 0x5B655, offset: 0x72C19, size: 0x8, addend: 0x0, symName: __ZNSt3__116__non_trivial_ifILb1ENS_9allocatorI6CTxOutEEEC2B7v160006Ev, symObjAddr: 0x24740, symBinAddr: 0x100026ED0, symSize: 0x10 }
  - { offsetInCU: 0x5B67F, offset: 0x72C43, size: 0x8, addend: 0x0, symName: __ZNSt3__16vectorI15CQuantumKeyPairNS_9allocatorIS1_EEEC2B7v160006Ev, symObjAddr: 0x24750, symBinAddr: 0x100026EE0, symSize: 0x60 }
  - { offsetInCU: 0x5B6A9, offset: 0x72C6D, size: 0x8, addend: 0x0, symName: __ZNSt3__117__compressed_pairIP15CQuantumKeyPairNS_9allocatorIS1_EEEC1B7v160006IDnNS_18__default_init_tagEEEOT_OT0_, symObjAddr: 0x247B0, symBinAddr: 0x100026F40, symSize: 0x30 }
  - { offsetInCU: 0x5B701, offset: 0x72CC5, size: 0x8, addend: 0x0, symName: __ZNSt3__117__compressed_pairIP15CQuantumKeyPairNS_9allocatorIS1_EEEC2B7v160006IDnNS_18__default_init_tagEEEOT_OT0_, symObjAddr: 0x247F0, symBinAddr: 0x100026F80, symSize: 0x40 }
  - { offsetInCU: 0x5B759, offset: 0x72D1D, size: 0x8, addend: 0x0, symName: __ZNSt3__122__compressed_pair_elemINS_9allocatorI15CQuantumKeyPairEELi1ELb1EEC2B7v160006ENS_18__default_init_tagE, symObjAddr: 0x24830, symBinAddr: 0x100026FC0, symSize: 0x20 }
  - { offsetInCU: 0x5B78E, offset: 0x72D52, size: 0x8, addend: 0x0, symName: __ZNSt3__19allocatorI15CQuantumKeyPairEC2B7v160006Ev, symObjAddr: 0x24850, symBinAddr: 0x100026FE0, symSize: 0x20 }
  - { offsetInCU: 0x5B7B8, offset: 0x72D7C, size: 0x8, addend: 0x0, symName: __ZNSt3__116__non_trivial_ifILb1ENS_9allocatorI15CQuantumKeyPairEEEC2B7v160006Ev, symObjAddr: 0x24870, symBinAddr: 0x100027000, symSize: 0x10 }
  - { offsetInCU: 0x5B7E2, offset: 0x72DA6, size: 0x8, addend: 0x0, symName: __ZNSt3__16vectorIxNS_9allocatorIxEEEC2B7v160006Ev, symObjAddr: 0x24880, symBinAddr: 0x100027010, symSize: 0x60 }
  - { offsetInCU: 0x5B80C, offset: 0x72DD0, size: 0x8, addend: 0x0, symName: __ZNSt3__117__compressed_pairIPxNS_9allocatorIxEEEC1B7v160006IDnNS_18__default_init_tagEEEOT_OT0_, symObjAddr: 0x248E0, symBinAddr: 0x100027070, symSize: 0x30 }
  - { offsetInCU: 0x5B864, offset: 0x72E28, size: 0x8, addend: 0x0, symName: __ZNSt3__117__compressed_pairIPxNS_9allocatorIxEEEC2B7v160006IDnNS_18__default_init_tagEEEOT_OT0_, symObjAddr: 0x24920, symBinAddr: 0x1000270B0, symSize: 0x40 }
  - { offsetInCU: 0x5B8BC, offset: 0x72E80, size: 0x8, addend: 0x0, symName: __ZNSt3__122__compressed_pair_elemINS_9allocatorIxEELi1ELb1EEC2B7v160006ENS_18__default_init_tagE, symObjAddr: 0x24960, symBinAddr: 0x1000270F0, symSize: 0x20 }
  - { offsetInCU: 0x5B8F1, offset: 0x72EB5, size: 0x8, addend: 0x0, symName: __ZNSt3__19allocatorIxEC2B7v160006Ev, symObjAddr: 0x24980, symBinAddr: 0x100027110, symSize: 0x20 }
  - { offsetInCU: 0x5B91B, offset: 0x72EDF, size: 0x8, addend: 0x0, symName: __ZNSt3__116__non_trivial_ifILb1ENS_9allocatorIxEEEC2B7v160006Ev, symObjAddr: 0x249A0, symBinAddr: 0x100027130, symSize: 0x10 }
  - { offsetInCU: 0x5B945, offset: 0x72F09, size: 0x8, addend: 0x0, symName: __ZNKSt3__16vectorI9COutPointNS_9allocatorIS1_EEE11__make_iterB7v160006EPKS1_, symObjAddr: 0x249B0, symBinAddr: 0x100027140, symSize: 0x30 }
  - { offsetInCU: 0x5B97A, offset: 0x72F3E, size: 0x8, addend: 0x0, symName: __ZNSt3__111__wrap_iterIPK9COutPointEC1B7v160006EPKvS3_, symObjAddr: 0x249E0, symBinAddr: 0x100027170, symSize: 0x30 }
  - { offsetInCU: 0x5B9C0, offset: 0x72F84, size: 0x8, addend: 0x0, symName: __ZNSt3__111__wrap_iterIPK9COutPointEC2B7v160006EPKvS3_, symObjAddr: 0x24A10, symBinAddr: 0x1000271A0, symSize: 0x20 }
  - { offsetInCU: 0x5BA06, offset: 0x72FCA, size: 0x8, addend: 0x0, symName: __ZNKSt3__111__wrap_iterIPK9COutPointE4baseB7v160006Ev, symObjAddr: 0x24A70, symBinAddr: 0x100027200, symSize: 0x20 }
  - { offsetInCU: 0x5BA2C, offset: 0x72FF0, size: 0x8, addend: 0x0, symName: __ZNKSt3__16vectorINS_4pairI7uint160xEENS_9allocatorIS3_EEE11__make_iterB7v160006EPKS3_, symObjAddr: 0x24A90, symBinAddr: 0x100027220, symSize: 0x30 }
  - { offsetInCU: 0x5BA61, offset: 0x73025, size: 0x8, addend: 0x0, symName: __ZNSt3__111__wrap_iterIPKNS_4pairI7uint160xEEEC1B7v160006EPKvS5_, symObjAddr: 0x24AC0, symBinAddr: 0x100027250, symSize: 0x30 }
  - { offsetInCU: 0x5BAA7, offset: 0x7306B, size: 0x8, addend: 0x0, symName: __ZNSt3__111__wrap_iterIPKNS_4pairI7uint160xEEEC2B7v160006EPKvS5_, symObjAddr: 0x24AF0, symBinAddr: 0x100027280, symSize: 0x20 }
  - { offsetInCU: 0x5BAED, offset: 0x730B1, size: 0x8, addend: 0x0, symName: __ZNKSt3__111__wrap_iterIPKNS_4pairI7uint160xEEE4baseB7v160006Ev, symObjAddr: 0x24B50, symBinAddr: 0x1000272E0, symSize: 0x20 }
  - { offsetInCU: 0x5BB13, offset: 0x730D7, size: 0x8, addend: 0x0, symName: __ZN26CQuantumTransactionBuilderD2Ev, symObjAddr: 0x24B70, symBinAddr: 0x100027300, symSize: 0x50 }
  - { offsetInCU: 0x5BB3F, offset: 0x73103, size: 0x8, addend: 0x0, symName: __ZNSt3__16vectorIxNS_9allocatorIxEEED1B7v160006Ev, symObjAddr: 0x24BC0, symBinAddr: 0x100027350, symSize: 0x20 }
  - { offsetInCU: 0x5BB69, offset: 0x7312D, size: 0x8, addend: 0x0, symName: __ZNSt3__16vectorI15CQuantumKeyPairNS_9allocatorIS1_EEED1B7v160006Ev, symObjAddr: 0x24BE0, symBinAddr: 0x100027370, symSize: 0x20 }
  - { offsetInCU: 0x5BB93, offset: 0x73157, size: 0x8, addend: 0x0, symName: __ZNSt3__16vectorI6CTxOutNS_9allocatorIS1_EEED1B7v160006Ev, symObjAddr: 0x24C00, symBinAddr: 0x100027390, symSize: 0x20 }
  - { offsetInCU: 0x5BBBD, offset: 0x73181, size: 0x8, addend: 0x0, symName: __ZNSt3__16vectorI5CTxInNS_9allocatorIS1_EEED1B7v160006Ev, symObjAddr: 0x24C20, symBinAddr: 0x1000273B0, symSize: 0x20 }
  - { offsetInCU: 0x5BBE7, offset: 0x731AB, size: 0x8, addend: 0x0, symName: __ZNSt3__16vectorIxNS_9allocatorIxEEED2B7v160006Ev, symObjAddr: 0x24C40, symBinAddr: 0x1000273D0, symSize: 0x40 }
  - { offsetInCU: 0x5BC11, offset: 0x731D5, size: 0x8, addend: 0x0, symName: __ZNSt3__16vectorIxNS_9allocatorIxEEE16__destroy_vectorC1ERS3_, symObjAddr: 0x24C80, symBinAddr: 0x100027410, symSize: 0x30 }
  - { offsetInCU: 0x5BC4A, offset: 0x7320E, size: 0x8, addend: 0x0, symName: __ZNSt3__16vectorIxNS_9allocatorIxEEE16__destroy_vectorclB7v160006Ev, symObjAddr: 0x24CB0, symBinAddr: 0x100027440, symSize: 0x90 }
  - { offsetInCU: 0x5BC70, offset: 0x73234, size: 0x8, addend: 0x0, symName: __ZNSt3__16vectorIxNS_9allocatorIxEEE16__destroy_vectorC2ERS3_, symObjAddr: 0x24D40, symBinAddr: 0x1000274D0, symSize: 0x20 }
  - { offsetInCU: 0x5BCA9, offset: 0x7326D, size: 0x8, addend: 0x0, symName: __ZNSt3__16vectorI15CQuantumKeyPairNS_9allocatorIS1_EEED2B7v160006Ev, symObjAddr: 0x24D70, symBinAddr: 0x100027500, symSize: 0x40 }
  - { offsetInCU: 0x5BCD3, offset: 0x73297, size: 0x8, addend: 0x0, symName: __ZNSt3__16vectorI15CQuantumKeyPairNS_9allocatorIS1_EEE16__destroy_vectorC1ERS4_, symObjAddr: 0x24DB0, symBinAddr: 0x100027540, symSize: 0x30 }
  - { offsetInCU: 0x5BD0C, offset: 0x732D0, size: 0x8, addend: 0x0, symName: __ZNSt3__16vectorI15CQuantumKeyPairNS_9allocatorIS1_EEE16__destroy_vectorclB7v160006Ev, symObjAddr: 0x24DE0, symBinAddr: 0x100027570, symSize: 0x90 }
  - { offsetInCU: 0x5BD32, offset: 0x732F6, size: 0x8, addend: 0x0, symName: __ZNSt3__16vectorI15CQuantumKeyPairNS_9allocatorIS1_EEE16__destroy_vectorC2ERS4_, symObjAddr: 0x24E70, symBinAddr: 0x100027600, symSize: 0x20 }
  - { offsetInCU: 0x5BD6B, offset: 0x7332F, size: 0x8, addend: 0x0, symName: __ZNSt3__16vectorI6CTxOutNS_9allocatorIS1_EEED2B7v160006Ev, symObjAddr: 0x24EA0, symBinAddr: 0x100027630, symSize: 0x40 }
  - { offsetInCU: 0x5BD95, offset: 0x73359, size: 0x8, addend: 0x0, symName: __ZNSt3__16vectorI6CTxOutNS_9allocatorIS1_EEE16__destroy_vectorC1ERS4_, symObjAddr: 0x24EE0, symBinAddr: 0x100027670, symSize: 0x30 }
  - { offsetInCU: 0x5BDCE, offset: 0x73392, size: 0x8, addend: 0x0, symName: __ZNSt3__16vectorI6CTxOutNS_9allocatorIS1_EEE16__destroy_vectorclB7v160006Ev, symObjAddr: 0x24F10, symBinAddr: 0x1000276A0, symSize: 0x90 }
  - { offsetInCU: 0x5BDF4, offset: 0x733B8, size: 0x8, addend: 0x0, symName: __ZNSt3__16vectorI6CTxOutNS_9allocatorIS1_EEE16__destroy_vectorC2ERS4_, symObjAddr: 0x24FA0, symBinAddr: 0x100027730, symSize: 0x20 }
  - { offsetInCU: 0x5BE2D, offset: 0x733F1, size: 0x8, addend: 0x0, symName: __ZNSt3__16vectorI5CTxInNS_9allocatorIS1_EEED2B7v160006Ev, symObjAddr: 0x24FD0, symBinAddr: 0x100027760, symSize: 0x40 }
  - { offsetInCU: 0x5BE57, offset: 0x7341B, size: 0x8, addend: 0x0, symName: __ZNSt3__16vectorI5CTxInNS_9allocatorIS1_EEE16__destroy_vectorC1ERS4_, symObjAddr: 0x25010, symBinAddr: 0x1000277A0, symSize: 0x30 }
  - { offsetInCU: 0x5BE90, offset: 0x73454, size: 0x8, addend: 0x0, symName: __ZNSt3__16vectorI5CTxInNS_9allocatorIS1_EEE16__destroy_vectorclB7v160006Ev, symObjAddr: 0x25040, symBinAddr: 0x1000277D0, symSize: 0x90 }
  - { offsetInCU: 0x5BEB6, offset: 0x7347A, size: 0x8, addend: 0x0, symName: __ZNSt3__16vectorI5CTxInNS_9allocatorIS1_EEE16__destroy_vectorC2ERS4_, symObjAddr: 0x250D0, symBinAddr: 0x100027860, symSize: 0x20 }
  - { offsetInCU: 0x5BEEF, offset: 0x734B3, size: 0x8, addend: 0x0, symName: __ZNSt3__114basic_ofstreamIcNS_11char_traitsIcEEED2Ev, symObjAddr: 0x25100, symBinAddr: 0x100027890, symSize: 0x60 }
  - { offsetInCU: 0x5BF29, offset: 0x734ED, size: 0x8, addend: 0x0, symName: __ZTv0_n24_NSt3__114basic_ofstreamIcNS_11char_traitsIcEEED1Ev, symObjAddr: 0x25160, symBinAddr: 0x1000278F0, symSize: 0x20 }
  - { offsetInCU: 0x5BF40, offset: 0x73504, size: 0x8, addend: 0x0, symName: __ZNSt3__13mapI7uint160mNS_4lessIS1_EENS_9allocatorINS_4pairIKS1_mEEEEE5clearB7v160006Ev, symObjAddr: 0x25180, symBinAddr: 0x100027910, symSize: 0x20 }
  - { offsetInCU: 0x5BF66, offset: 0x7352A, size: 0x8, addend: 0x0, symName: __ZNSt3__16__treeINS_12__value_typeI7uint160mEENS_19__map_value_compareIS2_S3_NS_4lessIS2_EELb1EEENS_9allocatorIS3_EEE5clearEv, symObjAddr: 0x251A0, symBinAddr: 0x100027930, symSize: 0x70 }
  - { offsetInCU: 0x5BF8E, offset: 0x73552, size: 0x8, addend: 0x0, symName: __ZNSt3__16__treeINS_12__value_typeI7uint160mEENS_19__map_value_compareIS2_S3_NS_4lessIS2_EELb1EEENS_9allocatorIS3_EEE7destroyEPNS_11__tree_nodeIS3_PvEE, symObjAddr: 0x25210, symBinAddr: 0x1000279A0, symSize: 0xB0 }
  - { offsetInCU: 0x5BFDA, offset: 0x7359E, size: 0x8, addend: 0x0, symName: __ZNKSt3__16__treeINS_12__value_typeI7uint160mEENS_19__map_value_compareIS2_S3_NS_4lessIS2_EELb1EEENS_9allocatorIS3_EEE6__rootB7v160006Ev, symObjAddr: 0x252C0, symBinAddr: 0x100027A50, symSize: 0x20 }
  - { offsetInCU: 0x5C000, offset: 0x735C4, size: 0x8, addend: 0x0, symName: __ZNSt3__16__treeINS_12__value_typeI7uint160mEENS_19__map_value_compareIS2_S3_NS_4lessIS2_EELb1EEENS_9allocatorIS3_EEE4sizeB7v160006Ev, symObjAddr: 0x252E0, symBinAddr: 0x100027A70, symSize: 0x20 }
  - { offsetInCU: 0x5C026, offset: 0x735EA, size: 0x8, addend: 0x0, symName: __ZNSt3__16__treeINS_12__value_typeI7uint160mEENS_19__map_value_compareIS2_S3_NS_4lessIS2_EELb1EEENS_9allocatorIS3_EEE10__end_nodeB7v160006Ev, symObjAddr: 0x25300, symBinAddr: 0x100027A90, symSize: 0x30 }
  - { offsetInCU: 0x5C04C, offset: 0x73610, size: 0x8, addend: 0x0, symName: __ZNSt3__16__treeINS_12__value_typeI7uint160mEENS_19__map_value_compareIS2_S3_NS_4lessIS2_EELb1EEENS_9allocatorIS3_EEE12__begin_nodeB7v160006Ev, symObjAddr: 0x25330, symBinAddr: 0x100027AC0, symSize: 0x10 }
  - { offsetInCU: 0x5C072, offset: 0x73636, size: 0x8, addend: 0x0, symName: __ZNSt3__16__treeINS_12__value_typeI7uint160mEENS_19__map_value_compareIS2_S3_NS_4lessIS2_EELb1EEENS_9allocatorIS3_EEE12__node_allocB7v160006Ev, symObjAddr: 0x25340, symBinAddr: 0x100027AD0, symSize: 0x20 }
  - { offsetInCU: 0x5C098, offset: 0x7365C, size: 0x8, addend: 0x0, symName: __ZNSt3__116allocator_traitsINS_9allocatorINS_11__tree_nodeINS_12__value_typeI7uint160mEEPvEEEEE7destroyB7v160006INS_4pairIKS4_mEEvvEEvRS8_PT_, symObjAddr: 0x25360, symBinAddr: 0x100027AF0, symSize: 0x20 }
  - { offsetInCU: 0x5C0D2, offset: 0x73696, size: 0x8, addend: 0x0, symName: __ZNSt3__122__tree_key_value_typesINS_12__value_typeI7uint160mEEE9__get_ptrB7v160006ERS3_, symObjAddr: 0x25380, symBinAddr: 0x100027B10, symSize: 0x20 }
  - { offsetInCU: 0x5C0F5, offset: 0x736B9, size: 0x8, addend: 0x0, symName: __ZNSt3__116allocator_traitsINS_9allocatorINS_11__tree_nodeINS_12__value_typeI7uint160mEEPvEEEEE10deallocateB7v160006ERS8_PS7_m, symObjAddr: 0x253A0, symBinAddr: 0x100027B30, symSize: 0x30 }
  - { offsetInCU: 0x5C136, offset: 0x736FA, size: 0x8, addend: 0x0, symName: __ZNSt3__117__compressed_pairINS_15__tree_end_nodeIPNS_16__tree_node_baseIPvEEEENS_9allocatorINS_11__tree_nodeINS_12__value_typeI7uint160mEES3_EEEEE6secondB7v160006Ev, symObjAddr: 0x253D0, symBinAddr: 0x100027B60, symSize: 0x20 }
  - { offsetInCU: 0x5C15C, offset: 0x73720, size: 0x8, addend: 0x0, symName: __ZNSt3__122__compressed_pair_elemINS_9allocatorINS_11__tree_nodeINS_12__value_typeI7uint160mEEPvEEEELi1ELb1EE5__getB7v160006Ev, symObjAddr: 0x253F0, symBinAddr: 0x100027B80, symSize: 0x10 }
  - { offsetInCU: 0x5C182, offset: 0x73746, size: 0x8, addend: 0x0, symName: __ZNSt3__112__value_typeI7uint160mE11__get_valueB7v160006Ev, symObjAddr: 0x25430, symBinAddr: 0x100027BC0, symSize: 0x20 }
  - { offsetInCU: 0x5C1A8, offset: 0x7376C, size: 0x8, addend: 0x0, symName: __ZNSt3__19allocatorINS_11__tree_nodeINS_12__value_typeI7uint160mEEPvEEE10deallocateB7v160006EPS6_m, symObjAddr: 0x25480, symBinAddr: 0x100027C10, symSize: 0x40 }
  - { offsetInCU: 0x5C1EA, offset: 0x737AE, size: 0x8, addend: 0x0, symName: __ZNKSt3__16__treeINS_12__value_typeI7uint160mEENS_19__map_value_compareIS2_S3_NS_4lessIS2_EELb1EEENS_9allocatorIS3_EEE10__end_nodeB7v160006Ev, symObjAddr: 0x254C0, symBinAddr: 0x100027C50, symSize: 0x30 }
  - { offsetInCU: 0x5C210, offset: 0x737D4, size: 0x8, addend: 0x0, symName: __ZNSt3__114pointer_traitsIPNS_15__tree_end_nodeIPNS_16__tree_node_baseIPvEEEEE10pointer_toB7v160006ERS6_, symObjAddr: 0x254F0, symBinAddr: 0x100027C80, symSize: 0x10 }
  - { offsetInCU: 0x5C232, offset: 0x737F6, size: 0x8, addend: 0x0, symName: __ZNKSt3__117__compressed_pairINS_15__tree_end_nodeIPNS_16__tree_node_baseIPvEEEENS_9allocatorINS_11__tree_nodeINS_12__value_typeI7uint160mEES3_EEEEE5firstB7v160006Ev, symObjAddr: 0x25500, symBinAddr: 0x100027C90, symSize: 0x20 }
  - { offsetInCU: 0x5C258, offset: 0x7381C, size: 0x8, addend: 0x0, symName: __ZNKSt3__122__compressed_pair_elemINS_15__tree_end_nodeIPNS_16__tree_node_baseIPvEEEELi0ELb0EE5__getB7v160006Ev, symObjAddr: 0x25520, symBinAddr: 0x100027CB0, symSize: 0x10 }
  - { offsetInCU: 0x5C27E, offset: 0x73842, size: 0x8, addend: 0x0, symName: __ZNSt3__117__compressed_pairImNS_19__map_value_compareI7uint160NS_12__value_typeIS2_mEENS_4lessIS2_EELb1EEEE5firstB7v160006Ev, symObjAddr: 0x25530, symBinAddr: 0x100027CC0, symSize: 0x20 }
  - { offsetInCU: 0x5C2A4, offset: 0x73868, size: 0x8, addend: 0x0, symName: __ZNSt3__122__compressed_pair_elemImLi0ELb0EE5__getB7v160006Ev, symObjAddr: 0x25550, symBinAddr: 0x100027CE0, symSize: 0x10 }
  - { offsetInCU: 0x5C2CA, offset: 0x7388E, size: 0x8, addend: 0x0, symName: __ZNSt3__117__compressed_pairINS_15__tree_end_nodeIPNS_16__tree_node_baseIPvEEEENS_9allocatorINS_11__tree_nodeINS_12__value_typeI7uint160mEES3_EEEEE5firstB7v160006Ev, symObjAddr: 0x25560, symBinAddr: 0x100027CF0, symSize: 0x20 }
  - { offsetInCU: 0x5C2F0, offset: 0x738B4, size: 0x8, addend: 0x0, symName: __ZNSt3__122__compressed_pair_elemINS_15__tree_end_nodeIPNS_16__tree_node_baseIPvEEEELi0ELb0EE5__getB7v160006Ev, symObjAddr: 0x25580, symBinAddr: 0x100027D10, symSize: 0x10 }
  - { offsetInCU: 0x5C316, offset: 0x738DA, size: 0x8, addend: 0x0, symName: __ZNSt3__114basic_ifstreamIcNS_11char_traitsIcEEED2Ev, symObjAddr: 0x25590, symBinAddr: 0x100027D20, symSize: 0x60 }
  - { offsetInCU: 0x5C350, offset: 0x73914, size: 0x8, addend: 0x0, symName: __ZTv0_n24_NSt3__114basic_ifstreamIcNS_11char_traitsIcEEED1Ev, symObjAddr: 0x255F0, symBinAddr: 0x100027D80, symSize: 0x20 }
  - { offsetInCU: 0x5C367, offset: 0x7392B, size: 0x8, addend: 0x0, symName: __ZN8CHash160C1Ev, symObjAddr: 0x25610, symBinAddr: 0x100027DA0, symSize: 0x20 }
  - { offsetInCU: 0x5C393, offset: 0x73957, size: 0x8, addend: 0x0, symName: __ZN8CHash1605WriteENSt3__14spanIKhLm18446744073709551615EEE, symObjAddr: 0x25630, symBinAddr: 0x100027DC0, symSize: 0x50 }
  - { offsetInCU: 0x5C3C6, offset: 0x7398A, size: 0x8, addend: 0x0, symName: __Z13MakeUCharSpanINSt3__14spanIKhLm18446744073709551615EEEEDTcl13UCharSpanCasttlS1_fp_EEERKT_, symObjAddr: 0x25680, symBinAddr: 0x100027E10, symSize: 0x40 }
  - { offsetInCU: 0x5C3FC, offset: 0x739C0, size: 0x8, addend: 0x0, symName: __ZN8CHash1608FinalizeENSt3__14spanIhLm18446744073709551615EEE, symObjAddr: 0x256C0, symBinAddr: 0x100027E50, symSize: 0x100 }
  - { offsetInCU: 0x5C441, offset: 0x73A05, size: 0x8, addend: 0x0, symName: __ZNSt3__14spanIhLm18446744073709551615EEC1B7v160006IR7uint160EEOT_, symObjAddr: 0x257C0, symBinAddr: 0x100027F50, symSize: 0x30 }
  - { offsetInCU: 0x5C483, offset: 0x73A47, size: 0x8, addend: 0x0, symName: __ZN8CHash160C2Ev, symObjAddr: 0x257F0, symBinAddr: 0x100027F80, symSize: 0x20 }
  - { offsetInCU: 0x5C4AE, offset: 0x73A72, size: 0x8, addend: 0x0, symName: __Z13UCharSpanCastIKhLm18446744073709551615EEDaNSt3__14spanIT_XT0_EEE, symObjAddr: 0x25810, symBinAddr: 0x100027FA0, symSize: 0x50 }
  - { offsetInCU: 0x5C4F6, offset: 0x73ABA, size: 0x8, addend: 0x0, symName: __Z9UCharCastPKh, symObjAddr: 0x25860, symBinAddr: 0x100027FF0, symSize: 0x10 }
  - { offsetInCU: 0x5C523, offset: 0x73AE7, size: 0x8, addend: 0x0, symName: __ZNSt3__14spanIhLm18446744073709551615EEC2B7v160006IR7uint160EEOT_, symObjAddr: 0x25870, symBinAddr: 0x100028000, symSize: 0x60 }
  - { offsetInCU: 0x5C565, offset: 0x73B29, size: 0x8, addend: 0x0, symName: __ZNKSt3__16ranges6__data4__fnclB7v160006IR7uint160EEDaOT_, symObjAddr: 0x258D0, symBinAddr: 0x100028060, symSize: 0x20 }
  - { offsetInCU: 0x5C5A2, offset: 0x73B66, size: 0x8, addend: 0x0, symName: __ZNKSt3__16ranges6__size4__fnclB7v160006IR7uint160EEDaOT_, symObjAddr: 0x258F0, symBinAddr: 0x100028080, symSize: 0x20 }
  - { offsetInCU: 0x5C5DF, offset: 0x73BA3, size: 0x8, addend: 0x0, symName: __ZN9base_blobILj160EE4dataEv, symObjAddr: 0x25910, symBinAddr: 0x1000280A0, symSize: 0x20 }
  - { offsetInCU: 0x5C605, offset: 0x73BC9, size: 0x8, addend: 0x0, symName: __ZN9base_blobILj160EE4sizeEv, symObjAddr: 0x25930, symBinAddr: 0x1000280C0, symSize: 0x10 }
  - { offsetInCU: 0x5C618, offset: 0x73BDC, size: 0x8, addend: 0x0, symName: __Z16htole32_internalj, symObjAddr: 0x25940, symBinAddr: 0x1000280D0, symSize: 0x10 }
  - { offsetInCU: 0x5C645, offset: 0x73C09, size: 0x8, addend: 0x0, symName: __Z9SerializeI12VectorWriter20CAggregatedSignatureEvRT_RKT0_, symObjAddr: 0x25980, symBinAddr: 0x1000280E0, symSize: 0x30 }
  - { offsetInCU: 0x5C690, offset: 0x73C54, size: 0x8, addend: 0x0, symName: __ZNK20CAggregatedSignature9SerializeI12VectorWriterEEvRT_, symObjAddr: 0x259B0, symBinAddr: 0x100028110, symSize: 0x30 }
  - { offsetInCU: 0x5C6CD, offset: 0x73C91, size: 0x8, addend: 0x0, symName: __ZN20CAggregatedSignature3SerI12VectorWriterEEvRT_RKS_, symObjAddr: 0x259E0, symBinAddr: 0x100028140, symSize: 0x30 }
  - { offsetInCU: 0x5C706, offset: 0x73CCA, size: 0x8, addend: 0x0, symName: __ZN20CAggregatedSignature16SerializationOpsI12VectorWriterKS_15ActionSerializeEEvRT0_RT_T1_, symObjAddr: 0x25A10, symBinAddr: 0x100028170, symSize: 0x40 }
  - { offsetInCU: 0x5C764, offset: 0x73D28, size: 0x8, addend: 0x0, symName: __ZN15ActionSerialize16SerReadWriteManyI12VectorWriterJNSt3__16vectorIhNS2_9allocatorIhEEEENS3_I7uint256NS4_IS7_EEEENS3_I8CQPubKeyNS4_ISA_EEEEjEEEvRT_DpRKT0_, symObjAddr: 0x25A50, symBinAddr: 0x1000281B0, symSize: 0x40 }
  - { offsetInCU: 0x5C7E6, offset: 0x73DAA, size: 0x8, addend: 0x0, symName: __Z13SerializeManyI12VectorWriterJNSt3__16vectorIhNS1_9allocatorIhEEEENS2_I7uint256NS3_IS6_EEEENS2_I8CQPubKeyNS3_IS9_EEEEjEEvRT_DpRKT0_, symObjAddr: 0x25A90, symBinAddr: 0x1000281F0, symSize: 0x60 }
  - { offsetInCU: 0x5C86F, offset: 0x73E33, size: 0x8, addend: 0x0, symName: __Z9SerializeI12VectorWriterhNSt3__19allocatorIhEEEvRT_RKNS1_6vectorIT0_T1_EE, symObjAddr: 0x25AF0, symBinAddr: 0x100028250, symSize: 0x70 }
  - { offsetInCU: 0x5C8C3, offset: 0x73E87, size: 0x8, addend: 0x0, symName: __Z9SerializeI12VectorWriter7uint256NSt3__19allocatorIS1_EEEvRT_RKNS2_6vectorIT0_T1_EE, symObjAddr: 0x25B60, symBinAddr: 0x1000282C0, symSize: 0x40 }
  - { offsetInCU: 0x5C917, offset: 0x73EDB, size: 0x8, addend: 0x0, symName: __Z9SerializeI12VectorWriter8CQPubKeyNSt3__19allocatorIS1_EEEvRT_RKNS2_6vectorIT0_T1_EE, symObjAddr: 0x25BA0, symBinAddr: 0x100028300, symSize: 0x40 }
  - { offsetInCU: 0x5C96B, offset: 0x73F2F, size: 0x8, addend: 0x0, symName: __Z9SerializeI12VectorWriterEvRT_j, symObjAddr: 0x25BE0, symBinAddr: 0x100028340, symSize: 0x30 }
  - { offsetInCU: 0x5C9AD, offset: 0x73F71, size: 0x8, addend: 0x0, symName: __Z16WriteCompactSizeI12VectorWriterEvRT_y, symObjAddr: 0x25C10, symBinAddr: 0x100028370, symSize: 0xF0 }
  - { offsetInCU: 0x5C9EF, offset: 0x73FB3, size: 0x8, addend: 0x0, symName: __ZNKSt3__16vectorIhNS_9allocatorIhEEE5emptyB7v160006Ev, symObjAddr: 0x25D00, symBinAddr: 0x100028460, symSize: 0x20 }
  - { offsetInCU: 0x5CA15, offset: 0x73FD9, size: 0x8, addend: 0x0, symName: __ZN12VectorWriter5writeENSt3__14spanIKSt4byteLm18446744073709551615EEE, symObjAddr: 0x25D20, symBinAddr: 0x100028480, symSize: 0x1B0 }
  - { offsetInCU: 0x5CA57, offset: 0x7401B, size: 0x8, addend: 0x0, symName: __Z12MakeByteSpanINSt3__16vectorIhNS0_9allocatorIhEEEEEDaRKT_, symObjAddr: 0x25ED0, symBinAddr: 0x100028630, symSize: 0x50 }
  - { offsetInCU: 0x5CA8C, offset: 0x74050, size: 0x8, addend: 0x0, symName: __Z14ser_writedata8I12VectorWriterEvRT_h, symObjAddr: 0x25F20, symBinAddr: 0x100028680, symSize: 0x60 }
  - { offsetInCU: 0x5CACC, offset: 0x74090, size: 0x8, addend: 0x0, symName: __ZNSt3__114numeric_limitsItE3maxB7v160006Ev, symObjAddr: 0x25F80, symBinAddr: 0x1000286E0, symSize: 0x10 }
  - { offsetInCU: 0x5CADF, offset: 0x740A3, size: 0x8, addend: 0x0, symName: __Z15ser_writedata16I12VectorWriterEvRT_t, symObjAddr: 0x25F90, symBinAddr: 0x1000286F0, symSize: 0x70 }
  - { offsetInCU: 0x5CB1F, offset: 0x740E3, size: 0x8, addend: 0x0, symName: __ZNSt3__114numeric_limitsIjE3maxB7v160006Ev, symObjAddr: 0x26000, symBinAddr: 0x100028760, symSize: 0x10 }
  - { offsetInCU: 0x5CB32, offset: 0x740F6, size: 0x8, addend: 0x0, symName: __Z15ser_writedata32I12VectorWriterEvRT_j, symObjAddr: 0x26010, symBinAddr: 0x100028770, symSize: 0x60 }
  - { offsetInCU: 0x5CB71, offset: 0x74135, size: 0x8, addend: 0x0, symName: __Z15ser_writedata64I12VectorWriterEvRT_y, symObjAddr: 0x26070, symBinAddr: 0x1000287D0, symSize: 0x70 }
  - { offsetInCU: 0x5CBB1, offset: 0x74175, size: 0x8, addend: 0x0, symName: __ZNKSt3__14spanIhLm18446744073709551615EE10__as_bytesB7v160006Ev, symObjAddr: 0x26110, symBinAddr: 0x100028870, symSize: 0x60 }
  - { offsetInCU: 0x5CBD7, offset: 0x7419B, size: 0x8, addend: 0x0, symName: __ZNKSt3__14spanIhLm18446744073709551615EE10size_bytesB7v160006Ev, symObjAddr: 0x26170, symBinAddr: 0x1000288D0, symSize: 0x20 }
  - { offsetInCU: 0x5CBFD, offset: 0x741C1, size: 0x8, addend: 0x0, symName: __ZNSt3__123__libcpp_numeric_limitsItLb1EE3maxB7v160006Ev, symObjAddr: 0x26190, symBinAddr: 0x1000288F0, symSize: 0x10 }
  - { offsetInCU: 0x5CC2F, offset: 0x741F3, size: 0x8, addend: 0x0, symName: __ZNSt3__14spanItLm18446744073709551615EEC1B7v160006IPtEET_m, symObjAddr: 0x261D0, symBinAddr: 0x100028930, symSize: 0x30 }
  - { offsetInCU: 0x5CC80, offset: 0x74244, size: 0x8, addend: 0x0, symName: __ZNKSt3__14spanItLm18446744073709551615EE10__as_bytesB7v160006Ev, symObjAddr: 0x26200, symBinAddr: 0x100028960, symSize: 0x60 }
  - { offsetInCU: 0x5CCA6, offset: 0x7426A, size: 0x8, addend: 0x0, symName: __ZNKSt3__14spanItLm18446744073709551615EE4dataB7v160006Ev, symObjAddr: 0x26260, symBinAddr: 0x1000289C0, symSize: 0x20 }
  - { offsetInCU: 0x5CCCC, offset: 0x74290, size: 0x8, addend: 0x0, symName: __ZNKSt3__14spanItLm18446744073709551615EE10size_bytesB7v160006Ev, symObjAddr: 0x26280, symBinAddr: 0x1000289E0, symSize: 0x20 }
  - { offsetInCU: 0x5CCF2, offset: 0x742B6, size: 0x8, addend: 0x0, symName: __ZNSt3__14spanItLm18446744073709551615EEC2B7v160006IPtEET_m, symObjAddr: 0x262A0, symBinAddr: 0x100028A00, symSize: 0x40 }
  - { offsetInCU: 0x5CD43, offset: 0x74307, size: 0x8, addend: 0x0, symName: __ZNSt3__123__libcpp_numeric_limitsIjLb1EE3maxB7v160006Ev, symObjAddr: 0x26310, symBinAddr: 0x100028A70, symSize: 0x10 }
  - { offsetInCU: 0x5CD75, offset: 0x74339, size: 0x8, addend: 0x0, symName: __ZNSt3__14spanIjLm18446744073709551615EEC1B7v160006IPjEET_m, symObjAddr: 0x26350, symBinAddr: 0x100028AB0, symSize: 0x30 }
  - { offsetInCU: 0x5CDC6, offset: 0x7438A, size: 0x8, addend: 0x0, symName: __ZNKSt3__14spanIjLm18446744073709551615EE10__as_bytesB7v160006Ev, symObjAddr: 0x26380, symBinAddr: 0x100028AE0, symSize: 0x60 }
  - { offsetInCU: 0x5CDEC, offset: 0x743B0, size: 0x8, addend: 0x0, symName: __ZNKSt3__14spanIjLm18446744073709551615EE4dataB7v160006Ev, symObjAddr: 0x263E0, symBinAddr: 0x100028B40, symSize: 0x20 }
  - { offsetInCU: 0x5CE12, offset: 0x743D6, size: 0x8, addend: 0x0, symName: __ZNKSt3__14spanIjLm18446744073709551615EE10size_bytesB7v160006Ev, symObjAddr: 0x26400, symBinAddr: 0x100028B60, symSize: 0x20 }
  - { offsetInCU: 0x5CE38, offset: 0x743FC, size: 0x8, addend: 0x0, symName: __ZNSt3__14spanIjLm18446744073709551615EEC2B7v160006IPjEET_m, symObjAddr: 0x26420, symBinAddr: 0x100028B80, symSize: 0x40 }
  - { offsetInCU: 0x5CE88, offset: 0x7444C, size: 0x8, addend: 0x0, symName: __Z16htole64_internaly, symObjAddr: 0x26490, symBinAddr: 0x100028BF0, symSize: 0x10 }
  - { offsetInCU: 0x5CED3, offset: 0x74497, size: 0x8, addend: 0x0, symName: __ZNSt3__14spanIyLm18446744073709551615EEC1B7v160006IPyEET_m, symObjAddr: 0x264D0, symBinAddr: 0x100028C30, symSize: 0x30 }
  - { offsetInCU: 0x5CF24, offset: 0x744E8, size: 0x8, addend: 0x0, symName: __ZNKSt3__14spanIyLm18446744073709551615EE10__as_bytesB7v160006Ev, symObjAddr: 0x26500, symBinAddr: 0x100028C60, symSize: 0x60 }
  - { offsetInCU: 0x5CF4A, offset: 0x7450E, size: 0x8, addend: 0x0, symName: __ZNKSt3__14spanIyLm18446744073709551615EE4dataB7v160006Ev, symObjAddr: 0x26560, symBinAddr: 0x100028CC0, symSize: 0x20 }
  - { offsetInCU: 0x5CF70, offset: 0x74534, size: 0x8, addend: 0x0, symName: __ZNKSt3__14spanIyLm18446744073709551615EE10size_bytesB7v160006Ev, symObjAddr: 0x26580, symBinAddr: 0x100028CE0, symSize: 0x20 }
  - { offsetInCU: 0x5CF96, offset: 0x7455A, size: 0x8, addend: 0x0, symName: __ZNSt3__14spanIyLm18446744073709551615EEC2B7v160006IPyEET_m, symObjAddr: 0x265A0, symBinAddr: 0x100028D00, symSize: 0x40 }
  - { offsetInCU: 0x5CFE6, offset: 0x745AA, size: 0x8, addend: 0x0, symName: __Z9UCharCastPKSt4byte, symObjAddr: 0x26610, symBinAddr: 0x100028D70, symSize: 0x10 }
  - { offsetInCU: 0x5D013, offset: 0x745D7, size: 0x8, addend: 0x0, symName: __Z9SerializeI12VectorWriter7WrapperI15VectorFormatterI16DefaultFormatterERKNSt3__16vectorI7uint256NS5_9allocatorIS7_EEEEEEvRT_RKT0_, symObjAddr: 0x26620, symBinAddr: 0x100028D80, symSize: 0x30 }
  - { offsetInCU: 0x5D05E, offset: 0x74622, size: 0x8, addend: 0x0, symName: __ZL5UsingI15VectorFormatterI16DefaultFormatterERKNSt3__16vectorI7uint256NS3_9allocatorIS5_EEEEE7WrapperIT_RT0_EOSD_, symObjAddr: 0x26650, symBinAddr: 0x100028DB0, symSize: 0x30 }
  - { offsetInCU: 0x5D0A9, offset: 0x7466D, size: 0x8, addend: 0x0, symName: __ZNK7WrapperI15VectorFormatterI16DefaultFormatterERKNSt3__16vectorI7uint256NS3_9allocatorIS5_EEEEE9SerializeI12VectorWriterEEvRT_, symObjAddr: 0x26680, symBinAddr: 0x100028DE0, symSize: 0x30 }
  - { offsetInCU: 0x5D0EC, offset: 0x746B0, size: 0x8, addend: 0x0, symName: __ZN15VectorFormatterI16DefaultFormatterE3SerI12VectorWriterNSt3__16vectorI7uint256NS4_9allocatorIS6_EEEEEEvRT_RKT0_, symObjAddr: 0x266B0, symBinAddr: 0x100028E10, symSize: 0xA0 }
  - { offsetInCU: 0x5D1A3, offset: 0x74767, size: 0x8, addend: 0x0, symName: __ZNKSt3__16vectorI7uint256NS_9allocatorIS1_EEE5beginB7v160006Ev, symObjAddr: 0x26750, symBinAddr: 0x100028EB0, symSize: 0x30 }
  - { offsetInCU: 0x5D1CB, offset: 0x7478F, size: 0x8, addend: 0x0, symName: __ZNKSt3__16vectorI7uint256NS_9allocatorIS1_EEE3endB7v160006Ev, symObjAddr: 0x26780, symBinAddr: 0x100028EE0, symSize: 0x30 }
  - { offsetInCU: 0x5D1F3, offset: 0x747B7, size: 0x8, addend: 0x0, symName: __ZNKSt3__111__wrap_iterIPK7uint256EdeB7v160006Ev, symObjAddr: 0x267E0, symBinAddr: 0x100028F40, symSize: 0x20 }
  - { offsetInCU: 0x5D219, offset: 0x747DD, size: 0x8, addend: 0x0, symName: __ZN16DefaultFormatter3SerI12VectorWriter7uint256EEvRT_RKT0_, symObjAddr: 0x26800, symBinAddr: 0x100028F60, symSize: 0x30 }
  - { offsetInCU: 0x5D25D, offset: 0x74821, size: 0x8, addend: 0x0, symName: __ZNSt3__111__wrap_iterIPK7uint256EppB7v160006Ev, symObjAddr: 0x26830, symBinAddr: 0x100028F90, symSize: 0x20 }
  - { offsetInCU: 0x5D283, offset: 0x74847, size: 0x8, addend: 0x0, symName: __ZNKSt3__16vectorI7uint256NS_9allocatorIS1_EEE11__make_iterB7v160006EPKS1_, symObjAddr: 0x26850, symBinAddr: 0x100028FB0, symSize: 0x30 }
  - { offsetInCU: 0x5D2B8, offset: 0x7487C, size: 0x8, addend: 0x0, symName: __ZNSt3__111__wrap_iterIPK7uint256EC1B7v160006EPKvS3_, symObjAddr: 0x26880, symBinAddr: 0x100028FE0, symSize: 0x30 }
  - { offsetInCU: 0x5D2FE, offset: 0x748C2, size: 0x8, addend: 0x0, symName: __ZNSt3__111__wrap_iterIPK7uint256EC2B7v160006EPKvS3_, symObjAddr: 0x268B0, symBinAddr: 0x100029010, symSize: 0x20 }
  - { offsetInCU: 0x5D344, offset: 0x74908, size: 0x8, addend: 0x0, symName: __ZNKSt3__111__wrap_iterIPK7uint256E4baseB7v160006Ev, symObjAddr: 0x26910, symBinAddr: 0x100029070, symSize: 0x20 }
  - { offsetInCU: 0x5D36A, offset: 0x7492E, size: 0x8, addend: 0x0, symName: __Z9SerializeI12VectorWriter7uint256EvRT_RKT0_, symObjAddr: 0x26930, symBinAddr: 0x100029090, symSize: 0x30 }
  - { offsetInCU: 0x5D3B5, offset: 0x74979, size: 0x8, addend: 0x0, symName: __ZNK9base_blobILj256EE9SerializeI12VectorWriterEEvRT_, symObjAddr: 0x26960, symBinAddr: 0x1000290C0, symSize: 0x40 }
  - { offsetInCU: 0x5D3F2, offset: 0x749B6, size: 0x8, addend: 0x0, symName: __ZN12VectorWriterlsINSt3__14spanIKhLm32EEEEERS_RKT_, symObjAddr: 0x269A0, symBinAddr: 0x100029100, symSize: 0x40 }
  - { offsetInCU: 0x5D434, offset: 0x749F8, size: 0x8, addend: 0x0, symName: __ZNSt3__14spanIKhLm32EEC1B7v160006IhEERKNS_5arrayIT_Lm32EEE, symObjAddr: 0x269E0, symBinAddr: 0x100029140, symSize: 0x30 }
  - { offsetInCU: 0x5D476, offset: 0x74A3A, size: 0x8, addend: 0x0, symName: __Z9SerializeI12VectorWriterKhLm32EEvRT_NSt3__14spanIT0_XT1_EEE, symObjAddr: 0x26A10, symBinAddr: 0x100029170, symSize: 0x60 }
  - { offsetInCU: 0x5D4CB, offset: 0x74A8F, size: 0x8, addend: 0x0, symName: __ZNSt3__14spanIKSt4byteLm18446744073709551615EEC1B7v160006IS2_Lm32EEERKNS0_IT_XT0_EEE, symObjAddr: 0x26AA0, symBinAddr: 0x100029200, symSize: 0x30 }
  - { offsetInCU: 0x5D517, offset: 0x74ADB, size: 0x8, addend: 0x0, symName: __ZNKSt3__14spanIKhLm32EE10__as_bytesB7v160006Ev, symObjAddr: 0x26AD0, symBinAddr: 0x100029230, symSize: 0x50 }
  - { offsetInCU: 0x5D53D, offset: 0x74B01, size: 0x8, addend: 0x0, symName: __ZNKSt3__14spanIKhLm32EE4dataB7v160006Ev, symObjAddr: 0x26B20, symBinAddr: 0x100029280, symSize: 0x20 }
  - { offsetInCU: 0x5D563, offset: 0x74B27, size: 0x8, addend: 0x0, symName: __ZNKSt3__14spanIKhLm32EE10size_bytesB7v160006Ev, symObjAddr: 0x26B40, symBinAddr: 0x1000292A0, symSize: 0x10 }
  - { offsetInCU: 0x5D589, offset: 0x74B4D, size: 0x8, addend: 0x0, symName: __ZNSt3__14spanIKSt4byteLm32EEC1B7v160006IPS2_EET_m, symObjAddr: 0x26B50, symBinAddr: 0x1000292B0, symSize: 0x30 }
  - { offsetInCU: 0x5D5D8, offset: 0x74B9C, size: 0x8, addend: 0x0, symName: __ZNSt3__14spanIKSt4byteLm32EEC2B7v160006IPS2_EET_m, symObjAddr: 0x26B80, symBinAddr: 0x1000292E0, symSize: 0x40 }
  - { offsetInCU: 0x5D627, offset: 0x74BEB, size: 0x8, addend: 0x0, symName: __ZNSt3__14spanIKSt4byteLm18446744073709551615EEC2B7v160006IS2_Lm32EEERKNS0_IT_XT0_EEE, symObjAddr: 0x26BC0, symBinAddr: 0x100029320, symSize: 0x50 }
  - { offsetInCU: 0x5D673, offset: 0x74C37, size: 0x8, addend: 0x0, symName: __ZNKSt3__14spanIKSt4byteLm32EE4dataB7v160006Ev, symObjAddr: 0x26C10, symBinAddr: 0x100029370, symSize: 0x20 }
  - { offsetInCU: 0x5D699, offset: 0x74C5D, size: 0x8, addend: 0x0, symName: __ZNKSt3__14spanIKSt4byteLm32EE4sizeB7v160006Ev, symObjAddr: 0x26C30, symBinAddr: 0x100029390, symSize: 0x10 }
  - { offsetInCU: 0x5D6BF, offset: 0x74C83, size: 0x8, addend: 0x0, symName: __ZNSt3__14spanIKhLm32EEC2B7v160006IhEERKNS_5arrayIT_Lm32EEE, symObjAddr: 0x26C40, symBinAddr: 0x1000293A0, symSize: 0x40 }
  - { offsetInCU: 0x5D701, offset: 0x74CC5, size: 0x8, addend: 0x0, symName: __ZN7WrapperI15VectorFormatterI16DefaultFormatterERKNSt3__16vectorI7uint256NS3_9allocatorIS5_EEEEEC1ESA_, symObjAddr: 0x26C80, symBinAddr: 0x1000293E0, symSize: 0x30 }
  - { offsetInCU: 0x5D73A, offset: 0x74CFE, size: 0x8, addend: 0x0, symName: __ZN7WrapperI15VectorFormatterI16DefaultFormatterERKNSt3__16vectorI7uint256NS3_9allocatorIS5_EEEEEC2ESA_, symObjAddr: 0x26CB0, symBinAddr: 0x100029410, symSize: 0x20 }
  - { offsetInCU: 0x5D773, offset: 0x74D37, size: 0x8, addend: 0x0, symName: __Z9SerializeI12VectorWriter7WrapperI15VectorFormatterI16DefaultFormatterERKNSt3__16vectorI8CQPubKeyNS5_9allocatorIS7_EEEEEEvRT_RKT0_, symObjAddr: 0x26CD0, symBinAddr: 0x100029430, symSize: 0x30 }
  - { offsetInCU: 0x5D7BE, offset: 0x74D82, size: 0x8, addend: 0x0, symName: __ZL5UsingI15VectorFormatterI16DefaultFormatterERKNSt3__16vectorI8CQPubKeyNS3_9allocatorIS5_EEEEE7WrapperIT_RT0_EOSD_, symObjAddr: 0x26D00, symBinAddr: 0x100029460, symSize: 0x30 }
  - { offsetInCU: 0x5D809, offset: 0x74DCD, size: 0x8, addend: 0x0, symName: __ZNK7WrapperI15VectorFormatterI16DefaultFormatterERKNSt3__16vectorI8CQPubKeyNS3_9allocatorIS5_EEEEE9SerializeI12VectorWriterEEvRT_, symObjAddr: 0x26D30, symBinAddr: 0x100029490, symSize: 0x30 }
  - { offsetInCU: 0x5D847, offset: 0x74E0B, size: 0x8, addend: 0x0, symName: __ZN15VectorFormatterI16DefaultFormatterE3SerI12VectorWriterNSt3__16vectorI8CQPubKeyNS4_9allocatorIS6_EEEEEEvRT_RKT0_, symObjAddr: 0x26D60, symBinAddr: 0x1000294C0, symSize: 0xA0 }
  - { offsetInCU: 0x5D8FE, offset: 0x74EC2, size: 0x8, addend: 0x0, symName: __ZN16DefaultFormatter3SerI12VectorWriter8CQPubKeyEEvRT_RKT0_, symObjAddr: 0x26E00, symBinAddr: 0x100029560, symSize: 0x30 }
  - { offsetInCU: 0x5D942, offset: 0x74F06, size: 0x8, addend: 0x0, symName: __Z9SerializeI12VectorWriter8CQPubKeyEvRT_RKT0_, symObjAddr: 0x26E30, symBinAddr: 0x100029590, symSize: 0x30 }
  - { offsetInCU: 0x5D98D, offset: 0x74F51, size: 0x8, addend: 0x0, symName: __ZNK8CQPubKey9SerializeI12VectorWriterEEvRT_, symObjAddr: 0x26E60, symBinAddr: 0x1000295C0, symSize: 0x60 }
  - { offsetInCU: 0x5D9DA, offset: 0x74F9E, size: 0x8, addend: 0x0, symName: __ZN7WrapperI15VectorFormatterI16DefaultFormatterERKNSt3__16vectorI8CQPubKeyNS3_9allocatorIS5_EEEEEC1ESA_, symObjAddr: 0x26EC0, symBinAddr: 0x100029620, symSize: 0x30 }
  - { offsetInCU: 0x5DA13, offset: 0x74FD7, size: 0x8, addend: 0x0, symName: __ZN7WrapperI15VectorFormatterI16DefaultFormatterERKNSt3__16vectorI8CQPubKeyNS3_9allocatorIS5_EEEEEC2ESA_, symObjAddr: 0x26EF0, symBinAddr: 0x100029650, symSize: 0x20 }
  - { offsetInCU: 0x5DA4C, offset: 0x75010, size: 0x8, addend: 0x0, symName: __Z9SerializeI12VectorWriter7uint160NSt3__19allocatorIS1_EEEvRT_RKNS2_6vectorIT0_T1_EE, symObjAddr: 0x26F10, symBinAddr: 0x100029670, symSize: 0x40 }
  - { offsetInCU: 0x5DAA0, offset: 0x75064, size: 0x8, addend: 0x0, symName: __Z9SerializeI12VectorWriter7WrapperI15VectorFormatterI16DefaultFormatterERKNSt3__16vectorI7uint160NS5_9allocatorIS7_EEEEEEvRT_RKT0_, symObjAddr: 0x26F50, symBinAddr: 0x1000296B0, symSize: 0x30 }
  - { offsetInCU: 0x5DAEB, offset: 0x750AF, size: 0x8, addend: 0x0, symName: __ZL5UsingI15VectorFormatterI16DefaultFormatterERKNSt3__16vectorI7uint160NS3_9allocatorIS5_EEEEE7WrapperIT_RT0_EOSD_, symObjAddr: 0x26F80, symBinAddr: 0x1000296E0, symSize: 0x30 }
  - { offsetInCU: 0x5DB36, offset: 0x750FA, size: 0x8, addend: 0x0, symName: __ZNK7WrapperI15VectorFormatterI16DefaultFormatterERKNSt3__16vectorI7uint160NS3_9allocatorIS5_EEEEE9SerializeI12VectorWriterEEvRT_, symObjAddr: 0x26FB0, symBinAddr: 0x100029710, symSize: 0x30 }
  - { offsetInCU: 0x5DB74, offset: 0x75138, size: 0x8, addend: 0x0, symName: __ZN15VectorFormatterI16DefaultFormatterE3SerI12VectorWriterNSt3__16vectorI7uint160NS4_9allocatorIS6_EEEEEEvRT_RKT0_, symObjAddr: 0x26FE0, symBinAddr: 0x100029740, symSize: 0xA0 }
  - { offsetInCU: 0x5DC2B, offset: 0x751EF, size: 0x8, addend: 0x0, symName: __ZNKSt3__16vectorI7uint160NS_9allocatorIS1_EEE5beginB7v160006Ev, symObjAddr: 0x27080, symBinAddr: 0x1000297E0, symSize: 0x30 }
  - { offsetInCU: 0x5DC53, offset: 0x75217, size: 0x8, addend: 0x0, symName: __ZNKSt3__16vectorI7uint160NS_9allocatorIS1_EEE3endB7v160006Ev, symObjAddr: 0x270B0, symBinAddr: 0x100029810, symSize: 0x30 }
  - { offsetInCU: 0x5DC7B, offset: 0x7523F, size: 0x8, addend: 0x0, symName: __ZNKSt3__111__wrap_iterIPK7uint160EdeB7v160006Ev, symObjAddr: 0x27110, symBinAddr: 0x100029870, symSize: 0x20 }
  - { offsetInCU: 0x5DCA1, offset: 0x75265, size: 0x8, addend: 0x0, symName: __ZN16DefaultFormatter3SerI12VectorWriter7uint160EEvRT_RKT0_, symObjAddr: 0x27130, symBinAddr: 0x100029890, symSize: 0x30 }
  - { offsetInCU: 0x5DCE5, offset: 0x752A9, size: 0x8, addend: 0x0, symName: __ZNSt3__111__wrap_iterIPK7uint160EppB7v160006Ev, symObjAddr: 0x27160, symBinAddr: 0x1000298C0, symSize: 0x20 }
  - { offsetInCU: 0x5DD0B, offset: 0x752CF, size: 0x8, addend: 0x0, symName: __ZNKSt3__16vectorI7uint160NS_9allocatorIS1_EEE11__make_iterB7v160006EPKS1_, symObjAddr: 0x27180, symBinAddr: 0x1000298E0, symSize: 0x30 }
  - { offsetInCU: 0x5DD40, offset: 0x75304, size: 0x8, addend: 0x0, symName: __ZNSt3__111__wrap_iterIPK7uint160EC1B7v160006EPKvS3_, symObjAddr: 0x271B0, symBinAddr: 0x100029910, symSize: 0x30 }
  - { offsetInCU: 0x5DD86, offset: 0x7534A, size: 0x8, addend: 0x0, symName: __ZNSt3__111__wrap_iterIPK7uint160EC2B7v160006EPKvS3_, symObjAddr: 0x271E0, symBinAddr: 0x100029940, symSize: 0x20 }
  - { offsetInCU: 0x5DDCC, offset: 0x75390, size: 0x8, addend: 0x0, symName: __ZNKSt3__111__wrap_iterIPK7uint160E4baseB7v160006Ev, symObjAddr: 0x27240, symBinAddr: 0x1000299A0, symSize: 0x20 }
  - { offsetInCU: 0x5DDF2, offset: 0x753B6, size: 0x8, addend: 0x0, symName: __Z9SerializeI12VectorWriter7uint160EvRT_RKT0_, symObjAddr: 0x27260, symBinAddr: 0x1000299C0, symSize: 0x30 }
  - { offsetInCU: 0x5DE3D, offset: 0x75401, size: 0x8, addend: 0x0, symName: __ZNK9base_blobILj160EE9SerializeI12VectorWriterEEvRT_, symObjAddr: 0x27290, symBinAddr: 0x1000299F0, symSize: 0x40 }
  - { offsetInCU: 0x5DE7A, offset: 0x7543E, size: 0x8, addend: 0x0, symName: __ZN12VectorWriterlsINSt3__14spanIKhLm20EEEEERS_RKT_, symObjAddr: 0x272D0, symBinAddr: 0x100029A30, symSize: 0x40 }
  - { offsetInCU: 0x5DEBC, offset: 0x75480, size: 0x8, addend: 0x0, symName: __ZNSt3__14spanIKhLm20EEC1B7v160006IhEERKNS_5arrayIT_Lm20EEE, symObjAddr: 0x27310, symBinAddr: 0x100029A70, symSize: 0x30 }
  - { offsetInCU: 0x5DEFE, offset: 0x754C2, size: 0x8, addend: 0x0, symName: __Z9SerializeI12VectorWriterKhLm20EEvRT_NSt3__14spanIT0_XT1_EEE, symObjAddr: 0x27340, symBinAddr: 0x100029AA0, symSize: 0x60 }
  - { offsetInCU: 0x5DF53, offset: 0x75517, size: 0x8, addend: 0x0, symName: __ZNSt3__14spanIKSt4byteLm18446744073709551615EEC1B7v160006IS2_Lm20EEERKNS0_IT_XT0_EEE, symObjAddr: 0x273D0, symBinAddr: 0x100029B30, symSize: 0x30 }
  - { offsetInCU: 0x5DF9F, offset: 0x75563, size: 0x8, addend: 0x0, symName: __ZNKSt3__14spanIKhLm20EE10__as_bytesB7v160006Ev, symObjAddr: 0x27400, symBinAddr: 0x100029B60, symSize: 0x50 }
  - { offsetInCU: 0x5DFC5, offset: 0x75589, size: 0x8, addend: 0x0, symName: __ZNKSt3__14spanIKhLm20EE4dataB7v160006Ev, symObjAddr: 0x27450, symBinAddr: 0x100029BB0, symSize: 0x20 }
  - { offsetInCU: 0x5DFEB, offset: 0x755AF, size: 0x8, addend: 0x0, symName: __ZNKSt3__14spanIKhLm20EE10size_bytesB7v160006Ev, symObjAddr: 0x27470, symBinAddr: 0x100029BD0, symSize: 0x10 }
  - { offsetInCU: 0x5E011, offset: 0x755D5, size: 0x8, addend: 0x0, symName: __ZNSt3__14spanIKSt4byteLm20EEC1B7v160006IPS2_EET_m, symObjAddr: 0x27480, symBinAddr: 0x100029BE0, symSize: 0x30 }
  - { offsetInCU: 0x5E060, offset: 0x75624, size: 0x8, addend: 0x0, symName: __ZNSt3__14spanIKSt4byteLm20EEC2B7v160006IPS2_EET_m, symObjAddr: 0x274B0, symBinAddr: 0x100029C10, symSize: 0x40 }
  - { offsetInCU: 0x5E0AF, offset: 0x75673, size: 0x8, addend: 0x0, symName: __ZNSt3__14spanIKSt4byteLm18446744073709551615EEC2B7v160006IS2_Lm20EEERKNS0_IT_XT0_EEE, symObjAddr: 0x274F0, symBinAddr: 0x100029C50, symSize: 0x50 }
  - { offsetInCU: 0x5E0FB, offset: 0x756BF, size: 0x8, addend: 0x0, symName: __ZNKSt3__14spanIKSt4byteLm20EE4dataB7v160006Ev, symObjAddr: 0x27540, symBinAddr: 0x100029CA0, symSize: 0x20 }
  - { offsetInCU: 0x5E121, offset: 0x756E5, size: 0x8, addend: 0x0, symName: __ZNKSt3__14spanIKSt4byteLm20EE4sizeB7v160006Ev, symObjAddr: 0x27560, symBinAddr: 0x100029CC0, symSize: 0x10 }
  - { offsetInCU: 0x5E147, offset: 0x7570B, size: 0x8, addend: 0x0, symName: __ZNSt3__14spanIKhLm20EEC2B7v160006IhEERKNS_5arrayIT_Lm20EEE, symObjAddr: 0x27570, symBinAddr: 0x100029CD0, symSize: 0x40 }
  - { offsetInCU: 0x5E189, offset: 0x7574D, size: 0x8, addend: 0x0, symName: __ZN7WrapperI15VectorFormatterI16DefaultFormatterERKNSt3__16vectorI7uint160NS3_9allocatorIS5_EEEEEC1ESA_, symObjAddr: 0x275B0, symBinAddr: 0x100029D10, symSize: 0x30 }
  - { offsetInCU: 0x5E1C2, offset: 0x75786, size: 0x8, addend: 0x0, symName: __ZN7WrapperI15VectorFormatterI16DefaultFormatterERKNSt3__16vectorI7uint160NS3_9allocatorIS5_EEEEEC2ESA_, symObjAddr: 0x275E0, symBinAddr: 0x100029D40, symSize: 0x20 }
  - { offsetInCU: 0x5EDDE, offset: 0x763A2, size: 0x8, addend: 0x0, symName: __ZNK5BCLog6Logger7EnabledEv, symObjAddr: 0x27600, symBinAddr: 0x100029D60, symSize: 0x90 }
  - { offsetInCU: 0x5EE13, offset: 0x763D7, size: 0x8, addend: 0x0, symName: __ZNSt3__112basic_stringIcNS_11char_traitsIcEENS_9allocatorIcEEEC1B7v160006Ev, symObjAddr: 0x27690, symBinAddr: 0x100029DF0, symSize: 0x20 }
  - { offsetInCU: 0x5EEF2, offset: 0x764B6, size: 0x8, addend: 0x0, symName: __ZN10tinyformat17FormatStringCheckILj1EEC1EN4util21ConstevalFormatStringILj1EEE, symObjAddr: 0x27770, symBinAddr: 0x100029ED0, symSize: 0x30 }
  - { offsetInCU: 0x5EF2A, offset: 0x764EE, size: 0x8, addend: 0x0, symName: __ZNKSt3__112basic_stringIcNS_11char_traitsIcEENS_9allocatorIcEEEcvNS_17basic_string_viewIcS2_EEB7v160006Ev, symObjAddr: 0x277A0, symBinAddr: 0x100029F00, symSize: 0x50 }
  - { offsetInCU: 0x5EFAA, offset: 0x7656E, size: 0x8, addend: 0x0, symName: __ZN12StdLockGuardC1ER8StdMutex, symObjAddr: 0x277F0, symBinAddr: 0x100029F50, symSize: 0x30 }
  - { offsetInCU: 0x5EFE2, offset: 0x765A6, size: 0x8, addend: 0x0, symName: __ZNKSt3__14listINS_8functionIFvRKNS_12basic_stringIcNS_11char_traitsIcEENS_9allocatorIcEEEEEEENS5_ISB_EEE5emptyB7v160006Ev, symObjAddr: 0x27820, symBinAddr: 0x100029F80, symSize: 0x20 }
  - { offsetInCU: 0x5F008, offset: 0x765CC, size: 0x8, addend: 0x0, symName: __ZN12StdLockGuardD1Ev, symObjAddr: 0x27840, symBinAddr: 0x100029FA0, symSize: 0x20 }
  - { offsetInCU: 0x5F032, offset: 0x765F6, size: 0x8, addend: 0x0, symName: __ZN12StdLockGuardC2ER8StdMutex, symObjAddr: 0x27860, symBinAddr: 0x100029FC0, symSize: 0x30 }
  - { offsetInCU: 0x5F06A, offset: 0x7662E, size: 0x8, addend: 0x0, symName: __ZNSt3__110lock_guardI8StdMutexEC2B7v160006ERS1_, symObjAddr: 0x27890, symBinAddr: 0x100029FF0, symSize: 0x30 }
  - { offsetInCU: 0x5F0A2, offset: 0x76666, size: 0x8, addend: 0x0, symName: __ZNKSt3__110__list_impINS_8functionIFvRKNS_12basic_stringIcNS_11char_traitsIcEENS_9allocatorIcEEEEEEENS5_ISB_EEE5emptyB7v160006Ev, symObjAddr: 0x278C0, symBinAddr: 0x10002A020, symSize: 0x30 }
  - { offsetInCU: 0x5F0C8, offset: 0x7668C, size: 0x8, addend: 0x0, symName: __ZNKSt3__110__list_impINS_8functionIFvRKNS_12basic_stringIcNS_11char_traitsIcEENS_9allocatorIcEEEEEEENS5_ISB_EEE4__szB7v160006Ev, symObjAddr: 0x278F0, symBinAddr: 0x10002A050, symSize: 0x20 }
  - { offsetInCU: 0x5F0EE, offset: 0x766B2, size: 0x8, addend: 0x0, symName: __ZNKSt3__117__compressed_pairImNS_9allocatorINS_11__list_nodeINS_8functionIFvRKNS_12basic_stringIcNS_11char_traitsIcEENS1_IcEEEEEEEPvEEEEE5firstB7v160006Ev, symObjAddr: 0x27910, symBinAddr: 0x10002A070, symSize: 0x20 }
  - { offsetInCU: 0x5F114, offset: 0x766D8, size: 0x8, addend: 0x0, symName: __ZNKSt3__122__compressed_pair_elemImLi0ELb0EE5__getB7v160006Ev, symObjAddr: 0x27930, symBinAddr: 0x10002A090, symSize: 0x10 }
  - { offsetInCU: 0x5F13A, offset: 0x766FE, size: 0x8, addend: 0x0, symName: __ZN12StdLockGuardD2Ev, symObjAddr: 0x27940, symBinAddr: 0x10002A0A0, symSize: 0x20 }
  - { offsetInCU: 0x5F164, offset: 0x76728, size: 0x8, addend: 0x0, symName: __ZNSt3__110lock_guardI8StdMutexED2B7v160006Ev, symObjAddr: 0x27960, symBinAddr: 0x10002A0C0, symSize: 0x20 }
  - { offsetInCU: 0x5F18E, offset: 0x76752, size: 0x8, addend: 0x0, symName: __ZNSt3__112basic_stringIcNS_11char_traitsIcEENS_9allocatorIcEEEC2B7v160006Ev, symObjAddr: 0x27980, symBinAddr: 0x10002A0E0, symSize: 0x50 }
  - { offsetInCU: 0x5F208, offset: 0x767CC, size: 0x8, addend: 0x0, symName: __ZNSt3__119basic_ostringstreamIcNS_11char_traitsIcEENS_9allocatorIcEEEC1B7v160006Ev, symObjAddr: 0x279D0, symBinAddr: 0x10002A130, symSize: 0xE0 }
